 emul

 Timestamp is 4f0d80a4 (Wed Jan 11 15:29:24 2012)

 Preferred load address is 00400000

 Start         Length     Name                   Class
 0001:00000000 0008e25cH .text                   CODE
 0001:0008e260 000001b5H .text$yc                CODE
 0001:0008e420 000000f5H .text$yd                CODE
 0002:00000000 00000400H .idata$5                DATA
 0002:00000400 00000004H .CRT$XCA                DATA
 0002:00000404 00000030H .CRT$XCU                DATA
 0002:00000434 00000004H .CRT$XCZ                DATA
 0002:00000438 00000004H .CRT$XIA                DATA
 0002:0000043c 00000014H .CRT$XIC                DATA
 0002:00000450 00000004H .CRT$XIY                DATA
 0002:00000454 00000004H .CRT$XIZ                DATA
 0002:00000458 00000004H .CRT$XPA                DATA
 0002:0000045c 00000004H .CRT$XPX                DATA
 0002:00000460 00000004H .CRT$XPXA               DATA
 0002:00000464 00000004H .CRT$XPZ                DATA
 0002:00000468 00000004H .CRT$XTA                DATA
 0002:0000046c 00000004H .CRT$XTZ                DATA
 0002:00000470 00040127H .rdata                  DATA
 0002:00040598 0000003aH .rdata$debug            DATA
 0002:000405d4 00000004H .rtc$IAA                DATA
 0002:000405d8 00000004H .rtc$IZZ                DATA
 0002:000405dc 00000004H .rtc$TAA                DATA
 0002:000405e0 00000004H .rtc$TZZ                DATA
 0002:000405e8 00000a64H .xdata$x                DATA
 0002:0004104c 000000dcH .idata$2                DATA
 0002:00041128 00000014H .idata$3                DATA
 0002:0004113c 00000400H .idata$4                DATA
 0002:0004153c 00001204H .idata$6                DATA
 0002:00042740 00000000H .edata                  DATA
 0003:00000000 0002e8b4H .data                   DATA
 0003:0002f000 00f8c184H .bss                    DATA
 0004:00000000 000008e0H .rsrc$01                DATA
 0004:000008e0 000068e0H .rsrc$02                DATA

  Address         Publics by Value              Rva+Base       Lib:Object

 0000:00000000       ___safe_se_handler_count   00000000     <absolute>
 0000:00000000       ___safe_se_handler_table   00000000     <absolute>
 0000:00000000       __except_list              00000000     <absolute>
 0000:00000000       ___ImageBase               00400000     <linker-defined>
 0001:00000000       ??_H@YGXPAXIHP6EPAX0@Z@Z   00401000 f i emul.obj
 0001:00000030       ??_I@YGXPAXIHP6EX0@Z@Z     00401030 f i emul.obj
 0001:00000070       ??0CHEATDLG@@QAE@XZ        00401070 f i cheat.obj
 0001:000000a0       ??1CHEATDLG@@QAE@XZ        004010a0 f i cheat.obj
 0001:000000c0       ?SetTpi@Z80@@QAEXK@Z       004010c0 f i config.obj
 0001:000000d0       ?Cpu@TCpuMgr@@SAAAUZ80@@K@Z 004010d0 f i config.obj
 0001:000000e0       ?GetCount@TCpuMgr@@SAIXZ   004010e0 f i config.obj
 0001:000000f0       ?Open@TZc@@QAEXPBD@Z       004010f0 f i config.obj
 0001:00000140       ?Close@TZc@@QAEXXZ         00401140 f i config.obj
 0001:00000160       ?strstr@@YAPADPADPBD@Z     00401160 f i config.obj
 0001:00000180       ?strchr@@YAPADPADH@Z       00401180 f i config.obj
 0001:00000190       ?strrchr@@YAPADPADH@Z      00401190 f i config.obj
 0001:000001a0       ?DirectRm@Z80@@QBEEI@Z     004011a0 f i dbgbpx.obj
 0001:000001b0       ?Cpu@TCpuMgr@@SAAAUZ80@@XZ 004011b0 f i dbgbpx.obj
 0001:000001c0       ?DirectWm@Z80@@QAEXIE@Z    004011c0 f i dbgcmd.obj
 0001:000001e0       ?editrm@@YAEI@Z            004011e0 f i dbgcmd.obj
 0001:00000200       ??0MON_LABELS@@QAE@XZ      00401200 f i dbglabls.obj
 0001:00000230       ??1MON_LABELS@@QAE@XZ      00401230 f i dbglabls.obj
 0001:00000270       ?clear_ram@MON_LABELS@@QAEXXZ 00401270 f i dbglabls.obj
 0001:00000280       ?am_r@@YAPAEI@Z            00401280 f i dbglabls.obj
 0001:000002a0       ?clear@TRKCACHE@@QAEXXZ    004012a0 f i dbgmem.obj
 0001:000002c0       ??0TRKCACHE@@QAE@XZ        004012c0 f i dbgmem.obj
 0001:000002e0       ?get_activereg@SNDCHIP@@QAEEXZ 004012e0 f i dbgoth.obj
 0001:000002f0       ?get_reg@SNDCHIP@@QAEEI@Z  004012f0 f i dbgoth.obj
 0001:00000300       ?PrevCpu@TCpuMgr@@SAAAUTZ80State@@XZ 00401300 f i dbgreg.obj
 0001:00000310       ?GetCurrentCpu@TCpuMgr@@SAIXZ 00401310 f i dbgtrace.obj
 0001:00000320       ?handle_int@@YAXPAUZ80@@E@Z 00401320 f i dbgtrace.obj
 0001:000003d0       ?GetIdx@Z80@@QBEKXZ        004013d0 f i debug.obj
 0001:000003e0       ?PrevCpu@TCpuMgr@@SAAAUTZ80State@@K@Z 004013e0 f i debug.obj
 0001:000003f0       ?SetCurrentCpu@TCpuMgr@@SAXK@Z 004013f0 f i debug.obj
 0001:00000400       ?raypointer@@YAPAEXZ       00401400 f i draw.obj
 0001:00000440       ?clear_until_ray@@YAXXZ    00401440 f i draw.obj
 0001:00000490       ?switch_video@@YAXXZ       00401490 f i dx.obj
 0001:000004c0       ?line_8_any@@YAXPAE0@Z     004014c0 f i dxr_advm.obj
 0001:000004e0       ?line_32_any@@YAXPAE0@Z    004014e0 f i dxr_advm.obj
 0001:00000510       ??0RSM_DATA@@QAE@XZ        00401510 f i dxr_rsm.obj
 0001:00000520       ??1RSM_DATA@@QAE@XZ        00401520 f i dxr_rsm.obj
 0001:00000530       ?advance_eg_channel@@YAXPAUFM_OPN@@PAUFM_SLOT@@@Z 00401530 f i emul_2203.obj
 0001:00000750       ?pretest_font@@YAHIII@Z    00401750 f i fntsrch.obj
 0001:000008d0       ?reset@Z80@@QAEXXZ         004018d0 f i gsz80.obj
 0001:00000900       ?SetFastMemIf@Z80@@QAEXXZ  00401900 f i gsz80.obj
 0001:00000910       ?SetDbgMemIf@Z80@@QAEXXZ   00401910 f i gsz80.obj
 0001:00000920       ?start_frame@SNDRENDER@@QAEXXZ 00401920 f i gsz80.obj
 0001:00000940       ?GetDreq@TRingBuffer@@QBE_NXZ 00401940 f i gsz80.obj
 0001:00000950       ?GetDreq@TVs1001@@QBE_NXZ  00401950 f i gsz80.obj
 0001:00000960       ?handle_int@z80gs@@YAXPAUZ80@@E@Z 00401960 f i gsz80.obj
 0001:00000a10       ?am_r@z80gs@@YAPAEK@Z      00401a10 f i gsz80.obj
 0001:00000a30       ?rm@z80fast@z80gs@@YAEI@Z  00401a30 f i gsz80.obj
 0001:00000a80       ?wm@z80fast@z80gs@@YAXIE@Z 00401a80 f i gsz80.obj
 0001:00000ab0       ?rm@z80dbg@z80gs@@YAEI@Z   00401ab0 f i gsz80.obj
 0001:00000b20       ?wm@z80dbg@z80gs@@YAXIE@Z  00401b20 f i gsz80.obj
 0001:00000b70       ?m1_cycle@z80gs@@YAEPAUZ80@@@Z 00401b70 f i gsz80.obj
 0001:00000b90       ?get_chipname@SNDCHIP@@SAPBDW4CHIP_TYPE@1@@Z 00401b90 f i gui.obj
 0001:00000ba0       ?loaded@ATA_PASSER@@QAE_NXZ 00401ba0 f i hdd.obj
 0001:00000bb0       ?flush@ATA_PASSER@@QAEHXZ  00401bb0 f i hdd.obj
 0001:00000bc0       ?loaded@ATAPI_PASSER@@QAE_NXZ 00401bc0 f i hdd.obj
 0001:00000be0       ?loaded@ATA_DEVICE@@QAE_NXZ 00401be0 f i hdd.obj
 0001:00000c10       ??0ATA_PASSER@@QAE@XZ      00401c10 f i hddio.obj
 0001:00000c20       ??1ATA_PASSER@@QAE@XZ      00401c20 f i hddio.obj
 0001:00000c30       ??0ATAPI_PASSER@@QAE@XZ    00401c30 f i hddio.obj
 0001:00000c40       ??1ATAPI_PASSER@@QAE@XZ    00401c40 f i hddio.obj
 0001:00000c70       ?init_tape@@YAXXZ          00401c70 f i init.obj
 0001:00000c80       ?done_tape@@YAXXZ          00401c80 f i init.obj
 0001:00000c90       ?press_zx@K_INPUT@@QAEXE@Z 00401c90 f i input.obj
 0001:00000cd0       ?sign_pm@@YAHH@Z           00401cd0 f i input.obj
 0001:00000ce0       ?in1@@YAEI@Z               00401ce0 f i io.obj
 0001:00001630       ?get_env@SNDCHIP@@QAEIXZ   00402630 f i leds.obj
 0001:00001640       ?update_perf_led@@YAXXZ    00402640 f i leds.obj
 0001:00001720       ??0TSdCard@@QAE@XZ         00402720 f i sdcard.obj
 0001:00001730       ?set_chip@SNDCHIP@@QAEXW4CHIP_TYPE@1@@Z 00402730 f i sound.obj
 0001:00001740       ?start_frame@SNDCHIP@@QAEXXZ 00402740 f i sound.obj
 0001:00001760       ?get_r13_reloaded@SNDCHIP@@QAEEXZ 00402760 f i sound.obj
 0001:00001770       ?start_frame@TSaa1099@@QAEXXZ 00402770 f i sound.obj
 0001:000017a0       ??0Z80@@QAE@KP6AXHPAD@ZP6IXXZP6A_JXZP6AXXZPAEPBUTMemIf@@6@Z 004027a0 f i vars.obj
 0001:00001860       ??1Z80@@UAE@XZ             00402860 f i vars.obj
 0001:00001870       ??_GZ80@@UAEPAXI@Z         00402870 f i vars.obj
 0001:00001870       ??_EZ80@@UAEPAXI@Z         00402870 f i  CIL library: CIL module
 0001:00001890       ??1FDD@@QAE@XZ             00402890 f i vars.obj
 0001:000018a0       ??0WD1793@@QAE@XZ          004028a0 f i vars.obj
 0001:00001930       ??0FDD@@QAE@XZ             00402930 f i vars.obj
 0001:00001950       ??0ATA_PORT@@QAE@XZ        00402950 f i vars.obj
 0001:00001990       ??0ATA_DEVICE@@QAE@XZ      00402990 f i vars.obj
 0001:000019b0       ??1ATA_DEVICE@@QAE@XZ      004029b0 f i vars.obj
 0001:00001a00       ??0K_INPUT@@QAE@XZ         00402a00 f i vars.obj
 0001:00001a40       ??0TMainZ80@@QAE@KP6AXHPAD@ZP6IXXZP6A_JXZP6AXXZPAEPBUTMemIf@@6@Z 00402a40 f i vars.obj
 0001:00001a80       ??_ETMainZ80@@UAEPAXI@Z    00402a80 f i  CIL library: CIL module
 0001:00001a80       ??_GTMainZ80@@UAEPAXI@Z    00402a80 f i vars.obj
 0001:00001aa0       ??1TMainZ80@@UAE@XZ        00402aa0 f i vars.obj
 0001:00001ab0       ??0TGsZ80@@QAE@KP6AXHPAD@ZP6IXXZP6A_JXZP6AXXZPAEPBUTMemIf@@6@Z 00402ab0 f i vars.obj
 0001:00001af0       ??_ETGsZ80@@UAEPAXI@Z      00402af0 f i  CIL library: CIL module
 0001:00001af0       ??_GTGsZ80@@UAEPAXI@Z      00402af0 f i vars.obj
 0001:00001b10       ??1TGsZ80@@UAE@XZ          00402b10 f i vars.obj
 0001:00001b20       ??0SNDCOUNTER@@QAE@XZ      00402b20 f i vars.obj
 0001:00001b30       ?m1_cycle@@YAEPAUZ80@@@Z   00402b30 f i vars.obj
 0001:00001b50       ??0COMPUTER@@QAE@XZ        00402b50 f i vars.obj
 0001:00001b70       ??1COMPUTER@@QAE@XZ        00402b70 f i vars.obj
 0001:00001ba0       ??1WD1793@@QAE@XZ          00402ba0 f i vars.obj
 0001:00001bd0       ??1ATA_PORT@@QAE@XZ        00402bd0 f i vars.obj
 0001:00001c40       ??0TCriticalSection@@QAE@XZ 00402c40 f i vs1001.obj
 0001:00001c50       ??1TCriticalSection@@QAE@XZ 00402c50 f i vs1001.obj
 0001:00001c60       ?Lock@TCriticalSection@@QAEXXZ 00402c60 f i vs1001.obj
 0001:00001c70       ?Unlock@TCriticalSection@@QAEXXZ 00402c70 f i vs1001.obj
 0001:00001c80       ??0TEvent@@QAE@H@Z         00402c80 f i vs1001.obj
 0001:00001ca0       ??1TEvent@@QAE@XZ          00402ca0 f i vs1001.obj
 0001:00001cb0       ?Set@TEvent@@QAEXXZ        00402cb0 f i vs1001.obj
 0001:00001cc0       ?Reset@TEvent@@QAEXXZ      00402cc0 f i vs1001.obj
 0001:00001cd0       ?Wait@TEvent@@QAE_NK@Z     00402cd0 f i vs1001.obj
 0001:00001cf0       ??0TRingBuffer@@QAE@XZ     00402cf0 f i vs1001.obj
 0001:00001d50       ?Cancel@TRingBuffer@@QAEXXZ 00402d50 f i vs1001.obj
 0001:00001d70       ?Thread@TVs1001@@CGIPAX@Z  00402d70 f i vs1001.obj
 0001:00001da0       ?StreamClose@TVs1001@@CGXPAX@Z 00402da0 f i vs1001.obj
 0001:00001dc0       ?StreamLen@TVs1001@@CG_KPAX@Z 00402dc0 f i vs1001.obj
 0001:00001dd0       ?StreamRead@TVs1001@@CGKPAXK0@Z 00402dd0 f i vs1001.obj
 0001:00001df0       ?StreamSeek@TVs1001@@CGH_KPAX@Z 00402df0 f i vs1001.obj
 0001:00001e00       ??1TRingBuffer@@QAE@XZ     00402e00 f i vs1001.obj
 0001:00001e20       ??1TVs1001@@QAE@XZ         00402e20 f i vs1001.obj
 0001:00001e50       _powf                      00402e50 f i vs1001.obj
 0001:00001e70       ?set_i@TRKCACHE@@QAEXI@Z   00402e70 f i wd93cmd.obj
 0001:00001e90       ?clr_i@TRKCACHE@@QAEXI@Z   00402e90 f i wd93cmd.obj
 0001:00001eb0       ?write@TRKCACHE@@QAEXIED@Z 00402eb0 f i wd93cmd.obj
 0001:00001ee0       ?test_i@TRKCACHE@@QAEEI@Z  00402ee0 f i wd93trk.obj
 0001:00001f00       ?m1_cycle@z80fast@@YAEPAUZ80@@@Z 00402f00 f i z80.obj
 0001:00001f50       ?m1_cycle@z80dbg@@YAEPAUZ80@@@Z 00402f50 f i z80.obj
 0001:00001fa0       ??0TZc@@QAE@XZ             00402fa0 f i zc.obj
 0001:00001fc0       ?and8@@YAXPAUZ80@@E@Z      00402fc0 f i z80:op_noprefix.obj
 0001:00001fe0       ?or8@@YAXPAUZ80@@E@Z       00402fe0 f i z80:op_noprefix.obj
 0001:00002000       ?xor8@@YAXPAUZ80@@E@Z      00403000 f i z80:op_noprefix.obj
 0001:00002020       ?inc8@@YAXPAUZ80@@AAE@Z    00403020 f i z80:op_noprefix.obj
 0001:00002040       ?dec8@@YAXPAUZ80@@AAE@Z    00403040 f i z80:op_noprefix.obj
 0001:00002060       ?add8@@YAXPAUZ80@@E@Z      00403060 f i z80:op_noprefix.obj
 0001:00002090       ?sub8@@YAXPAUZ80@@E@Z      00403090 f i z80:op_noprefix.obj
 0001:000020c0       ?adc8@@YAXPAUZ80@@E@Z      004030c0 f i z80:op_noprefix.obj
 0001:000020f0       ?sbc8@@YAXPAUZ80@@E@Z      004030f0 f i z80:op_noprefix.obj
 0001:00002120       ?cp8@@YAXPAUZ80@@E@Z       00403120 f i z80:op_noprefix.obj
 0001:00002140       ?bitmem@@YAXPAUZ80@@EE@Z   00403140 f i z80:op_ddcb.obj
 0001:00002180       ?resbyte@@YAEEE@Z          00403180 f i z80:op_ddcb.obj
 0001:000021a0       ?setbyte@@YAEEE@Z          004031a0 f i z80:op_ddcb.obj
 0001:000021b0       ?ddfd@@YIXPAUZ80@@E@Z      004031b0 f i z80:op_ddcb.obj
 0001:000022a0       ?set@@YAXAAEE@Z            004032a0 f i z80:op_cb.obj
 0001:000022b0       ?res@@YAXAAEE@Z            004032b0 f i z80:op_cb.obj
 0001:000022c0       ?bit@@YAXPAUZ80@@EE@Z      004032c0 f i z80:op_cb.obj
 0001:000022ea       _DirectInputCreateA@16     004032ea f   dinput:DINPUT.dll
 0001:000022f0       _DirectDrawCreate@12       004032f0 f   ddraw:DDRAW.dll
 0001:000022f6       _DirectSoundCreate@12      004032f6 f   dsound:DSOUND.dll
 0001:000022fc       _MessageBoxA@16            004032fc f   user32:USER32.dll
 0001:00002302       _GetDlgItemTextA@16        00403302 f   user32:USER32.dll
 0001:00002308       _EnableWindow@8            00403308 f   user32:USER32.dll
 0001:0000230e       _GetDlgItem@8              0040330e f   user32:USER32.dll
 0001:00002314       _ShowWindow@8              00403314 f   user32:USER32.dll
 0001:0000231a       _SendMessageA@16           0040331a f   user32:USER32.dll
 0001:00002320       _SetWindowTextA@8          00403320 f   user32:USER32.dll
 0001:00002326       _SendDlgItemMessageA@20    00403326 f   user32:USER32.dll
 0001:0000232c       _EndDialog@8               0040332c f   user32:USER32.dll
 0001:00002332       _DialogBoxParamA@20        00403332 f   user32:USER32.dll
 0001:00002338       _GetFocus@0                00403338 f   user32:USER32.dll
 0001:0000233e       _IsDlgButtonChecked@8      0040333e f   user32:USER32.dll
 0001:00002344       _CheckDlgButton@12         00403344 f   user32:USER32.dll
 0001:0000234a       _SetDlgItemTextA@12        0040334a f   user32:USER32.dll
 0001:00002350       _SetFocus@4                00403350 f   user32:USER32.dll
 0001:00002356       _GetForegroundWindow@0     00403356 f   user32:USER32.dll
 0001:0000235c       _GetKeyboardState@4        0040335c f   user32:USER32.dll
 0001:00002362       _ToAscii@20                00403362 f   user32:USER32.dll
 0001:00002368       _CharToOemBuffA@12         00403368 f   user32:USER32.dll
 0001:0000236e       _PostThreadMessageA@16     0040336e f   user32:USER32.dll
 0001:00002374       _CreatePopupMenu@0         00403374 f   user32:USER32.dll
 0001:0000237a       _AppendMenuA@16            0040337a f   user32:USER32.dll
 0001:00002380       _TrackPopupMenu@28         00403380 f   user32:USER32.dll
 0001:00002386       _DestroyMenu@4             00403386 f   user32:USER32.dll
 0001:0000238c       _IsRectEmpty@4             0040338c f   user32:USER32.dll
 0001:00002392       _ShowCursor@4              00403392 f   user32:USER32.dll
 0001:00002398       _GetClientRect@8           00403398 f   user32:USER32.dll
 0001:0000239e       _ClientToScreen@8          0040339e f   user32:USER32.dll
 0001:000023a4       _ClipCursor@4              004033a4 f   user32:USER32.dll
 0001:000023aa       _SetCursor@4               004033aa f   user32:USER32.dll
 0001:000023b0       _FillRect@12               004033b0 f   user32:USER32.dll
 0001:000023b6       _DefWindowProcA@16         004033b6 f   user32:USER32.dll
 0001:000023bc       _GetWindowLongA@8          004033bc f   user32:USER32.dll
 0001:000023c2       _GetWindowRect@8           004033c2 f   user32:USER32.dll
 0001:000023c8       _SetWindowLongA@12         004033c8 f   user32:USER32.dll
 0001:000023ce       _AdjustWindowRect@12       004033ce f   user32:USER32.dll
 0001:000023d4       _MoveWindow@24             004033d4 f   user32:USER32.dll
 0001:000023da       _CharToOemA@8              004033da f   user32:USER32.dll
 0001:000023e0       _LoadIconA@8               004033e0 f   user32:USER32.dll
 0001:000023e6       _LoadCursorA@8             004033e6 f   user32:USER32.dll
 0001:000023ec       _RegisterClassA@4          004033ec f   user32:USER32.dll
 0001:000023f2       _SystemParametersInfoA@16  004033f2 f   user32:USER32.dll
 0001:000023f8       _CreateWindowExA@48        004033f8 f   user32:USER32.dll
 0001:000023fe       _GetDC@4                   004033fe f   user32:USER32.dll
 0001:00002404       _GetSystemMenu@8           00403404 f   user32:USER32.dll
 0001:0000240a       _ReleaseDC@8               0040340a f   user32:USER32.dll
 0001:00002410       _DestroyWindow@4           00403410 f   user32:USER32.dll
 0001:00002416       _GetSystemMetrics@4        00403416 f   user32:USER32.dll
 0001:0000241c       _SetWindowPos@28           0040341c f   user32:USER32.dll
 0001:00002422       _BeginPaint@8              00403422 f   user32:USER32.dll
 0001:00002428       _EndPaint@8                00403428 f   user32:USER32.dll
 0001:0000242e       _GetWindowTextA@12         0040342e f   user32:USER32.dll
 0001:00002434       _OpenClipboard@4           00403434 f   user32:USER32.dll
 0001:0000243a       _GetClipboardData@4        0040343a f   user32:USER32.dll
 0001:00002440       _CloseClipboard@0          00403440 f   user32:USER32.dll
 0001:00002446       _GetParent@4               00403446 f   user32:USER32.dll
 0001:0000244c       _PeekMessageA@20           0040344c f   user32:USER32.dll
 0001:00002452       _MapWindowPoints@16        00403452 f   user32:USER32.dll
 0001:00002458       _PtInRect@12               00403458 f   user32:USER32.dll
 0001:0000245e       _DispatchMessageA@4        0040345e f   user32:USER32.dll
 0001:00002464       _SetDIBitsToDevice@48      00403464 f   gdi32:GDI32.dll
 0001:0000246a       _DeleteObject@4            0040346a f   gdi32:GDI32.dll
 0001:00002470       _CreateCompatibleBitmap@12 00403470 f   gdi32:GDI32.dll
 0001:00002476       _CreateCompatibleDC@4      00403476 f   gdi32:GDI32.dll
 0001:0000247c       _SelectObject@8            0040347c f   gdi32:GDI32.dll
 0001:00002482       _BitBlt@36                 00403482 f   gdi32:GDI32.dll
 0001:00002488       _DeleteDC@4                00403488 f   gdi32:GDI32.dll
 0001:0000248e       _CreateSolidBrush@4        0040348e f   gdi32:GDI32.dll
 0001:00002494       _GetSystemPaletteEntries@16 00403494 f   gdi32:GDI32.dll
 0001:0000249a       _CreatePalette@4           0040349a f   gdi32:GDI32.dll
 0001:000024a0       _SelectPalette@12          004034a0 f   gdi32:GDI32.dll
 0001:000024a6       _RealizePalette@4          004034a6 f   gdi32:GDI32.dll
 0001:000024ac       _GetStockObject@4          004034ac f   gdi32:GDI32.dll
 0001:000024b2       _DragQueryFileA@16         004034b2 f   shell32:SHELL32.dll
 0001:000024b8       _DragFinish@4              004034b8 f   shell32:SHELL32.dll
 0001:000024be       _DragAcceptFiles@8         004034be f   shell32:SHELL32.dll
 0001:000024c4       _waveOutUnprepareHeader@12 004034c4 f   winmm:WINMM.dll
 0001:000024ca       _waveOutPrepareHeader@12   004034ca f   winmm:WINMM.dll
 0001:000024d0       _waveOutWrite@12           004034d0 f   winmm:WINMM.dll
 0001:000024d6       _waveOutOpen@24            004034d6 f   winmm:WINMM.dll
 0001:000024dc       _waveOutReset@4            004034dc f   winmm:WINMM.dll
 0001:000024e2       _waveOutClose@4            004034e2 f   winmm:WINMM.dll
 0001:000024e8       _timeBeginPeriod@4         004034e8 f   winmm:WINMM.dll
 0001:000024ee       _timeEndPeriod@4           004034ee f   winmm:WINMM.dll
 0001:000024f4       _GetSaveFileNameA@4        004034f4 f   comdlg32:COMDLG32.dll
 0001:000024fa       _GetOpenFileNameA@4        004034fa f   comdlg32:COMDLG32.dll
 0001:00002500       _CommDlgExtendedError@0    00403500 f   comdlg32:COMDLG32.dll
 0001:00002506       _InitCommonControls@0      00403506 f   comctl32:COMCTL32.dll
 0001:0000250c       _PropertySheetA@4          0040350c f   comctl32:COMCTL32.dll
 0001:00002512       _DXGetErrorString8A@4      00403512 f   dxerr8:dxerr8.obj
 0001:00004ea0       _DXGetErrorString8W@4      00405ea0 f   dxerr8:dxerr8.obj
 0001:0000782e       _DXGetErrorDescription8A@4 0040882e f   dxerr8:dxerr8.obj
 0001:0000a121       _DXGetErrorDescription8W@4 0040b121 f   dxerr8:dxerr8.obj
 0001:0000ca14       _DXTraceW@20               0040da14 f   dxerr8:dxerr8.obj
 0001:0000cb6c       _DXTraceA@20               0040db6c f   dxerr8:dxerr8.obj
 0001:0000ccce       _SetupDiGetClassDevsA@16   0040dcce f   setupapi:SETUPAPI.dll
 0001:0000ccd4       _SetupDiEnumDeviceInterfaces@20 0040dcd4 f   setupapi:SETUPAPI.dll
 0001:0000ccda       _SetupDiDestroyDeviceInfoList@4 0040dcda f   setupapi:SETUPAPI.dll
 0001:0000cce0       @__security_check_cookie@4 0040dce0 f   LIBCMT:secchk.obj
 0001:0000ccef       _printf                    0040dcef f   LIBCMT:printf.obj
 0001:0000cd9e       __printf_l                 0040dd9e f   LIBCMT:printf.obj
 0001:0000cdb7       __printf_s_l               0040ddb7 f   LIBCMT:printf.obj
 0001:0000cdd0       _printf_s                  0040ddd0 f   LIBCMT:printf.obj
 0001:0000cde8       __printf_p_l               0040dde8 f   LIBCMT:printf.obj
 0001:0000ce01       __printf_p                 0040de01 f   LIBCMT:printf.obj
 0001:0000ce19       __set_printf_count_output  0040de19 f   LIBCMT:printf.obj
 0001:0000ce43       __get_printf_count_output  0040de43 f   LIBCMT:printf.obj
 0001:0000ce59       __invoke_watson_if_error   0040de59 f i LIBCMT:wassert.obj
 0001:0000ce9b       __wassert                  0040de9b f   LIBCMT:wassert.obj
 0001:0000d6a7       ___onexitinit              0040e6a7 f   LIBCMT:onexit.obj
 0001:0000d6d8       __onexit                   0040e6d8 f   LIBCMT:onexit.obj
 0001:0000d714       _atexit                    0040e714 f   LIBCMT:onexit.obj
 0001:0000d72b       _free                      0040e72b f   LIBCMT:free.obj
 0001:0000d7b9       _realloc                   0040e7b9 f   LIBCMT:realloc.obj
 0001:0000da3e       _sscanf                    0040ea3e f   LIBCMT:sscanf.obj
 0001:0000da60       __sscanf_l                 0040ea60 f   LIBCMT:sscanf.obj
 0001:0000da83       _sscanf_s                  0040ea83 f   LIBCMT:sscanf.obj
 0001:0000daa5       __sscanf_s_l               0040eaa5 f   LIBCMT:sscanf.obj
 0001:0000dac8       _sprintf                   0040eac8 f   LIBCMT:sprintf.obj
 0001:0000db45       __sprintf_l                0040eb45 f   LIBCMT:sprintf.obj
 0001:0000db61       _sprintf_s                 0040eb61 f   LIBCMT:sprintf.obj
 0001:0000db7f       __sprintf_s_l              0040eb7f f   LIBCMT:sprintf.obj
 0001:0000db9e       __snprintf_s               0040eb9e f   LIBCMT:sprintf.obj
 0001:0000dbbf       __snprintf_s_l             0040ebbf f   LIBCMT:sprintf.obj
 0001:0000dbe1       __sprintf_p                0040ebe1 f   LIBCMT:sprintf.obj
 0001:0000dbff       __sprintf_p_l              0040ebff f   LIBCMT:sprintf.obj
 0001:0000dc1e       __scprintf                 0040ec1e f   LIBCMT:sprintf.obj
 0001:0000dc33       __scprintf_p               0040ec33 f   LIBCMT:sprintf.obj
 0001:0000dc48       __scprintf_l               0040ec48 f   LIBCMT:sprintf.obj
 0001:0000dc61       __scprintf_p_l             0040ec61 f   LIBCMT:sprintf.obj
 0001:0000dc80       _strrchr                   0040ec80 f   LIBCMT:strrchr.obj
 0001:0000dcad       _atol                      0040ecad f   LIBCMT:atox.obj
 0001:0000dcc3       __atol_l                   0040ecc3 f   LIBCMT:atox.obj
 0001:0000dcdc       _atoi                      0040ecdc f   LIBCMT:atox.obj
 0001:0000dce7       __atoi_l                   0040ece7 f   LIBCMT:atox.obj
 0001:0000dcf2       __atoi64                   0040ecf2 f   LIBCMT:atox.obj
 0001:0000dd08       __atoi64_l                 0040ed08 f   LIBCMT:atox.obj
 0001:0000dd21       __fsopen                   0040ed21 f   LIBCMT:fopen.obj
 0001:0000dde5       _fopen                     0040ede5 f   LIBCMT:fopen.obj
 0001:0000ddfc       _fopen_s                   0040edfc f   LIBCMT:fopen.obj
 0001:0000de4f       __fseek_nolock             0040ee4f f   LIBCMT:fseek.obj
 0001:0000ded9       _fseek                     0040eed9 f   LIBCMT:fseek.obj
 0001:0000df5e       __fclose_nolock            0040ef5e f   LIBCMT:fclose.obj
 0001:0000dfd5       _fclose                    0040efd5 f   LIBCMT:fclose.obj
 0001:0000e051       __fread_nolock_s           0040f051 f   LIBCMT:fread.obj
 0001:0000e25b       __fread_nolock             0040f25b f   LIBCMT:fread.obj
 0001:0000e278       _fread_s                   0040f278 f   LIBCMT:fread.obj
 0001:0000e30e       _fread                     0040f30e f   LIBCMT:fread.obj
 0001:0000e32b       __fwrite_nolock            0040f32b f   LIBCMT:fwrite.obj
 0001:0000e48d       _fwrite                    0040f48d f   LIBCMT:fwrite.obj
 0001:0000e520       _strchr                    0040f520 f   LIBCMT:strchr.obj
 0001:0000e526       ___from_strstr_to_strchr   0040f526     LIBCMT:strchr.obj
 0001:0000e5e0       _strstr                    0040f5e0 f   LIBCMT:strstr.obj
 0001:0000e666       ??0_LocaleUpdate@@QAE@PAUlocaleinfo_struct@@@Z 0040f666 f i LIBCMT:_ctype.obj
 0001:0000e6ed       ??1_LocaleUpdate@@QAE@XZ   0040f6ed f i LIBCMT:_ctype.obj
 0001:0000e6fb       ?GetLocaleT@_LocaleUpdate@@QAEPAUlocaleinfo_struct@@XZ 0040f6fb f i LIBCMT:_ctype.obj
 0001:0000e6fe       __isalpha_l                0040f6fe f i LIBCMT:_ctype.obj
 0001:0000e754       _isalpha                   0040f754 f i LIBCMT:_ctype.obj
 0001:0000e784       __isupper_l                0040f784 f i LIBCMT:_ctype.obj
 0001:0000e7d5       _isupper                   0040f7d5 f i LIBCMT:_ctype.obj
 0001:0000e803       __islower_l                0040f803 f i LIBCMT:_ctype.obj
 0001:0000e854       _islower                   0040f854 f i LIBCMT:_ctype.obj
 0001:0000e882       __isdigit_l                0040f882 f i LIBCMT:_ctype.obj
 0001:0000e8d3       _isdigit                   0040f8d3 f i LIBCMT:_ctype.obj
 0001:0000e901       __isxdigit_l               0040f901 f i LIBCMT:_ctype.obj
 0001:0000e957       _isxdigit                  0040f957 f i LIBCMT:_ctype.obj
 0001:0000e987       __isspace_l                0040f987 f i LIBCMT:_ctype.obj
 0001:0000e9d8       _isspace                   0040f9d8 f i LIBCMT:_ctype.obj
 0001:0000ea06       __ispunct_l                0040fa06 f i LIBCMT:_ctype.obj
 0001:0000ea57       _ispunct                   0040fa57 f i LIBCMT:_ctype.obj
 0001:0000ea85       __isalnum_l                0040fa85 f i LIBCMT:_ctype.obj
 0001:0000eadb       _isalnum                   0040fadb f i LIBCMT:_ctype.obj
 0001:0000eb0b       __isprint_l                0040fb0b f i LIBCMT:_ctype.obj
 0001:0000eb61       _isprint                   0040fb61 f i LIBCMT:_ctype.obj
 0001:0000eb91       __isgraph_l                0040fb91 f i LIBCMT:_ctype.obj
 0001:0000ebe7       _isgraph                   0040fbe7 f i LIBCMT:_ctype.obj
 0001:0000ec17       __iscntrl_l                0040fc17 f i LIBCMT:_ctype.obj
 0001:0000ec68       _iscntrl                   0040fc68 f i LIBCMT:_ctype.obj
 0001:0000ec96       ___isascii                 0040fc96 f i LIBCMT:_ctype.obj
 0001:0000eca8       ___toascii                 0040fca8 f i LIBCMT:_ctype.obj
 0001:0000ecb5       __iscsymf_l                0040fcb5 f i LIBCMT:_ctype.obj
 0001:0000ecd8       ___iscsymf                 0040fcd8 f i LIBCMT:_ctype.obj
 0001:0000ecf7       __iscsym_l                 0040fcf7 f i LIBCMT:_ctype.obj
 0001:0000ed1a       ___iscsym                  0040fd1a f i LIBCMT:_ctype.obj
 0001:0000ed3b       _strtok                    0040fd3b f   LIBCMT:strtok.obj
 0001:0000edfc       __filelengthi64            0040fdfc f   LIBCMT:fleni64.obj
 0001:0000ef12       __toupper                  0040ff12 f   LIBCMT:toupper.obj
 0001:0000ef1f       __toupper_l                0040ff1f f   LIBCMT:toupper.obj
 0001:0000f035       _toupper                   00410035 f   LIBCMT:toupper.obj
 0001:0000f061       _feof                      00410061 f   LIBCMT:feoferr.obj
 0001:0000f095       _ferror                    00410095 f   LIBCMT:feoferr.obj
 0001:0000f0c9       _fgets                     004100c9 f   LIBCMT:fgets.obj
 0001:0000f211       _fprintf                   00410211 f   LIBCMT:fprintf.obj
 0001:0000f32d       __fprintf_l                0041032d f   LIBCMT:fprintf.obj
 0001:0000f349       __fprintf_s_l              00410349 f   LIBCMT:fprintf.obj
 0001:0000f365       _fprintf_s                 00410365 f   LIBCMT:fprintf.obj
 0001:0000f380       __fprintf_p_l              00410380 f   LIBCMT:fprintf.obj
 0001:0000f39c       __fprintf_p                0041039c f   LIBCMT:fprintf.obj
 0001:0000f480       _qsort                     00410480 f   LIBCMT:qsort.obj
 0001:0000f6cd       _puts                      004106cd f   LIBCMT:puts.obj
 0001:0000f82c       __snprintf                 0041082c f   LIBCMT:snprintf.obj
 0001:0000f8db       __snprintf_l               004108db f   LIBCMT:snprintf.obj
 0001:0000f900       _memmove                   00410900 f   LIBCMT:memmove.obj
 0001:0000fc65       _V6_HeapAlloc              00410c65 f   LIBCMT:malloc.obj
 0001:0000fcb4       __heap_alloc               00410cb4 f i LIBCMT:malloc.obj
 0001:0000fd2e       _malloc                    00410d2e f   LIBCMT:malloc.obj
 0001:0000fdf8       __ftell_nolock             00410df8 f   LIBCMT:ftell.obj
 0001:0000ff95       _ftell                     00410f95 f   LIBCMT:ftell.obj
 0001:00010010       _strncpy                   00411010 f   LIBCMT:strncpy.obj
 0001:00010134       _fgetc                     00411134 f   LIBCMT:fgetc.obj
 0001:00010238       _getc                      00411238 f   LIBCMT:fgetc.obj
 0001:0001033c       __getc_nolock              0041133c f   LIBCMT:fgetc.obj
 0001:0001035c       _fputc                     0041135c f   LIBCMT:fputc.obj
 0001:00010468       _putc                      00411468 f   LIBCMT:fputc.obj
 0001:00010574       __flush                    00411574 f   LIBCMT:fflush.obj
 0001:000105dc       __fflush_nolock            004115dc f   LIBCMT:fflush.obj
 0001:000106fe       _fflush                    004116fe f   LIBCMT:fflush.obj
 0001:00010751       __flushall                 00411751 f   LIBCMT:fflush.obj
 0001:0001075a       ___iob_func                0041175a f   LIBCMT:_file.obj
 0001:00010760       ___initstdio               00411760 f   LIBCMT:_file.obj
 0001:00010811       ___endstdio                00411811 f   LIBCMT:_file.obj
 0001:00010831       __lock_file                00411831 f   LIBCMT:_file.obj
 0001:00010872       __lock_file2               00411872 f   LIBCMT:_file.obj
 0001:000108a4       __unlock_file              004118a4 f   LIBCMT:_file.obj
 0001:000108e0       __unlock_file2             004118e0 f   LIBCMT:_file.obj
 0001:0001090f       __crt_waiting_on_module_handle 0041190f f   LIBCMT:crt0dat.obj
 0001:0001093f       __amsg_exit                0041193f f   LIBCMT:crt0dat.obj
 0001:00010968       ___crtCorExitProcess       00411968 f   LIBCMT:crt0dat.obj
 0001:00010993       ___crtExitProcess          00411993 f   LIBCMT:crt0dat.obj
 0001:000109ab       __lockexit                 004119ab f   LIBCMT:crt0dat.obj
 0001:000109b4       __unlockexit               004119b4 f   LIBCMT:crt0dat.obj
 0001:000109da       __initterm_e               004119da f   LIBCMT:crt0dat.obj
 0001:000109fe       __get_wpgmptr              004119fe f   LIBCMT:crt0dat.obj
 0001:00010a3a       __get_pgmptr               00411a3a f   LIBCMT:crt0dat.obj
 0001:00010a76       __cinit                    00411a76 f   LIBCMT:crt0dat.obj
 0001:00010c27       _exit                      00411c27 f   LIBCMT:crt0dat.obj
 0001:00010c3d       __exit                     00411c3d f   LIBCMT:crt0dat.obj
 0001:00010c53       __cexit                    00411c53 f   LIBCMT:crt0dat.obj
 0001:00010c62       __c_exit                   00411c62 f   LIBCMT:crt0dat.obj
 0001:00010c71       __init_pointers            00411c71 f   LIBCMT:crt0dat.obj
 0001:00010cbf       __tolower                  00411cbf f   LIBCMT:tolower.obj
 0001:00010ccc       __tolower_l                00411ccc f   LIBCMT:tolower.obj
 0001:00010de1       _tolower                   00411de1 f   LIBCMT:tolower.obj
 0001:00010e0d       ??3@YAXPAX@Z               00411e0d f   LIBCMT:delete.obj
 0001:00010e18       __purecall                 00411e18 f   LIBCMT:purevirt.obj
 0001:00010e42       __set_purecall_handler     00411e42 f   LIBCMT:purevirt.obj
 0001:00010e69       __get_purecall_handler     00411e69 f   LIBCMT:purevirt.obj
 0001:00010e76       __endthreadex              00411e76 f   LIBCMT:threadex.obj
 0001:00010f77       __beginthreadex            00411f77 f   LIBCMT:threadex.obj
 0001:00011027       _strncmp                   00412027 f   LIBCMT:strncmp.obj
 0001:000112a9       _mainCRTStartup            004122a9 f   LIBCMT:crt0.obj
 0001:000112b3       _wcslen                    004122b3 f   LIBCMT:wcslen.obj
 0001:000112d0       __alloca_probe             004122d0     LIBCMT:chkstk.obj
 0001:000112d0       __chkstk                   004122d0 f   LIBCMT:chkstk.obj
 0001:000112fb       ___report_gsfailure        004122fb f   LIBCMT:gs_report.obj
 0001:00011401       __stbuf                    00412401 f   LIBCMT:_sftbuf.obj
 0001:0001149d       __ftbuf                    0041249d f   LIBCMT:_sftbuf.obj
 0001:00011577       _get_int_arg               00412577 f i LIBCMT:output.obj
 0001:00011589       _get_int64_arg             00412589 f i LIBCMT:output.obj
 0001:0001159e       _get_short_arg             0041259e f i LIBCMT:output.obj
 0001:000115b1       __output_l                 004125b1 f   LIBCMT:output.obj
 0001:00012149       __initp_misc_invarg        00413149 f   LIBCMT:invarg.obj
 0001:00012158       __invoke_watson            00413158 f   LIBCMT:invarg.obj
 0001:00012280       __set_invalid_parameter_handler 00413280 f   LIBCMT:invarg.obj
 0001:000122a7       __get_invalid_parameter_handler 004132a7 f   LIBCMT:invarg.obj
 0001:000122b4       ?_invoke_watson@@YAXPBG00II@Z 004132b4 f   LIBCMT:invarg.obj
 0001:000122bf       __invalid_parameter        004132bf f   LIBCMT:invarg.obj
 0001:000122e5       __invalid_parameter_noinfo 004132e5 f   LIBCMT:invarg.obj
 0001:000122f5       ?_invalid_parameter@@YAXPBG00II@Z 004132f5 f   LIBCMT:invarg.obj
 0001:00012300       __get_errno_from_oserr     00413300 f   LIBCMT:dosmap.obj
 0001:00012342       __errno                    00413342 f   LIBCMT:dosmap.obj
 0001:00012355       ___doserrno                00413355 f   LIBCMT:dosmap.obj
 0001:00012368       __dosmaperr                00413368 f   LIBCMT:dosmap.obj
 0001:0001238b       __set_errno                0041338b f   LIBCMT:dosmap.obj
 0001:000123ac       __get_errno                004133ac f   LIBCMT:dosmap.obj
 0001:000123db       __set_doserrno             004133db f   LIBCMT:dosmap.obj
 0001:000123fc       __get_doserrno             004133fc f   LIBCMT:dosmap.obj
 0001:0001242c       __SEH_prolog4              0041342c f   LIBCMT:sehprolg4.obj
 0001:00012471       __SEH_epilog4              00413471 f   LIBCMT:sehprolg4.obj
 0001:000124c0       __except_handler4          004134c0 f   LIBCMT:chandler4.obj
 0001:0001264c       _vprintf_helper            0041364c f   LIBCMT:vprintf.obj
 0001:000126dc       __vprintf_l                004136dc f   LIBCMT:vprintf.obj
 0001:000126f9       __vprintf_s_l              004136f9 f   LIBCMT:vprintf.obj
 0001:00012716       __vprintf_p_l              00413716 f   LIBCMT:vprintf.obj
 0001:00012733       _vprintf                   00413733 f   LIBCMT:vprintf.obj
 0001:0001274f       _vprintf_s                 0041374f f   LIBCMT:vprintf.obj
 0001:0001276b       __vprintf_p                0041376b f   LIBCMT:vprintf.obj
 0001:00012787       __vswprintf_helper         00413787 f   LIBCMT:vswprnc.obj
 0001:0001287f       __vswprintf_c              0041387f f   LIBCMT:vswprnc.obj
 0001:000128a8       __vswprintf_c_l            004138a8 f   LIBCMT:vswprnc.obj
 0001:000128d2       __vswprintf_s_l            004138d2 f   LIBCMT:vswprnc.obj
 0001:0001295d       _vswprintf_s               0041395d f   LIBCMT:vswprnc.obj
 0001:0001297a       __vsnwprintf_s_l           0041397a f   LIBCMT:vswprnc.obj
 0001:00012a86       __vsnwprintf_s             00413a86 f   LIBCMT:vswprnc.obj
 0001:00012aa6       __vswprintf_p              00413aa6 f   LIBCMT:vswprnc.obj
 0001:00012acf       __vswprintf_p_l            00413acf f   LIBCMT:vswprnc.obj
 0001:00012af9       _fwprintf                  00413af9 f   LIBCMT:fwprintf.obj
 0001:00012b8d       __fwprintf_l               00413b8d f   LIBCMT:fwprintf.obj
 0001:00012ba9       __fwprintf_s_l             00413ba9 f   LIBCMT:fwprintf.obj
 0001:00012bc5       _fwprintf_s                00413bc5 f   LIBCMT:fwprintf.obj
 0001:00012be0       __fwprintf_p_l             00413be0 f   LIBCMT:fwprintf.obj
 0001:00012bfc       __fwprintf_p               00413bfc f   LIBCMT:fwprintf.obj
 0001:00012c17       _setvbuf                   00413c17 f   LIBCMT:setvbuf.obj
 0001:00012d15       _abort                     00413d15 f   LIBCMT:abort.obj
 0001:00012e2c       __set_abort_behavior       00413e2c f   LIBCMT:abort.obj
 0001:00012e4d       __initp_misc_winsig        00413e4d f   LIBCMT:winsig.obj
 0001:00012f3d       ___get_sigabrt             00413f3d f   LIBCMT:winsig.obj
 0001:00012f4a       ___fpecode                 00413f4a f   LIBCMT:winsig.obj
 0001:00012f53       ___pxcptinfoptrs           00413f53 f   LIBCMT:winsig.obj
 0001:00012f5c       _signal                    00413f5c f   LIBCMT:winsig.obj
 0001:00013199       _raise                     00414199 f   LIBCMT:winsig.obj
 0001:00013349       ___crtMessageBoxW          00414349 f   LIBCMT:crtmboxw.obj
 0001:000135a8       __itow_s                   004145a8 f   LIBCMT:xtows.obj
 0001:000135d4       __ltow_s                   004145d4 f   LIBCMT:xtows.obj
 0001:000135fb       __ultow_s                  004145fb f   LIBCMT:xtows.obj
 0001:0001371b       __i64tow_s                 0041471b f   LIBCMT:xtows.obj
 0001:00013750       __ui64tow_s                00414750 f   LIBCMT:xtows.obj
 0001:0001376f       _wcsncat_s                 0041476f f   LIBCMT:wcsncat_s.obj
 0001:0001385d       _wcsncpy_s                 0041485d f   LIBCMT:wcsncpy_s.obj
 0001:00013930       _wcscat_s                  00414930 f   LIBCMT:wcscat_s.obj
 0001:000139ad       _wcscpy_s                  004149ad f   LIBCMT:wcscpy_s.obj
 0001:00013a1c       __set_error_mode           00414a1c f   LIBCMT:errmode.obj
 0001:00013a67       ___set_app_type            00414a67 f   LIBCMT:errmode.obj
 0001:00013a76       ___get_app_type            00414a76 f   LIBCMT:errmode.obj
 0001:00013a7c       __crt_wait_module_handle   00414a7c f i LIBCMT:tidtable.obj
 0001:00013a96       __encode_pointer           00414a96 f   LIBCMT:tidtable.obj
 0001:00013b08       __encoded_null             00414b08 f   LIBCMT:tidtable.obj
 0001:00013b11       __decode_pointer           00414b11 f   LIBCMT:tidtable.obj
 0001:00013b83       ___crtTlsAlloc@4           00414b83 f   LIBCMT:tidtable.obj
 0001:00013b8c       ___fls_getvalue@4          00414b8c f   LIBCMT:tidtable.obj
 0001:00013ba6       ___get_flsindex            00414ba6 f   LIBCMT:tidtable.obj
 0001:00013bac       ___set_flsgetvalue         00414bac f   LIBCMT:tidtable.obj
 0001:00013be0       ___fls_setvalue@8          00414be0 f   LIBCMT:tidtable.obj
 0001:00013bfd       __mtterm                   00414bfd f   LIBCMT:tidtable.obj
 0001:00013c3a       __initptd                  00414c3a f   LIBCMT:tidtable.obj
 0001:00013d21       __getptd_noexit            00414d21 f   LIBCMT:tidtable.obj
 0001:00013d9a       __getptd                   00414d9a f   LIBCMT:tidtable.obj
 0001:00013db4       __freefls@4                00414db4 f   LIBCMT:tidtable.obj
 0001:00013ee3       __freeptd                  00414ee3 f   LIBCMT:tidtable.obj
 0001:00013f51       ___threadid                00414f51 f   LIBCMT:tidtable.obj
 0001:00013f57       ___threadhandle            00414f57 f   LIBCMT:tidtable.obj
 0001:00013f5d       __mtinit                   00414f5d f   LIBCMT:tidtable.obj
 0001:000140ea       _wait_a_bit                004150ea f i LIBCMT:crtheap.obj
 0001:00014110       __set_malloc_crt_max_wait  00415110 f   LIBCMT:crtheap.obj
 0001:00014125       __malloc_crt               00415125 f   LIBCMT:crtheap.obj
 0001:0001416a       __calloc_crt               0041516a f   LIBCMT:crtheap.obj
 0001:000141b6       __realloc_crt              004151b6 f   LIBCMT:crtheap.obj
 0001:00014204       __recalloc_crt             00415204 f   LIBCMT:crtheap.obj
 0001:00014256       __msize                    00415256 f   LIBCMT:msize.obj
 0001:000142f9       ___heap_select             004152f9 f   LIBCMT:heapinit.obj
 0001:000142fd       __heap_init                004152fd f   LIBCMT:heapinit.obj
 0001:0001432d       __heap_term                0041532d f   LIBCMT:heapinit.obj
 0001:000143a1       __get_heap_handle          004153a1 f   LIBCMT:heapinit.obj
 0001:000143a7       __mtinitlocks              004153a7 f   LIBCMT:mlock.obj
 0001:000143f2       __mtdeletelocks            004153f2 f   LIBCMT:mlock.obj
 0001:00014449       __unlock                   00415449 f   LIBCMT:mlock.obj
 0001:00014460       __lockerr_exit             00415460 f   LIBCMT:mlock.obj
 0001:00014478       __mtinitlocknum            00415478 f   LIBCMT:mlock.obj
 0001:0001453b       __lock                     0041553b f   LIBCMT:mlock.obj
 0001:0001456e       __get_sbh_threshold        0041556e f   LIBCMT:sbheap.obj
 0001:0001458f       __set_amblksiz             0041558f f   LIBCMT:sbheap.obj
 0001:000145da       __get_amblksiz             004155da f   LIBCMT:sbheap.obj
 0001:0001461b       ___sbh_heap_init           0041561b f   LIBCMT:sbheap.obj
 0001:00014669       ___sbh_find_block          00415669 f   LIBCMT:sbheap.obj
 0001:00014699       ___sbh_free_block          00415699 f   LIBCMT:sbheap.obj
 0001:000149af       ___sbh_alloc_new_region    004159af f   LIBCMT:sbheap.obj
 0001:00014a5f       ___sbh_alloc_new_group     00415a5f f   LIBCMT:sbheap.obj
 0001:00014b67       ___sbh_resize_block        00415b67 f   LIBCMT:sbheap.obj
 0001:00014e48       ___sbh_heapmin             00415e48 f   LIBCMT:sbheap.obj
 0001:00014f15       ___sbh_heap_check          00415f15 f   LIBCMT:sbheap.obj
 0001:000151f9       __set_sbh_threshold        004161f9 f   LIBCMT:sbheap.obj
 0001:000152a8       ___sbh_alloc_block         004162a8 f   LIBCMT:sbheap.obj
 0001:0001558d       __initp_heap_handler       0041658d f   LIBCMT:handler.obj
 0001:0001559c       ?_set_new_handler@@YAP6AHI@ZP6AHI@Z@Z 0041659c f   LIBCMT:handler.obj
 0001:000155d2       ?_set_new_handler@@YAP6AHI@ZH@Z 004165d2 f   LIBCMT:handler.obj
 0001:000155db       ?_query_new_handler@@YAP6AHI@ZXZ 004165db f   LIBCMT:handler.obj
 0001:000155e8       __callnewh                 004165e8 f   LIBCMT:handler.obj
 0001:00015610       _memcpy                    00416610 f   LIBCMT:memcpy.obj
 0001:00015980       _strlen                    00416980 f   LIBCMT:strlen.obj
 0001:00015a62       __INTRN_LOCALE_CONV        00416a62 f i LIBCMT:input.obj
 0001:00015ae7       __input_l                  00416ae7 f   LIBCMT:input.obj
 0001:00016b6e       __input_s_l                00417b6e f   LIBCMT:inputs.obj
 0001:00017c92       __flsbuf                   00418c92 f   LIBCMT:_flsbuf.obj
 0001:00017df6       __vsprintf_l               00418df6 f   LIBCMT:vsprintf.obj
 0001:00017e74       _vsprintf                  00418e74 f   LIBCMT:vsprintf.obj
 0001:00017e8e       __vscprintf_helper         00418e8e f   LIBCMT:vsprintf.obj
 0001:00017ee5       __vscprintf                00418ee5 f   LIBCMT:vsprintf.obj
 0001:00017f01       __vscprintf_l              00418f01 f   LIBCMT:vsprintf.obj
 0001:00017f1e       __vscprintf_p              00418f1e f   LIBCMT:vsprintf.obj
 0001:00017f3a       __vscprintf_p_l            00418f3a f   LIBCMT:vsprintf.obj
 0001:00017f57       __vsnprintf_helper         00418f57 f   LIBCMT:vsnprnc.obj
 0001:00018023       __vsnprintf_c              00419023 f   LIBCMT:vsnprnc.obj
 0001:0001804c       __vsnprintf_c_l            0041904c f   LIBCMT:vsnprnc.obj
 0001:00018076       __vsprintf_s_l             00419076 f   LIBCMT:vsnprnc.obj
 0001:000180fe       _vsprintf_s                004190fe f   LIBCMT:vsnprnc.obj
 0001:0001811b       __vsnprintf_s_l            0041911b f   LIBCMT:vsnprnc.obj
 0001:00018222       __vsnprintf_s              00419222 f   LIBCMT:vsnprnc.obj
 0001:00018242       __vsprintf_p               00419242 f   LIBCMT:vsnprnc.obj
 0001:0001826b       __vsprintf_p_l             0041926b f   LIBCMT:vsnprnc.obj
 0001:000184c4       _strtol                    004194c4 f   LIBCMT:strtol.obj
 0001:000184ef       __strtol_l                 004194ef f   LIBCMT:strtol.obj
 0001:0001850c       _strtoul                   0041950c f   LIBCMT:strtol.obj
 0001:00018538       __strtoul_l                00419538 f   LIBCMT:strtol.obj
 0001:000187ec       __strtoi64                 004197ec f   LIBCMT:strtoq.obj
 0001:00018817       __strtoi64_l               00419817 f   LIBCMT:strtoq.obj
 0001:00018834       __strtoui64                00419834 f   LIBCMT:strtoq.obj
 0001:00018860       __strtoui64_l              00419860 f   LIBCMT:strtoq.obj
 0001:0001887d       __openfile                 0041987d f   LIBCMT:_open.obj
 0001:00018b46       __getstream                00419b46 f   LIBCMT:stream.obj
 0001:00018c80       __local_unwind4            00419c80 f   LIBCMT:exsup4.obj
 0001:00018d56       __seh_longjmp_unwind4@4    00419d56 f   LIBCMT:exsup4.obj
 0001:00018d72       @_EH4_CallFilterFunc@8     00419d72 f   LIBCMT:exsup4.obj
 0001:00018d89       @_EH4_TransferToHandler@8  00419d89 f   LIBCMT:exsup4.obj
 0001:00018da2       @_EH4_GlobalUnwind@4       00419da2 f   LIBCMT:exsup4.obj
 0001:00018dbc       @_EH4_LocalUnwind@16       00419dbc f   LIBCMT:exsup4.obj
 0001:00018dd3       __lseek_nolock             00419dd3 f   LIBCMT:lseek.obj
 0001:00018e48       __lseek                    00419e48 f   LIBCMT:lseek.obj
 0001:00018f24       __fileno                   00419f24 f   LIBCMT:fileno.obj
 0001:00018f56       __close_nolock             00419f56 f   LIBCMT:close.obj
 0001:00018ff2       _close                     00419ff2 f   LIBCMT:close.obj
 0001:00018ff2       __close                    00419ff2 f   LIBCMT:close.obj
 0001:000190bf       __freebuf                  0041a0bf f   LIBCMT:_freebuf.obj
 0001:000190f0       __filbuf                   0041a0f0 f   LIBCMT:_filbuf.obj
 0001:0001921b       __read_nolock              0041a21b f   LIBCMT:read.obj
 0001:000197dd       __read                     0041a7dd f   LIBCMT:read.obj
 0001:000198da       _memcpy_s                  0041a8da f   LIBCMT:memcpy_s.obj
 0001:00019960       _memset                    0041a960 f   LIBCMT:memset.obj
 0001:000199da       __write_nolock             0041a9da f   LIBCMT:write.obj
 0001:0001a10d       __write                    0041b10d f   LIBCMT:write.obj
 0001:0001a40f       ___updatetmbcinfo          0041b40f f   LIBCMT:mbctype.obj
 0001:0001a52f       __setmbcp_nolock           0041b52f f   LIBCMT:mbctype.obj
 0001:0001a714       __getmbcp                  0041b714 f   LIBCMT:mbctype.obj
 0001:0001a752       __setmbcp                  0041b752 f   LIBCMT:mbctype.obj
 0001:0001a8ec       ___initmbctable            0041b8ec f   LIBCMT:mbctype.obj
 0001:0001a90a       ____setlc_active_func      0041b90a f   LIBCMT:setlocal.obj
 0001:0001a910       ____unguarded_readlc_active_add_func 0041b910 f   LIBCMT:setlocal.obj
 0001:0001a916       ___freetlocinfo            0041b916 f   LIBCMT:setlocal.obj
 0001:0001aa5f       ___addlocaleref            0041ba5f f   LIBCMT:setlocal.obj
 0001:0001aaee       ___removelocaleref         0041baee f   LIBCMT:setlocal.obj
 0001:0001abeb       ___updatetlocinfo          0041bbeb f   LIBCMT:setlocal.obj
 0001:0001ac61       __configthreadlocale       0041bc61 f   LIBCMT:setlocal.obj
 0001:0001ad1e       __free_locale              0041bd1e f   LIBCMT:setlocal.obj
 0001:0001ade0       ___free_locale             0041bde0 f   LIBCMT:setlocal.obj
 0001:0001adeb       __get_current_locale       0041bdeb f   LIBCMT:setlocal.obj
 0001:0001ae9a       ___get_current_locale      0041be9a f   LIBCMT:setlocal.obj
 0001:0001ae9f       ___init_dummy              0041be9f f   LIBCMT:setlocal.obj
 0001:0001aea2       __strcats                  0041bea2 f   LIBCMT:setlocal.obj
 0001:0001aee2       ___lc_strtolc              0041bee2 f   LIBCMT:setlocal.obj
 0001:0001b00b       ___lc_lctostr              0041c00b f   LIBCMT:setlocal.obj
 0001:0001b1f5       __expandlocale             0041c1f5 f   LIBCMT:setlocal.obj
 0001:0001b943       __create_locale            0041c943 f   LIBCMT:setlocal.obj
 0001:0001ba38       ___create_locale           0041ca38 f   LIBCMT:setlocal.obj
 0001:0001ba43       _setlocale                 0041ca43 f   LIBCMT:setlocal.obj
 0001:0001bbb3       __isctype_l                0041cbb3 f   LIBCMT:isctype.obj
 0001:0001bc6b       __isctype                  0041cc6b f   LIBCMT:isctype.obj
 0001:0001bc9d       __set_osfhnd               0041cc9d f   LIBCMT:osfinfo.obj
 0001:0001bd1e       __free_osfhnd              0041cd1e f   LIBCMT:osfinfo.obj
 0001:0001bda4       __get_osfhandle            0041cda4 f   LIBCMT:osfinfo.obj
 0001:0001be1b       ___lock_fhandle            0041ce1b f   LIBCMT:osfinfo.obj
 0001:0001bebb       __unlock_fhandle           0041cebb f   LIBCMT:osfinfo.obj
 0001:0001bee2       __alloc_osfhnd             0041cee2 f   LIBCMT:osfinfo.obj
 0001:0001c07c       __open_osfhandle           0041d07c f   LIBCMT:osfinfo.obj
 0001:0001c192       __lseeki64_nolock          0041d192 f   LIBCMT:lseeki64.obj
 0001:0001c217       __lseeki64                 0041d217 f   LIBCMT:lseeki64.obj
 0001:0001c330       __ioinit                   0041d330 f   LIBCMT:ioinit.obj
 0001:0001c584       __ioterm                   0041d584 f   LIBCMT:ioinit.obj
 0001:0001c5d2       __MarkAllocaS              0041d5d2 f i LIBCMT:a_map.obj
 0001:0001c5e8       __freea                    0041d5e8 f i LIBCMT:a_map.obj
 0001:0001c9cb       ___crtLCMapStringA         0041d9cb f   LIBCMT:a_map.obj
 0001:0001ca10       __isleadbyte_l             0041da10 f i LIBCMT:_wctype.obj
 0001:0001ca48       _isleadbyte                0041da48 f i LIBCMT:_wctype.obj
 0001:0001ca5b       __iswalpha_l               0041da5b f i LIBCMT:_wctype.obj
 0001:0001ca75       _iswalpha                  0041da75 f i LIBCMT:_wctype.obj
 0001:0001ca8b       __iswupper_l               0041da8b f i LIBCMT:_wctype.obj
 0001:0001caa2       _iswupper                  0041daa2 f i LIBCMT:_wctype.obj
 0001:0001cab5       __iswlower_l               0041dab5 f i LIBCMT:_wctype.obj
 0001:0001cacc       _iswlower                  0041dacc f i LIBCMT:_wctype.obj
 0001:0001cadf       __iswdigit_l               0041dadf f i LIBCMT:_wctype.obj
 0001:0001caf6       _iswdigit                  0041daf6 f i LIBCMT:_wctype.obj
 0001:0001cb09       __iswxdigit_l              0041db09 f i LIBCMT:_wctype.obj
 0001:0001cb23       _iswxdigit                 0041db23 f i LIBCMT:_wctype.obj
 0001:0001cb39       __iswspace_l               0041db39 f i LIBCMT:_wctype.obj
 0001:0001cb50       _iswspace                  0041db50 f i LIBCMT:_wctype.obj
 0001:0001cb63       __iswpunct_l               0041db63 f i LIBCMT:_wctype.obj
 0001:0001cb7a       _iswpunct                  0041db7a f i LIBCMT:_wctype.obj
 0001:0001cb8d       __iswalnum_l               0041db8d f i LIBCMT:_wctype.obj
 0001:0001cba7       _iswalnum                  0041dba7 f i LIBCMT:_wctype.obj
 0001:0001cbbd       __iswprint_l               0041dbbd f i LIBCMT:_wctype.obj
 0001:0001cbd7       _iswprint                  0041dbd7 f i LIBCMT:_wctype.obj
 0001:0001cbed       __iswgraph_l               0041dbed f i LIBCMT:_wctype.obj
 0001:0001cc07       _iswgraph                  0041dc07 f i LIBCMT:_wctype.obj
 0001:0001cc1d       __iswcntrl_l               0041dc1d f i LIBCMT:_wctype.obj
 0001:0001cc34       _iswcntrl                  0041dc34 f i LIBCMT:_wctype.obj
 0001:0001cc47       _iswascii                  0041dc47 f i LIBCMT:_wctype.obj
 0001:0001cc5b       __iswcsym_l                0041dc5b f i LIBCMT:_wctype.obj
 0001:0001cc85       ___iswcsym                 0041dc85 f i LIBCMT:_wctype.obj
 0001:0001ccab       __iswcsymf_l               0041dcab f i LIBCMT:_wctype.obj
 0001:0001ccd5       ___iswcsymf                0041dcd5 f i LIBCMT:_wctype.obj
 0001:0001ccfb       _vfprintf_helper           0041dcfb f   LIBCMT:vfprintf.obj
 0001:0001ce16       __vfprintf_l               0041de16 f   LIBCMT:vfprintf.obj
 0001:0001ce36       __vfprintf_s_l             0041de36 f   LIBCMT:vfprintf.obj
 0001:0001ce56       __vfprintf_p_l             0041de56 f   LIBCMT:vfprintf.obj
 0001:0001ce76       _vfprintf                  0041de76 f   LIBCMT:vfprintf.obj
 0001:0001ce95       _vfprintf_s                0041de95 f   LIBCMT:vfprintf.obj
 0001:0001ceb4       __vfprintf_p               0041deb4 f   LIBCMT:vfprintf.obj
 0001:0001ced3       __vsnprintf_l              0041ded3 f   LIBCMT:vsnprint.obj
 0001:0001cf86       __vsnprintf                0041df86 f   LIBCMT:vsnprint.obj
 0001:0001d02a       __VEC_memcpy               0041e02a f   LIBCMT:p4_memcpy.obj
 0001:0001d15d       __get_sse2_info            0041e15d f   LIBCMT:cpu_disp.obj
 0001:0001d1bf       ___sse2_available_init     0041e1bf f   LIBCMT:cpu_disp.obj
 0001:0001d1cc       __NMSG_WRITE               0041e1cc f   LIBCMT:crt0msg.obj
 0001:0001d377       __GET_RTERRMSG             0041e377 f   LIBCMT:crt0msg.obj
 0001:0001d39d       __FF_MSGBANNER             0041e39d f   LIBCMT:crt0msg.obj
 0001:0001d3d6       __commit                   0041e3d6 f   LIBCMT:commit.obj
 0001:0001d4b7       __fcloseall                0041e4b7 f   LIBCMT:closeall.obj
 0001:0001d556       __RTC_Initialize           0041e556 f   LIBCMT:_initsect_.obj
 0001:0001d57c       __RTC_Terminate            0041e57c f   LIBCMT:_initsect_.obj
 0001:0001d5a2       __initp_misc_cfltcvt_tab   0041e5a2 f   LIBCMT:cmiscdat.obj
 0001:0001d5d0       __ValidateImageBase        0041e5d0 f   LIBCMT:pesect.obj
 0001:0001d610       __FindPESection            0041e610 f   LIBCMT:pesect.obj
 0001:0001d660       __IsNonwritableInCurrentImage 0041e660 f   LIBCMT:pesect.obj
 0001:0001d71d       ?terminate@@YAXXZ          0041e71d f   LIBCMT:hooks.obj
 0001:0001d756       ?unexpected@@YAXXZ         0041e756 f   LIBCMT:hooks.obj
 0001:0001d769       ?_inconsistency@@YAXXZ     0041e769 f   LIBCMT:hooks.obj
 0001:0001d7a1       __initp_eh_hooks           0041e7a1 f   LIBCMT:hooks.obj
 0001:0001d7b2       __initp_misc_winxfltr      0041e7b2 f   LIBCMT:winxfltr.obj
 0001:0001d7e8       __XcptFilter               0041e7e8 f   LIBCMT:winxfltr.obj
 0001:0001d948       ___CppXcptFilter           0041e948 f   LIBCMT:winxfltr.obj
 0001:0001d968       __initp_misc_rand_s        0041e968 f   LIBCMT:rand_s.obj
 0001:0001d977       _rand_s                    0041e977 f   LIBCMT:rand_s.obj
 0001:0001da7f       ___getlocaleinfo           0041ea7f f   LIBCMT:inithelp.obj
 0001:0001dbfe       __initp_misc_purevirt      0041ebfe f   LIBCMT:inithelp.obj
 0001:0001dc0d       __initp_misc_initcrit      0041ec0d f   LIBCMT:initcrit.obj
 0001:0001dc1c       ___crtInitCritSecAndSpinCount 0041ec1c f   LIBCMT:initcrit.obj
 0001:0001dc7c       ?__CxxUnhandledExceptionFilter@@YGJPAU_EXCEPTION_POINTERS@@@Z 0041ec7c f   LIBCMT:unhandld.obj
 0001:0001dcbe       ___CxxSetUnhandledExceptionFilter 0041ecbe f   LIBCMT:unhandld.obj
 0001:0001dccc       __setenvp                  0041eccc f   LIBCMT:stdenvp.obj
 0001:0001ddaa       __set_pgmptr               0041edaa f i LIBCMT:stdargv.obj
 0001:0001df53       __setargv                  0041ef53 f   LIBCMT:stdargv.obj
 0001:0001e00e       ___crtGetEnvironmentStringsA 0041f00e f   LIBCMT:a_env.obj
 0001:0001e145       ___security_init_cookie    0041f145 f   LIBCMT:gs_support.obj
 0001:0001e1db       _swprintf                  0041f1db f   LIBCMT:swprintf.obj
 0001:0001e1db       __swprintf                 0041f1db f   LIBCMT:swprintf.obj
 0001:0001e273       ___swprintf_l              0041f273 f   LIBCMT:swprintf.obj
 0001:0001e28f       _swprintf_s                0041f28f f   LIBCMT:swprintf.obj
 0001:0001e2ad       __snwprintf_s              0041f2ad f   LIBCMT:swprintf.obj
 0001:0001e2ce       __swprintf_p               0041f2ce f   LIBCMT:swprintf.obj
 0001:0001e2ec       __swprintf_s_l             0041f2ec f   LIBCMT:swprintf.obj
 0001:0001e30b       __snwprintf_s_l            0041f30b f   LIBCMT:swprintf.obj
 0001:0001e32d       __swprintf_p_l             0041f32d f   LIBCMT:swprintf.obj
 0001:0001e34c       __scwprintf                0041f34c f   LIBCMT:swprintf.obj
 0001:0001e361       __scwprintf_p              0041f361 f   LIBCMT:swprintf.obj
 0001:0001e376       __scwprintf_l              0041f376 f   LIBCMT:swprintf.obj
 0001:0001e38f       __scwprintf_p_l            0041f38f f   LIBCMT:swprintf.obj
 0001:0001e3a8       __crt_debugger_hook        0041f3a8 f   LIBCMT:dbghook.obj
 0001:0001e3b0       __isatty                   0041f3b0 f   LIBCMT:isatty.obj
 0001:0001e414       __wctomb_s_l               0041f414 f   LIBCMT:wctomb.obj
 0001:0001e580       _wctomb_s                  0041f580 f   LIBCMT:wctomb.obj
 0001:0001e59d       __wctomb_l                 0041f59d f   LIBCMT:wctomb.obj
 0001:0001e5ee       _wctomb                    0041f5ee f   LIBCMT:wctomb.obj
 0001:0001e620       __aulldvrm                 0041f620 f   LIBCMT:ulldvrm.obj
 0001:0001e75b       __output_s_l               0041f75b f   LIBCMT:outputs.obj
 0001:0001f32b       __validate_param_reuseA    0042032b f   LIBCMT:outputp.obj
 0001:0001f4fc       _get_crtdouble_arg         004204fc f i LIBCMT:outputp.obj
 0001:0001f511       __output_p_l               00420511 f   LIBCMT:outputp.obj
 0001:00020879       __woutput_l                00421879 f   LIBCMT:woutput.obj
 0001:000214b9       __woutput_s_l              004224b9 f   LIBCMT:woutputs.obj
 0001:00022059       __validate_param_reuseW    00423059 f   LIBCMT:woutputp.obj
 0001:00022257       __woutput_p_l              00423257 f   LIBCMT:woutputp.obj
 0001:00023517       _vfwprintf_helper          00424517 f   LIBCMT:vfwprint.obj
 0001:000235aa       __vfwprintf_l              004245aa f   LIBCMT:vfwprint.obj
 0001:000235ca       __vfwprintf_s_l            004245ca f   LIBCMT:vfwprint.obj
 0001:000235ea       __vfwprintf_p_l            004245ea f   LIBCMT:vfwprint.obj
 0001:0002360a       _vfwprintf                 0042460a f   LIBCMT:vfwprint.obj
 0001:00023629       _vfwprintf_s               00424629 f   LIBCMT:vfwprint.obj
 0001:00023648       __vfwprintf_p              00424648 f   LIBCMT:vfwprint.obj
 0001:00023667       __calloc_impl              00424667 f   LIBCMT:calloc_impl.obj
 0001:00023785       __recalloc                 00424785 f   LIBCMT:recalloc.obj
 0001:00023800       __ungetc_nolock            00424800 f   LIBCMT:ungetc.obj
 0001:000238f1       _ungetc                    004248f1 f   LIBCMT:ungetc.obj
 0001:00023963       __mbtowc_l                 00424963 f   LIBCMT:mbtowc.obj
 0001:00023a7a       _mbtowc                    00424a7a f   LIBCMT:mbtowc.obj
 0001:00023aa0       __allmul                   00424aa0 f   LIBCMT:llmul.obj
 0001:00023ad4       __getbuf                   00424ad4 f   LIBCMT:_getbuf.obj
 0001:0002423c       __open                     0042523c f   LIBCMT:open.obj
 0001:0002423c       _open                      0042523c f   LIBCMT:open.obj
 0001:000242f2       __sopen_helper             004252f2 f   LIBCMT:open.obj
 0001:000243be       __sopen                    004253be f   LIBCMT:open.obj
 0001:000243f0       __sopen_s                  004253f0 f   LIBCMT:open.obj
 0001:00024410       __mbsnbicmp_l              00425410 f   LIBCMT:mbsnbicm.obj
 0001:0002463b       __mbsnbicmp                0042563b f   LIBCMT:mbsnbicm.obj
 0001:00024655       __mbsnbcmp_l               00425655 f   LIBCMT:mbsnbcmp.obj
 0001:000247bf       __mbsnbcmp                 004257bf f   LIBCMT:mbsnbcmp.obj
 0001:000247dc       __global_unwind2           004257dc f   LIBCMT:exsup.obj
 0001:00024841       __local_unwind2            00425841 f   LIBCMT:exsup.obj
 0001:000248c5       __abnormal_termination     004258c5 f   LIBCMT:exsup.obj
 0001:000248e8       __NLG_Notify1              004258e8 f   LIBCMT:exsup.obj
 0001:000248f1       __NLG_Notify               004258f1 f   LIBCMT:exsup.obj
 0001:00024908       __NLG_Dispatch             00425908     LIBCMT:exsup.obj
 0001:00024908       __NLG_Dispatch2            00425908     LIBCMT:exsup.obj
 0001:00024910       __NLG_Call                 00425910 f   LIBCMT:exsup.obj
 0001:00024912       __NLG_Return2              00425912     LIBCMT:exsup.obj
 0001:0002496a       __VEC_memzero              0042596a f   LIBCMT:p4_memset.obj
 0001:000249f9       __putwch_nolock            004259f9 f   LIBCMT:putwch.obj
 0001:00024abe       __cputws                   00425abe f   LIBCMT:putwch.obj
 0001:00024b5d       __putwch                   00425b5d f   LIBCMT:putwch.obj
 0001:00024d5d       ___crtGetStringTypeA       00425d5d f   LIBCMT:a_str.obj
 0001:00024d9f       ___pwctype_func            00425d9f f   LIBCMT:ctype.obj
 0001:00024da5       ___pctype_func             00425da5 f   LIBCMT:ctype.obj
 0001:000251e9       ___free_lc_time            004261e9 f   LIBCMT:inittime.obj
 0001:0002537e       ___init_time               0042637e f   LIBCMT:inittime.obj
 0001:0002542a       ___free_lconv_num          0042642a f   LIBCMT:initnum.obj
 0001:0002546f       ___init_numeric            0042646f f   LIBCMT:initnum.obj
 0001:0002566c       ___free_lconv_mon          0042666c f   LIBCMT:initmon.obj
 0001:000256fa       ___init_monetary           004266fa f   LIBCMT:initmon.obj
 0001:000259c0       ___init_ctype              004269c0 f   LIBCMT:initctyp.obj
 0001:00025d62       ____mb_cur_max_func        00426d62 f   LIBCMT:initctyp.obj
 0001:00025d8b       ____mb_cur_max_l_func      00426d8b f   LIBCMT:initctyp.obj
 0001:00025da7       ____lc_codepage_func       00426da7 f   LIBCMT:initctyp.obj
 0001:00025dcd       ____lc_collate_cp_func     00426dcd f   LIBCMT:initctyp.obj
 0001:00025df3       ____lc_handle_func         00426df3 f   LIBCMT:initctyp.obj
 0001:00025e19       ___init_collate            00426e19 f   LIBCMT:initcoll.obj
 0001:00025e1c       __Getdays_l                00426e1c f   LIBCMT:strftime.obj
 0001:00025f1c       __Getdays                  00426f1c f   LIBCMT:strftime.obj
 0001:00025f25       __Getmonths_l              00426f25 f   LIBCMT:strftime.obj
 0001:00026025       __Getmonths                00427025 f   LIBCMT:strftime.obj
 0001:0002602e       __Gettnames_l              0042702e f   LIBCMT:strftime.obj
 0001:00026385       __Gettnames                00427385 f   LIBCMT:strftime.obj
 0001:00026ca8       __Strftime_l               00427ca8 f   LIBCMT:strftime.obj
 0001:00026e4c       __strftime_l               00427e4c f   LIBCMT:strftime.obj
 0001:00026e6c       _strftime                  00427e6c f   LIBCMT:strftime.obj
 0001:00026e8b       __Strftime                 00427e8b f   LIBCMT:strftime.obj
 0001:00026eab       _localeconv                00427eab f   LIBCMT:lconv.obj
 0001:00026ed1       _strcat_s                  00427ed1 f   LIBCMT:strcat_s.obj
 0001:00026f50       _strcspn                   00427f50 f   LIBCMT:strcspn.obj
 0001:00026f96       _strncpy_s                 00427f96 f   LIBCMT:strncpy_s.obj
 0001:0002704b       _strcpy_s                  0042804b f   LIBCMT:strcpy_s.obj
 0001:000270c0       _strcmp                    004280c0 f   LIBCMT:strcmp.obj
 0001:00027743       ___get_qualified_locale    00428743 f   LIBCMT:getqloc.obj
 0001:00028eaa       _memcmp                    00429eaa f   LIBCMT:memcmp.obj
 0001:0002a530       _strpbrk                   0042b530 f   LIBCMT:strpbrk.obj
 0001:0002a570       ___ansicp                  0042b570 f   LIBCMT:convrtcp.obj
 0001:0002a5b9       ___convertcp               0042b5b9 f   LIBCMT:convrtcp.obj
 0001:0002a770       __alloca_probe_16          0042b770 f   LIBCMT:alloca16.obj
 0001:0002a786       __alloca_probe_8           0042b786     LIBCMT:alloca16.obj
 0001:0002a79c       __iswctype_l               0042b79c f   LIBCMT:iswctype.obj
 0001:0002a826       _iswctype                  0042b826 f   LIBCMT:iswctype.obj
 0001:0002a89c       _is_wctype                 0042b89c f   LIBCMT:iswctype.obj
 0001:0002a8a7       ___crtMessageBoxA          0042b8a7 f   LIBCMT:crtmbox.obj
 0001:0002aa10       __fptrap                   0042ba10 f   LIBCMT:crt0fp.obj
 0001:0002aa32       ___crtGetLocaleInfoW       0042ba32 f   LIBCMT:w_loc.obj
 0001:0002aba5       ___crtGetLocaleInfoA       0042bba5 f   LIBCMT:a_loc.obj
 0001:0002ac35       __ismbbkalnum_l            0042bc35 f   LIBCMT:ismbbyte.obj
 0001:0002ac4e       __ismbbkalnum              0042bc4e f   LIBCMT:ismbbyte.obj
 0001:0002ac66       __ismbbkprint_l            0042bc66 f   LIBCMT:ismbbyte.obj
 0001:0002ac7f       __ismbbkprint              0042bc7f f   LIBCMT:ismbbyte.obj
 0001:0002ac97       __ismbbkpunct_l            0042bc97 f   LIBCMT:ismbbyte.obj
 0001:0002acb0       __ismbbkpunct              0042bcb0 f   LIBCMT:ismbbyte.obj
 0001:0002acc8       __ismbbalnum_l             0042bcc8 f   LIBCMT:ismbbyte.obj
 0001:0002ace4       __ismbbalnum               0042bce4 f   LIBCMT:ismbbyte.obj
 0001:0002acff       __ismbbalpha_l             0042bcff f   LIBCMT:ismbbyte.obj
 0001:0002ad1b       __ismbbalpha               0042bd1b f   LIBCMT:ismbbyte.obj
 0001:0002ad36       __ismbbgraph_l             0042bd36 f   LIBCMT:ismbbyte.obj
 0001:0002ad52       __ismbbgraph               0042bd52 f   LIBCMT:ismbbyte.obj
 0001:0002ad6d       __ismbbprint_l             0042bd6d f   LIBCMT:ismbbyte.obj
 0001:0002ad89       __ismbbprint               0042bd89 f   LIBCMT:ismbbyte.obj
 0001:0002ada4       __ismbbpunct_l             0042bda4 f   LIBCMT:ismbbyte.obj
 0001:0002adbd       __ismbbpunct               0042bdbd f   LIBCMT:ismbbyte.obj
 0001:0002add5       __ismbblead_l              0042bdd5 f   LIBCMT:ismbbyte.obj
 0001:0002adee       __ismbblead                0042bdee f   LIBCMT:ismbbyte.obj
 0001:0002ae06       __ismbbtrail_l             0042be06 f   LIBCMT:ismbbyte.obj
 0001:0002ae1f       __ismbbtrail               0042be1f f   LIBCMT:ismbbyte.obj
 0001:0002ae37       __ismbbkana_l              0042be37 f   LIBCMT:ismbbyte.obj
 0001:0002ae8c       __ismbbkana                0042be8c f   LIBCMT:ismbbyte.obj
 0001:0002ae9f       __vswprintf_l              0042be9f f   LIBCMT:vswprint.obj
 0001:0002af38       __vswprintf                0042bf38 f   LIBCMT:vswprint.obj
 0001:0002af52       ___vswprintf_l             0042bf52 f   LIBCMT:vswprint.obj
 0001:0002af5d       __vscwprintf_helper        0042bf5d f   LIBCMT:vswprint.obj
 0001:0002afb4       __vscwprintf               0042bfb4 f   LIBCMT:vswprint.obj
 0001:0002afd0       __vscwprintf_l             0042bfd0 f   LIBCMT:vswprint.obj
 0001:0002afed       __vscwprintf_p             0042bfed f   LIBCMT:vswprint.obj
 0001:0002b009       __vscwprintf_p_l           0042c009 f   LIBCMT:vswprint.obj
 0001:0002b026       __fputwc_nolock            0042c026 f   LIBCMT:fputwc.obj
 0001:0002b1ad       _fputwc                    0042c1ad f   LIBCMT:fputwc.obj
 0001:0002b226       _putwc                     0042c226 f   LIBCMT:fputwc.obj
 0001:0002b42b       _wcstol                    0042c42b f   LIBCMT:wcstol.obj
 0001:0002b456       __wcstol_l                 0042c456 f   LIBCMT:wcstol.obj
 0001:0002b473       _wcstoul                   0042c473 f   LIBCMT:wcstol.obj
 0001:0002b49f       __wcstoul_l                0042c49f f   LIBCMT:wcstol.obj
 0001:0002b4bc       __chsize_nolock            0042c4bc f   LIBCMT:chsize.obj
 0001:0002b672       __chsize_s                 0042c672 f   LIBCMT:chsize.obj
 0001:0002b75f       __chsize                   0042c75f f   LIBCMT:chsize.obj
 0001:0002b77b       __setmode_nolock           0042c77b f   LIBCMT:setmode.obj
 0001:0002b837       __set_fmode                0042c837 f   LIBCMT:setmode.obj
 0001:0002b883       __get_fmode                0042c883 f   LIBCMT:setmode.obj
 0001:0002b8bc       __setmode                  0042c8bc f   LIBCMT:setmode.obj
 0001:0002b9b3       __strnicmp_l               0042c9b3 f   LIBCMT:strnicmp.obj
 0001:0002baa5       _strnicmp                  0042caa5 f   LIBCMT:strnicmp.obj
 0001:0002baa5       __strnicmp                 0042caa5 f   LIBCMT:strnicmp.obj
 0001:0002bb03       ___initconin               0042cb03 f   LIBCMT:initcon.obj
 0001:0002bb22       ___initconout              0042cb22 f   LIBCMT:initcon.obj
 0001:0002bb41       ___termcon                 0042cb41 f   LIBCMT:initcon.obj
 0001:0002bb6e       __get_daylight             0042cb6e f   LIBCMT:timeset.obj
 0001:0002bba7       __get_dstbias              0042cba7 f   LIBCMT:timeset.obj
 0001:0002bbe0       __get_timezone             0042cbe0 f   LIBCMT:timeset.obj
 0001:0002bc19       __get_tzname               0042cc19 f   LIBCMT:timeset.obj
 0001:0002bcbd       ___daylight                0042ccbd f   LIBCMT:timeset.obj
 0001:0002bcc3       ___dstbias                 0042ccc3 f   LIBCMT:timeset.obj
 0001:0002bcc9       ___timezone                0042ccc9 f   LIBCMT:timeset.obj
 0001:0002bccf       ___tzname                  0042cccf f   LIBCMT:timeset.obj
 0001:0002bcd5       __set_daylight             0042ccd5 f i LIBCMT:tzset.obj
 0001:0002bce6       __set_dstbias              0042cce6 f i LIBCMT:tzset.obj
 0001:0002bcf7       __set_timezone             0042ccf7 f i LIBCMT:tzset.obj
 0001:0002c41d       ___tzset                   0042d41d f   LIBCMT:tzset.obj
 0001:0002c46c       __tzset                    0042d46c f   LIBCMT:tzset.obj
 0001:0002c4a4       __isindst                  0042d4a4 f   LIBCMT:tzset.obj
 0001:0002c4e5       ___ascii_stricmp           0042d4e5 f   LIBCMT:stricmp.obj
 0001:0002c51e       __stricmp_l                0042d51e f   LIBCMT:stricmp.obj
 0001:0002c5f3       __stricmp                  0042d5f3 f   LIBCMT:stricmp.obj
 0001:0002c5f3       _stricmp                   0042d5f3 f   LIBCMT:stricmp.obj
 0001:0002c722       __itoa_s                   0042d722 f   LIBCMT:xtoas.obj
 0001:0002c74c       __ltoa_s                   0042d74c f   LIBCMT:xtoas.obj
 0001:0002c773       __ultoa_s                  0042d773 f   LIBCMT:xtoas.obj
 0001:0002c885       __i64toa_s                 0042d885 f   LIBCMT:xtoas.obj
 0001:0002c8ba       __ui64toa_s                0042d8ba f   LIBCMT:xtoas.obj
 0001:0002c8fc       ___crtGetStringTypeW       0042d8fc f   LIBCMT:w_str.obj
 0001:0002c93a       __flswbuf                  0042d93a f   LIBCMT:_flswbuf.obj
 0001:0002caae       __wchartodigit             0042daae f   LIBCMT:wchtodig.obj
 0001:0002cc90       ___ascii_strnicmp          0042dc90 f   LIBCMT:_strnicm.obj
 0001:0002ccf1       __getenv_helper_nolock     0042dcf1 f   LIBCMT:getenv.obj
 0001:0002ceb1       _getenv                    0042deb1 f   LIBCMT:getenv.obj
 0001:0002cf34       _getenv_s                  0042df34 f   LIBCMT:getenv.obj
 0001:0002d00c       __dupenv_s                 0042e00c f   LIBCMT:getenv.obj
 0001:0002d0f2       __mbsnbicoll_l             0042e0f2 f   LIBCMT:mbsnbico.obj
 0001:0002d1e0       __mbsnbicoll               0042e1e0 f   LIBCMT:mbsnbico.obj
 0001:0002d1fa       ___wtomb_environ           0042e1fa f   LIBCMT:wtombenv.obj
 0001:0002d291       _calloc                    0042e291 f   LIBCMT:calloc.obj
 0001:0002d2d1       _strnlen                   0042e2d1 f   LIBCMT:strlen_s.obj
 0001:0002d67c       ___crtCompareStringA       0042e67c f   LIBCMT:a_cmp.obj
 0001:0002d6be       __strnicoll_l              0042e6be f   LIBCMT:strnicol.obj
 0001:0002d7b8       __strnicoll                0042e7b8 f   LIBCMT:strnicol.obj
 0001:0002d88d       ___crtsetenv               0042e88d f   LIBCMT:setenv.obj
 0001:0002dad8       __strdup                   0042ead8 f   LIBCMT:strdup.obj
 0001:0002db2d       __mbschr_l                 0042eb2d f   LIBCMT:mbschr.obj
 0001:0002dbe9       __mbschr                   0042ebe9 f   LIBCMT:mbschr.obj
 0001:0002dc00       _GetVersion@0              0042ec00 f   kernel32:KERNEL32.dll
 0001:0002dc06       _GetConsoleScreenBufferInfo@8 0042ec06 f   kernel32:KERNEL32.dll
 0001:0002dc0c       _GetStdHandle@4            0042ec0c f   kernel32:KERNEL32.dll
 0001:0002dc12       _SetThreadAffinityMask@8   0042ec12 f   kernel32:KERNEL32.dll
 0001:0002dc18       _GetCurrentThread@0        0042ec18 f   kernel32:KERNEL32.dll
 0001:0002dc1e       _SetConsoleCtrlHandler@8   0042ec1e f   kernel32:KERNEL32.dll
 0001:0002dc24       _SetUnhandledExceptionFilter@4 0042ec24 f   kernel32:KERNEL32.dll
 0001:0002dc2a       _SetErrorMode@4            0042ec2a f   kernel32:KERNEL32.dll
 0001:0002dc30       _GetPrivateProfileStringA@24 0042ec30 f   kernel32:KERNEL32.dll
 0001:0002dc36       _GetModuleFileNameA@12     0042ec36 f   kernel32:KERNEL32.dll
 0001:0002dc3c       _GetPrivateProfileSectionA@16 0042ec3c f   kernel32:KERNEL32.dll
 0001:0002dc42       _GetFileAttributesA@4      0042ec42 f   kernel32:KERNEL32.dll
 0001:0002dc48       _GetPrivateProfileIntA@16  0042ec48 f   kernel32:KERNEL32.dll
 0001:0002dc4e       _FreeConsole@0             0042ec4e f   kernel32:KERNEL32.dll
 0001:0002dc54       _GetCurrentDirectoryA@8    0042ec54 f   kernel32:KERNEL32.dll
 0001:0002dc5a       _SetCurrentDirectoryA@4    0042ec5a f   kernel32:KERNEL32.dll
 0001:0002dc60       _Sleep@4                   0042ec60 f   kernel32:KERNEL32.dll
 0001:0002dc66       _CloseHandle@4             0042ec66 f   kernel32:KERNEL32.dll
 0001:0002dc6c       _WaitForSingleObject@8     0042ec6c f   kernel32:KERNEL32.dll
 0001:0002dc72       _FindFirstChangeNotificationA@12 0042ec72 f   kernel32:KERNEL32.dll
 0001:0002dc78       _FindNextChangeNotification@4 0042ec78 f   kernel32:KERNEL32.dll
 0001:0002dc7e       _Beep@8                    0042ec7e f   kernel32:KERNEL32.dll
 0001:0002dc84       _GetCurrentThreadId@0      0042ec84 f   kernel32:KERNEL32.dll
 0001:0002dc8a       _SetPriorityClass@8        0042ec8a f   kernel32:KERNEL32.dll
 0001:0002dc90       _GetCurrentProcess@0       0042ec90 f   kernel32:KERNEL32.dll
 0001:0002dc96       _LoadLibraryA@4            0042ec96 f   kernel32:KERNEL32.dll
 0001:0002dc9c       _GetProcAddress@8          0042ec9c f   kernel32:KERNEL32.dll
 0001:0002dca2       _GetModuleHandleA@4        0042eca2 f   kernel32:KERNEL32.dll
 0001:0002dca8       _FreeLibrary@4             0042eca8 f   kernel32:KERNEL32.dll
 0001:0002dcae       _GetPrivateProfileSectionNamesA@12 0042ecae f   kernel32:KERNEL32.dll
 0001:0002dcb4       _CreateFileA@28            0042ecb4 f   kernel32:KERNEL32.dll
 0001:0002dcba       _GetCommProperties@8       0042ecba f   kernel32:KERNEL32.dll
 0001:0002dcc0       _WideCharToMultiByte@32    0042ecc0 f   kernel32:KERNEL32.dll
 0001:0002dcc6       _FlushFileBuffers@4        0042ecc6 f   kernel32:KERNEL32.dll
 0001:0002dccc       _CreateEventA@16           0042eccc f   kernel32:KERNEL32.dll
 0001:0002dcd2       _ResetEvent@4              0042ecd2 f   kernel32:KERNEL32.dll
 0001:0002dcd8       _GetLastError@0            0042ecd8 f   kernel32:KERNEL32.dll
 0001:0002dcde       _FindFirstVolumeA@8        0042ecde f   kernel32:KERNEL32.dll
 0001:0002dce4       _FindNextVolumeA@12        0042ece4 f   kernel32:KERNEL32.dll
 0001:0002dcea       _DeviceIoControl@32        0042ecea f   kernel32:KERNEL32.dll
 0001:0002dcf0       _FindVolumeClose@4         0042ecf0 f   kernel32:KERNEL32.dll
 0001:0002dcf6       _SetFilePointer@16         0042ecf6 f   kernel32:KERNEL32.dll
 0001:0002dcfc       _ReadFile@20               0042ecfc f   kernel32:KERNEL32.dll
 0001:0002dd02       _WriteFile@20              0042ed02 f   kernel32:KERNEL32.dll
 0001:0002dd08       _GetTempPathA@8            0042ed08 f   kernel32:KERNEL32.dll
 0001:0002dd0e       _MultiByteToWideChar@24    0042ed0e f   kernel32:KERNEL32.dll
 0001:0002dd14       _AreFileApisANSI@0         0042ed14 f   kernel32:KERNEL32.dll
 0001:0002dd1a       _DeleteFileA@4             0042ed1a f   kernel32:KERNEL32.dll
 0001:0002dd20       _GetFullPathNameA@16       0042ed20 f   kernel32:KERNEL32.dll
 0001:0002dd26       _SetConsoleTitleA@4        0042ed26 f   kernel32:KERNEL32.dll
 0001:0002dd2c       _FlushConsoleInputBuffer@4 0042ed2c f   kernel32:KERNEL32.dll
 0001:0002dd32       _GlobalLock@4              0042ed32 f   kernel32:KERNEL32.dll
 0001:0002dd38       _GlobalUnlock@4            0042ed38 f   kernel32:KERNEL32.dll
 0001:0002dd3e       _GetLocalTime@4            0042ed3e f   kernel32:KERNEL32.dll
 0001:0002dd44       _DefineDosDeviceA@12       0042ed44 f   kernel32:KERNEL32.dll
 0001:0002dd4a       _SetCommTimeouts@8         0042ed4a f   kernel32:KERNEL32.dll
 0001:0002dd50       _GetCommState@8            0042ed50 f   kernel32:KERNEL32.dll
 0001:0002dd56       _SetCommState@8            0042ed56 f   kernel32:KERNEL32.dll
 0001:0002dd5c       _EscapeCommFunction@8      0042ed5c f   kernel32:KERNEL32.dll
 0001:0002dd62       _GetCommModemStatus@8      0042ed62 f   kernel32:KERNEL32.dll
 0001:0002dd68       _CreateProcessA@40         0042ed68 f   kernel32:KERNEL32.dll
 0001:0002dd6e       _GetTickCount@0            0042ed6e f   kernel32:KERNEL32.dll
 0001:0002dd74       _CreateDirectoryA@8        0042ed74 f   kernel32:KERNEL32.dll
 0001:0002dd7a       _GetExitCodeProcess@8      0042ed7a f   kernel32:KERNEL32.dll
 0001:0002dd80       _FindFirstFileA@8          0042ed80 f   kernel32:KERNEL32.dll
 0001:0002dd86       _FindNextFileA@8           0042ed86 f   kernel32:KERNEL32.dll
 0001:0002dd8c       _FindClose@4               0042ed8c f   kernel32:KERNEL32.dll
 0001:0002dd92       _RemoveDirectoryA@4        0042ed92 f   kernel32:KERNEL32.dll
 0001:0002dd98       _QueryPerformanceFrequency@4 0042ed98 f   kernel32:KERNEL32.dll
 0001:0002dd9e       _QueryPerformanceCounter@4 0042ed9e f   kernel32:KERNEL32.dll
 0001:0002dda4       _SetConsoleTextAttribute@8 0042eda4 f   kernel32:KERNEL32.dll
 0001:0002ddaa       _FormatMessageA@28         0042edaa f   kernel32:KERNEL32.dll
 0001:0002ddb0       _InitializeCriticalSection@4 0042edb0 f   kernel32:KERNEL32.dll
 0001:0002ddb6       _DeleteCriticalSection@4   0042edb6 f   kernel32:KERNEL32.dll
 0001:0002ddbc       _EnterCriticalSection@4    0042edbc f   kernel32:KERNEL32.dll
 0001:0002ddc2       _LeaveCriticalSection@4    0042edc2 f   kernel32:KERNEL32.dll
 0001:0002ddc8       _SetEvent@4                0042edc8 f   kernel32:KERNEL32.dll
 0001:0002ddce       _VirtualFree@12            0042edce f   kernel32:KERNEL32.dll
 0001:0002ddd4       _VirtualAlloc@16           0042edd4 f   kernel32:KERNEL32.dll
 0001:0002ddda       _OutputDebugStringW@4      0042edda f   kernel32:KERNEL32.dll
 0001:0002dde0       _OutputDebugStringA@4      0042ede0 f   kernel32:KERNEL32.dll
 0001:0002dde6       _WriteConsoleW@20          0042ede6 f   kernel32:KERNEL32.dll
 0001:0002ddec       _GetFileType@4             0042edec f   kernel32:KERNEL32.dll
 0001:0002ddf2       _GetModuleFileNameW@12     0042edf2 f   kernel32:KERNEL32.dll
 0001:0002ddf8       _HeapFree@12               0042edf8 f   kernel32:KERNEL32.dll
 0001:0002ddfe       _HeapReAlloc@16            0042edfe f   kernel32:KERNEL32.dll
 0001:0002de04       _HeapAlloc@12              0042ee04 f   kernel32:KERNEL32.dll
 0001:0002de0a       _GetModuleHandleW@4        0042ee0a f   kernel32:KERNEL32.dll
 0001:0002de10       _ExitProcess@4             0042ee10 f   kernel32:KERNEL32.dll
 0001:0002de16       _ExitThread@4              0042ee16 f   kernel32:KERNEL32.dll
 0001:0002de1c       _CreateThread@24           0042ee1c f   kernel32:KERNEL32.dll
 0001:0002de22       _GetCommandLineA@0         0042ee22 f   kernel32:KERNEL32.dll
 0001:0002de28       _TerminateProcess@8        0042ee28 f   kernel32:KERNEL32.dll
 0001:0002de2e       _UnhandledExceptionFilter@4 0042ee2e f   kernel32:KERNEL32.dll
 0001:0002de34       _IsDebuggerPresent@0       0042ee34 f   kernel32:KERNEL32.dll
 0001:0002de3a       _LoadLibraryW@4            0042ee3a f   kernel32:KERNEL32.dll
 0001:0002de40       _TlsGetValue@4             0042ee40 f   kernel32:KERNEL32.dll
 0001:0002de46       _TlsAlloc@0                0042ee46 f   kernel32:KERNEL32.dll
 0001:0002de4c       _TlsSetValue@8             0042ee4c f   kernel32:KERNEL32.dll
 0001:0002de52       _TlsFree@4                 0042ee52 f   kernel32:KERNEL32.dll
 0001:0002de58       _InterlockedIncrement@4    0042ee58 f   kernel32:KERNEL32.dll
 0001:0002de5e       _SetLastError@4            0042ee5e f   kernel32:KERNEL32.dll
 0001:0002de64       _InterlockedDecrement@4    0042ee64 f   kernel32:KERNEL32.dll
 0001:0002de6a       _HeapSize@12               0042ee6a f   kernel32:KERNEL32.dll
 0001:0002de70       _HeapCreate@12             0042ee70 f   kernel32:KERNEL32.dll
 0001:0002de76       _HeapDestroy@4             0042ee76 f   kernel32:KERNEL32.dll
 0001:0002de7c       _FatalAppExitA@8           0042ee7c f   kernel32:KERNEL32.dll
 0001:0002de82       _RtlUnwind@16              0042ee82 f   kernel32:KERNEL32.dll
 0001:0002de88       _GetConsoleCP@0            0042ee88 f   kernel32:KERNEL32.dll
 0001:0002de8e       _GetConsoleMode@8          0042ee8e f   kernel32:KERNEL32.dll
 0001:0002de94       _GetCPInfo@8               0042ee94 f   kernel32:KERNEL32.dll
 0001:0002de9a       _GetACP@0                  0042ee9a f   kernel32:KERNEL32.dll
 0001:0002dea0       _GetOEMCP@0                0042eea0 f   kernel32:KERNEL32.dll
 0001:0002dea6       _IsValidCodePage@4         0042eea6 f   kernel32:KERNEL32.dll
 0001:0002deac       _SetStdHandle@8            0042eeac f   kernel32:KERNEL32.dll
 0001:0002deb2       _SetHandleCount@4          0042eeb2 f   kernel32:KERNEL32.dll
 0001:0002deb8       _GetStartupInfoA@4         0042eeb8 f   kernel32:KERNEL32.dll
 0001:0002debe       _LCMapStringA@24           0042eebe f   kernel32:KERNEL32.dll
 0001:0002dec4       _LCMapStringW@24           0042eec4 f   kernel32:KERNEL32.dll
 0001:0002deca       _InterlockedExchange@8     0042eeca f   kernel32:KERNEL32.dll
 0001:0002ded0       _InitializeCriticalSectionAndSpinCount@8 0042eed0 f   kernel32:KERNEL32.dll
 0001:0002ded6       _FreeEnvironmentStringsA@4 0042eed6 f   kernel32:KERNEL32.dll
 0001:0002dedc       _GetEnvironmentStrings@0   0042eedc f   kernel32:KERNEL32.dll
 0001:0002dee2       _FreeEnvironmentStringsW@4 0042eee2 f   kernel32:KERNEL32.dll
 0001:0002dee8       _GetEnvironmentStringsW@0  0042eee8 f   kernel32:KERNEL32.dll
 0001:0002deee       _GetCurrentProcessId@0     0042eeee f   kernel32:KERNEL32.dll
 0001:0002def4       _GetSystemTimeAsFileTime@4 0042eef4 f   kernel32:KERNEL32.dll
 0001:0002defa       _WriteConsoleA@20          0042eefa f   kernel32:KERNEL32.dll
 0001:0002df00       _GetConsoleOutputCP@0      0042ef00 f   kernel32:KERNEL32.dll
 0001:0002df06       _GetStringTypeA@20         0042ef06 f   kernel32:KERNEL32.dll
 0001:0002df0c       _GetStringTypeW@16         0042ef0c f   kernel32:KERNEL32.dll
 0001:0002df12       _GetTimeFormatA@24         0042ef12 f   kernel32:KERNEL32.dll
 0001:0002df18       _GetDateFormatA@24         0042ef18 f   kernel32:KERNEL32.dll
 0001:0002df1e       _GetUserDefaultLCID@0      0042ef1e f   kernel32:KERNEL32.dll
 0001:0002df24       _GetLocaleInfoA@16         0042ef24 f   kernel32:KERNEL32.dll
 0001:0002df2a       _EnumSystemLocalesA@8      0042ef2a f   kernel32:KERNEL32.dll
 0001:0002df30       _IsValidLocale@8           0042ef30 f   kernel32:KERNEL32.dll
 0001:0002df36       _GetLocaleInfoW@16         0042ef36 f   kernel32:KERNEL32.dll
 0001:0002df3c       _SetEndOfFile@4            0042ef3c f   kernel32:KERNEL32.dll
 0001:0002df42       _GetProcessHeap@0          0042ef42 f   kernel32:KERNEL32.dll
 0001:0002df48       _GetTimeZoneInformation@4  0042ef48 f   kernel32:KERNEL32.dll
 0001:0002df4e       _CompareStringA@24         0042ef4e f   kernel32:KERNEL32.dll
 0001:0002df54       _CompareStringW@24         0042ef54 f   kernel32:KERNEL32.dll
 0001:0002df5a       _SetEnvironmentVariableA@8 0042ef5a f   kernel32:KERNEL32.dll
 0001:0002df60       _MessageBoxW@16            0042ef60 f   user32:USER32.dll
 0001:0002df66       ?_strlwr_s_l_stat@@YAHPADIPAUlocaleinfo_struct@@@Z 0042ef66 f   LIBCMT:strlwr.obj
 0001:0002e0e9       __strlwr_s_l               0042f0e9 f   LIBCMT:strlwr.obj
 0001:0002e11d       __strlwr_s                 0042f11d f   LIBCMT:strlwr.obj
 0001:0002e134       __strlwr_l                 0042f134 f   LIBCMT:strlwr.obj
 0001:0002e14e       _strlwr                    0042f14e f   LIBCMT:strlwr.obj
 0001:0002e14e       __strlwr                   0042f14e f   LIBCMT:strlwr.obj
 0001:0002e1b3       __ungetch_nolock           0042f1b3 f   LIBCMT:getch.obj
 0001:0002e1da       __getextendedkeycode       0042f1da f   LIBCMT:getch.obj
 0001:0002e28d       __getch_nolock             0042f28d f   LIBCMT:getch.obj
 0001:0002e352       __getche_nolock            0042f352 f   LIBCMT:getch.obj
 0001:0002e389       __kbhit_nolock             0042f389 f   LIBCMT:getch.obj
 0001:0002e4b3       __ungetch                  0042f4b3 f   LIBCMT:getch.obj
 0001:0002e4f7       __getch                    0042f4f7 f   LIBCMT:getch.obj
 0001:0002e4f7       _getch                     0042f4f7 f   LIBCMT:getch.obj
 0001:0002e535       __getche                   0042f535 f   LIBCMT:getch.obj
 0001:0002e573       __kbhit                    0042f573 f   LIBCMT:getch.obj
 0001:0002e5b1       __putch_nolock             0042f5b1 f   LIBCMT:putch.obj
 0001:0002e62d       __putch                    0042f62d f   LIBCMT:putch.obj
 0001:0002e670       _ReadConsoleInputA@16      0042f670 f   kernel32:KERNEL32.dll
 0001:0002e676       _SetConsoleMode@8          0042f676 f   kernel32:KERNEL32.dll
 0001:0002e67c       _PeekConsoleInputA@16      0042f67c f   kernel32:KERNEL32.dll
 0001:0002e682       _GetNumberOfConsoleInputEvents@8 0042f682 f   kernel32:KERNEL32.dll
 0001:0002e690       ?opy_F9@@YIXPAUZ80@@@Z     0042f690 f   z80:op_fd.obj
 0001:0002e6a0       ?opy_E9@@YIXPAUZ80@@@Z     0042f6a0 f   z80:op_fd.obj
 0001:0002e6c0       ?opy_E5@@YIXPAUZ80@@@Z     0042f6c0 f   z80:op_fd.obj
 0001:0002e700       ?opy_E3@@YIXPAUZ80@@@Z     0042f700 f   z80:op_fd.obj
 0001:0002e760       ?opy_E1@@YIXPAUZ80@@@Z     0042f760 f   z80:op_fd.obj
 0001:0002e7a0       ?opy_7E@@YIXPAUZ80@@@Z     0042f7a0 f   z80:op_fd.obj
 0001:0002e7d0       ?opy_7D@@YIXPAUZ80@@@Z     0042f7d0 f   z80:op_fd.obj
 0001:0002e7e0       ?opy_7C@@YIXPAUZ80@@@Z     0042f7e0 f   z80:op_fd.obj
 0001:0002e7f0       ?opy_77@@YIXPAUZ80@@@Z     0042f7f0 f   z80:op_fd.obj
 0001:0002e830       ?opy_75@@YIXPAUZ80@@@Z     0042f830 f   z80:op_fd.obj
 0001:0002e870       ?opy_74@@YIXPAUZ80@@@Z     0042f870 f   z80:op_fd.obj
 0001:0002e8b0       ?opy_73@@YIXPAUZ80@@@Z     0042f8b0 f   z80:op_fd.obj
 0001:0002e8f0       ?opy_72@@YIXPAUZ80@@@Z     0042f8f0 f   z80:op_fd.obj
 0001:0002e930       ?opy_71@@YIXPAUZ80@@@Z     0042f930 f   z80:op_fd.obj
 0001:0002e970       ?opy_70@@YIXPAUZ80@@@Z     0042f970 f   z80:op_fd.obj
 0001:0002e9b0       ?opy_6F@@YIXPAUZ80@@@Z     0042f9b0 f   z80:op_fd.obj
 0001:0002e9c0       ?opy_6E@@YIXPAUZ80@@@Z     0042f9c0 f   z80:op_fd.obj
 0001:0002e9f0       ?opy_6C@@YIXPAUZ80@@@Z     0042f9f0 f   z80:op_fd.obj
 0001:0002ea00       ?opy_6B@@YIXPAUZ80@@@Z     0042fa00 f   z80:op_fd.obj
 0001:0002ea10       ?opy_6A@@YIXPAUZ80@@@Z     0042fa10 f   z80:op_fd.obj
 0001:0002ea20       ?opy_69@@YIXPAUZ80@@@Z     0042fa20 f   z80:op_fd.obj
 0001:0002ea30       ?opy_68@@YIXPAUZ80@@@Z     0042fa30 f   z80:op_fd.obj
 0001:0002ea40       ?opy_67@@YIXPAUZ80@@@Z     0042fa40 f   z80:op_fd.obj
 0001:0002ea50       ?opy_66@@YIXPAUZ80@@@Z     0042fa50 f   z80:op_fd.obj
 0001:0002ea80       ?opy_65@@YIXPAUZ80@@@Z     0042fa80 f   z80:op_fd.obj
 0001:0002ea90       ?opy_63@@YIXPAUZ80@@@Z     0042fa90 f   z80:op_fd.obj
 0001:0002eaa0       ?opy_62@@YIXPAUZ80@@@Z     0042faa0 f   z80:op_fd.obj
 0001:0002eab0       ?opy_61@@YIXPAUZ80@@@Z     0042fab0 f   z80:op_fd.obj
 0001:0002eac0       ?opy_60@@YIXPAUZ80@@@Z     0042fac0 f   z80:op_fd.obj
 0001:0002ead0       ?opy_5E@@YIXPAUZ80@@@Z     0042fad0 f   z80:op_fd.obj
 0001:0002eb00       ?opy_5D@@YIXPAUZ80@@@Z     0042fb00 f   z80:op_fd.obj
 0001:0002eb10       ?opy_5C@@YIXPAUZ80@@@Z     0042fb10 f   z80:op_fd.obj
 0001:0002eb20       ?opy_56@@YIXPAUZ80@@@Z     0042fb20 f   z80:op_fd.obj
 0001:0002eb50       ?opy_55@@YIXPAUZ80@@@Z     0042fb50 f   z80:op_fd.obj
 0001:0002eb60       ?opy_54@@YIXPAUZ80@@@Z     0042fb60 f   z80:op_fd.obj
 0001:0002eb70       ?opy_4E@@YIXPAUZ80@@@Z     0042fb70 f   z80:op_fd.obj
 0001:0002eba0       ?opy_4D@@YIXPAUZ80@@@Z     0042fba0 f   z80:op_fd.obj
 0001:0002ebb0       ?opy_4C@@YIXPAUZ80@@@Z     0042fbb0 f   z80:op_fd.obj
 0001:0002ebc0       ?opy_46@@YIXPAUZ80@@@Z     0042fbc0 f   z80:op_fd.obj
 0001:0002ebf0       ?opy_45@@YIXPAUZ80@@@Z     0042fbf0 f   z80:op_fd.obj
 0001:0002ec00       ?opy_44@@YIXPAUZ80@@@Z     0042fc00 f   z80:op_fd.obj
 0001:0002ec10       ?opy_39@@YIXPAUZ80@@@Z     0042fc10 f   z80:op_fd.obj
 0001:0002ec70       ?opy_36@@YIXPAUZ80@@@Z     0042fc70 f   z80:op_fd.obj
 0001:0002ecc0       ?opy_2E@@YIXPAUZ80@@@Z     0042fcc0 f   z80:op_fd.obj
 0001:0002ece0       ?opy_2B@@YIXPAUZ80@@@Z     0042fce0 f   z80:op_fd.obj
 0001:0002ecf0       ?opy_2A@@YIXPAUZ80@@@Z     0042fcf0 f   z80:op_fd.obj
 0001:0002ed60       ?opy_29@@YIXPAUZ80@@@Z     0042fd60 f   z80:op_fd.obj
 0001:0002eda0       ?opy_26@@YIXPAUZ80@@@Z     0042fda0 f   z80:op_fd.obj
 0001:0002edc0       ?opy_23@@YIXPAUZ80@@@Z     0042fdc0 f   z80:op_fd.obj
 0001:0002edd0       ?opy_22@@YIXPAUZ80@@@Z     0042fdd0 f   z80:op_fd.obj
 0001:0002ee40       ?opy_21@@YIXPAUZ80@@@Z     0042fe40 f   z80:op_fd.obj
 0001:0002ee80       ?opy_19@@YIXPAUZ80@@@Z     0042fe80 f   z80:op_fd.obj
 0001:0002eee0       ?opy_09@@YIXPAUZ80@@@Z     0042fee0 f   z80:op_fd.obj
 0001:0002ef40       ?opy_BE@@YIXPAUZ80@@@Z     0042ff40 f   z80:op_fd.obj
 0001:0002ef80       ?opy_BD@@YIXPAUZ80@@@Z     0042ff80 f   z80:op_fd.obj
 0001:0002efa0       ?opy_BC@@YIXPAUZ80@@@Z     0042ffa0 f   z80:op_fd.obj
 0001:0002efc0       ?opy_B6@@YIXPAUZ80@@@Z     0042ffc0 f   z80:op_fd.obj
 0001:0002f000       ?opy_B5@@YIXPAUZ80@@@Z     00430000 f   z80:op_fd.obj
 0001:0002f020       ?opy_B4@@YIXPAUZ80@@@Z     00430020 f   z80:op_fd.obj
 0001:0002f040       ?opy_AE@@YIXPAUZ80@@@Z     00430040 f   z80:op_fd.obj
 0001:0002f080       ?opy_AD@@YIXPAUZ80@@@Z     00430080 f   z80:op_fd.obj
 0001:0002f0a0       ?opy_AC@@YIXPAUZ80@@@Z     004300a0 f   z80:op_fd.obj
 0001:0002f0c0       ?opy_A6@@YIXPAUZ80@@@Z     004300c0 f   z80:op_fd.obj
 0001:0002f100       ?opy_A5@@YIXPAUZ80@@@Z     00430100 f   z80:op_fd.obj
 0001:0002f120       ?opy_A4@@YIXPAUZ80@@@Z     00430120 f   z80:op_fd.obj
 0001:0002f140       ?opy_9E@@YIXPAUZ80@@@Z     00430140 f   z80:op_fd.obj
 0001:0002f1a0       ?opy_9D@@YIXPAUZ80@@@Z     004301a0 f   z80:op_fd.obj
 0001:0002f1e0       ?opy_9C@@YIXPAUZ80@@@Z     004301e0 f   z80:op_fd.obj
 0001:0002f220       ?opy_96@@YIXPAUZ80@@@Z     00430220 f   z80:op_fd.obj
 0001:0002f270       ?opy_95@@YIXPAUZ80@@@Z     00430270 f   z80:op_fd.obj
 0001:0002f2a0       ?opy_94@@YIXPAUZ80@@@Z     004302a0 f   z80:op_fd.obj
 0001:0002f2d0       ?opy_8E@@YIXPAUZ80@@@Z     004302d0 f   z80:op_fd.obj
 0001:0002f330       ?opy_8D@@YIXPAUZ80@@@Z     00430330 f   z80:op_fd.obj
 0001:0002f370       ?opy_8C@@YIXPAUZ80@@@Z     00430370 f   z80:op_fd.obj
 0001:0002f3b0       ?opy_86@@YIXPAUZ80@@@Z     004303b0 f   z80:op_fd.obj
 0001:0002f400       ?opy_85@@YIXPAUZ80@@@Z     00430400 f   z80:op_fd.obj
 0001:0002f430       ?opy_84@@YIXPAUZ80@@@Z     00430430 f   z80:op_fd.obj
 0001:0002f460       ?opy_35@@YIXPAUZ80@@@Z     00430460 f   z80:op_fd.obj
 0001:0002f4c0       ?opy_34@@YIXPAUZ80@@@Z     004304c0 f   z80:op_fd.obj
 0001:0002f520       ?opy_2D@@YIXPAUZ80@@@Z     00430520 f   z80:op_fd.obj
 0001:0002f540       ?opy_2C@@YIXPAUZ80@@@Z     00430540 f   z80:op_fd.obj
 0001:0002f560       ?opy_25@@YIXPAUZ80@@@Z     00430560 f   z80:op_fd.obj
 0001:0002f580       ?opy_24@@YIXPAUZ80@@@Z     00430580 f   z80:op_fd.obj
 0001:0002f5a0       ?opx_F9@@YIXPAUZ80@@@Z     004305a0 f   z80:op_dd.obj
 0001:0002f5b0       ?opx_E9@@YIXPAUZ80@@@Z     004305b0 f   z80:op_dd.obj
 0001:0002f5d0       ?opx_E5@@YIXPAUZ80@@@Z     004305d0 f   z80:op_dd.obj
 0001:0002f610       ?opx_E3@@YIXPAUZ80@@@Z     00430610 f   z80:op_dd.obj
 0001:0002f670       ?opx_E1@@YIXPAUZ80@@@Z     00430670 f   z80:op_dd.obj
 0001:0002f6b0       ?opx_7E@@YIXPAUZ80@@@Z     004306b0 f   z80:op_dd.obj
 0001:0002f6e0       ?opx_7D@@YIXPAUZ80@@@Z     004306e0 f   z80:op_dd.obj
 0001:0002f6f0       ?opx_7C@@YIXPAUZ80@@@Z     004306f0 f   z80:op_dd.obj
 0001:0002f700       ?opx_77@@YIXPAUZ80@@@Z     00430700 f   z80:op_dd.obj
 0001:0002f740       ?opx_75@@YIXPAUZ80@@@Z     00430740 f   z80:op_dd.obj
 0001:0002f780       ?opx_74@@YIXPAUZ80@@@Z     00430780 f   z80:op_dd.obj
 0001:0002f7c0       ?opx_73@@YIXPAUZ80@@@Z     004307c0 f   z80:op_dd.obj
 0001:0002f800       ?opx_72@@YIXPAUZ80@@@Z     00430800 f   z80:op_dd.obj
 0001:0002f840       ?opx_71@@YIXPAUZ80@@@Z     00430840 f   z80:op_dd.obj
 0001:0002f880       ?opx_70@@YIXPAUZ80@@@Z     00430880 f   z80:op_dd.obj
 0001:0002f8c0       ?opx_6F@@YIXPAUZ80@@@Z     004308c0 f   z80:op_dd.obj
 0001:0002f8d0       ?opx_6E@@YIXPAUZ80@@@Z     004308d0 f   z80:op_dd.obj
 0001:0002f900       ?opx_6C@@YIXPAUZ80@@@Z     00430900 f   z80:op_dd.obj
 0001:0002f910       ?opx_6B@@YIXPAUZ80@@@Z     00430910 f   z80:op_dd.obj
 0001:0002f920       ?opx_6A@@YIXPAUZ80@@@Z     00430920 f   z80:op_dd.obj
 0001:0002f930       ?opx_69@@YIXPAUZ80@@@Z     00430930 f   z80:op_dd.obj
 0001:0002f940       ?opx_68@@YIXPAUZ80@@@Z     00430940 f   z80:op_dd.obj
 0001:0002f950       ?opx_67@@YIXPAUZ80@@@Z     00430950 f   z80:op_dd.obj
 0001:0002f960       ?opx_66@@YIXPAUZ80@@@Z     00430960 f   z80:op_dd.obj
 0001:0002f990       ?opx_65@@YIXPAUZ80@@@Z     00430990 f   z80:op_dd.obj
 0001:0002f9a0       ?opx_63@@YIXPAUZ80@@@Z     004309a0 f   z80:op_dd.obj
 0001:0002f9b0       ?opx_62@@YIXPAUZ80@@@Z     004309b0 f   z80:op_dd.obj
 0001:0002f9c0       ?opx_61@@YIXPAUZ80@@@Z     004309c0 f   z80:op_dd.obj
 0001:0002f9d0       ?opx_60@@YIXPAUZ80@@@Z     004309d0 f   z80:op_dd.obj
 0001:0002f9e0       ?opx_5E@@YIXPAUZ80@@@Z     004309e0 f   z80:op_dd.obj
 0001:0002fa10       ?opx_5D@@YIXPAUZ80@@@Z     00430a10 f   z80:op_dd.obj
 0001:0002fa20       ?opx_5C@@YIXPAUZ80@@@Z     00430a20 f   z80:op_dd.obj
 0001:0002fa30       ?opx_56@@YIXPAUZ80@@@Z     00430a30 f   z80:op_dd.obj
 0001:0002fa60       ?opx_55@@YIXPAUZ80@@@Z     00430a60 f   z80:op_dd.obj
 0001:0002fa70       ?opx_54@@YIXPAUZ80@@@Z     00430a70 f   z80:op_dd.obj
 0001:0002fa80       ?opx_4E@@YIXPAUZ80@@@Z     00430a80 f   z80:op_dd.obj
 0001:0002fab0       ?opx_4D@@YIXPAUZ80@@@Z     00430ab0 f   z80:op_dd.obj
 0001:0002fac0       ?opx_4C@@YIXPAUZ80@@@Z     00430ac0 f   z80:op_dd.obj
 0001:0002fad0       ?opx_46@@YIXPAUZ80@@@Z     00430ad0 f   z80:op_dd.obj
 0001:0002fb00       ?opx_45@@YIXPAUZ80@@@Z     00430b00 f   z80:op_dd.obj
 0001:0002fb10       ?opx_44@@YIXPAUZ80@@@Z     00430b10 f   z80:op_dd.obj
 0001:0002fb20       ?opx_39@@YIXPAUZ80@@@Z     00430b20 f   z80:op_dd.obj
 0001:0002fb80       ?opx_36@@YIXPAUZ80@@@Z     00430b80 f   z80:op_dd.obj
 0001:0002fbd0       ?opx_2E@@YIXPAUZ80@@@Z     00430bd0 f   z80:op_dd.obj
 0001:0002fbf0       ?opx_2B@@YIXPAUZ80@@@Z     00430bf0 f   z80:op_dd.obj
 0001:0002fc00       ?opx_2A@@YIXPAUZ80@@@Z     00430c00 f   z80:op_dd.obj
 0001:0002fc70       ?opx_29@@YIXPAUZ80@@@Z     00430c70 f   z80:op_dd.obj
 0001:0002fcb0       ?opx_26@@YIXPAUZ80@@@Z     00430cb0 f   z80:op_dd.obj
 0001:0002fcd0       ?opx_23@@YIXPAUZ80@@@Z     00430cd0 f   z80:op_dd.obj
 0001:0002fce0       ?opx_22@@YIXPAUZ80@@@Z     00430ce0 f   z80:op_dd.obj
 0001:0002fd50       ?opx_21@@YIXPAUZ80@@@Z     00430d50 f   z80:op_dd.obj
 0001:0002fd90       ?opx_19@@YIXPAUZ80@@@Z     00430d90 f   z80:op_dd.obj
 0001:0002fdf0       ?opx_09@@YIXPAUZ80@@@Z     00430df0 f   z80:op_dd.obj
 0001:0002fe50       ?opx_BE@@YIXPAUZ80@@@Z     00430e50 f   z80:op_dd.obj
 0001:0002fe90       ?opx_BD@@YIXPAUZ80@@@Z     00430e90 f   z80:op_dd.obj
 0001:0002feb0       ?opx_BC@@YIXPAUZ80@@@Z     00430eb0 f   z80:op_dd.obj
 0001:0002fed0       ?opx_B6@@YIXPAUZ80@@@Z     00430ed0 f   z80:op_dd.obj
 0001:0002ff10       ?opx_B5@@YIXPAUZ80@@@Z     00430f10 f   z80:op_dd.obj
 0001:0002ff30       ?opx_B4@@YIXPAUZ80@@@Z     00430f30 f   z80:op_dd.obj
 0001:0002ff50       ?opx_AE@@YIXPAUZ80@@@Z     00430f50 f   z80:op_dd.obj
 0001:0002ff90       ?opx_AD@@YIXPAUZ80@@@Z     00430f90 f   z80:op_dd.obj
 0001:0002ffb0       ?opx_AC@@YIXPAUZ80@@@Z     00430fb0 f   z80:op_dd.obj
 0001:0002ffd0       ?opx_A6@@YIXPAUZ80@@@Z     00430fd0 f   z80:op_dd.obj
 0001:00030010       ?opx_A5@@YIXPAUZ80@@@Z     00431010 f   z80:op_dd.obj
 0001:00030030       ?opx_A4@@YIXPAUZ80@@@Z     00431030 f   z80:op_dd.obj
 0001:00030050       ?opx_9E@@YIXPAUZ80@@@Z     00431050 f   z80:op_dd.obj
 0001:000300b0       ?opx_9D@@YIXPAUZ80@@@Z     004310b0 f   z80:op_dd.obj
 0001:000300f0       ?opx_9C@@YIXPAUZ80@@@Z     004310f0 f   z80:op_dd.obj
 0001:00030130       ?opx_96@@YIXPAUZ80@@@Z     00431130 f   z80:op_dd.obj
 0001:00030180       ?opx_95@@YIXPAUZ80@@@Z     00431180 f   z80:op_dd.obj
 0001:000301b0       ?opx_94@@YIXPAUZ80@@@Z     004311b0 f   z80:op_dd.obj
 0001:000301e0       ?opx_8E@@YIXPAUZ80@@@Z     004311e0 f   z80:op_dd.obj
 0001:00030240       ?opx_8D@@YIXPAUZ80@@@Z     00431240 f   z80:op_dd.obj
 0001:00030280       ?opx_8C@@YIXPAUZ80@@@Z     00431280 f   z80:op_dd.obj
 0001:000302c0       ?opx_86@@YIXPAUZ80@@@Z     004312c0 f   z80:op_dd.obj
 0001:00030310       ?opx_85@@YIXPAUZ80@@@Z     00431310 f   z80:op_dd.obj
 0001:00030340       ?opx_84@@YIXPAUZ80@@@Z     00431340 f   z80:op_dd.obj
 0001:00030370       ?opx_35@@YIXPAUZ80@@@Z     00431370 f   z80:op_dd.obj
 0001:000303d0       ?opx_34@@YIXPAUZ80@@@Z     004313d0 f   z80:op_dd.obj
 0001:00030430       ?opx_2D@@YIXPAUZ80@@@Z     00431430 f   z80:op_dd.obj
 0001:00030450       ?opx_2C@@YIXPAUZ80@@@Z     00431450 f   z80:op_dd.obj
 0001:00030470       ?opx_25@@YIXPAUZ80@@@Z     00431470 f   z80:op_dd.obj
 0001:00030490       ?opx_24@@YIXPAUZ80@@@Z     00431490 f   z80:op_dd.obj
 0001:000304b0       ?op_ED@@YIXPAUZ80@@@Z      004314b0 f   z80:op_ed.obj
 0001:000304d0       ?ope_B9@@YIXPAUZ80@@@Z     004314d0 f   z80:op_ed.obj
 0001:00030540       ?ope_B8@@YIXPAUZ80@@@Z     00431540 f   z80:op_ed.obj
 0001:000305b0       ?ope_B1@@YIXPAUZ80@@@Z     004315b0 f   z80:op_ed.obj
 0001:00030620       ?ope_B0@@YIXPAUZ80@@@Z     00431620 f   z80:op_ed.obj
 0001:000306a0       ?ope_A9@@YIXPAUZ80@@@Z     004316a0 f   z80:op_ed.obj
 0001:00030700       ?ope_A8@@YIXPAUZ80@@@Z     00431700 f   z80:op_ed.obj
 0001:00030770       ?ope_A1@@YIXPAUZ80@@@Z     00431770 f   z80:op_ed.obj
 0001:000307d0       ?ope_A0@@YIXPAUZ80@@@Z     004317d0 f   z80:op_ed.obj
 0001:00030840       ?ope_7B@@YIXPAUZ80@@@Z     00431840 f   z80:op_ed.obj
 0001:000308b0       ?ope_7A@@YIXPAUZ80@@@Z     004318b0 f   z80:op_ed.obj
 0001:00030930       ?ope_79@@YIXPAUZ80@@@Z     00431930 f   z80:op_ed.obj
 0001:00030950       ?ope_78@@YIXPAUZ80@@@Z     00431950 f   z80:op_ed.obj
 0001:00030990       ?ope_76@@YIXPAUZ80@@@Z     00431990 f   z80:op_ed.obj
 0001:000309a0       ?ope_73@@YIXPAUZ80@@@Z     004319a0 f   z80:op_ed.obj
 0001:00030a10       ?ope_72@@YIXPAUZ80@@@Z     00431a10 f   z80:op_ed.obj
 0001:00030a90       ?ope_71@@YIXPAUZ80@@@Z     00431a90 f   z80:op_ed.obj
 0001:00030ab0       ?ope_70@@YIXPAUZ80@@@Z     00431ab0 f   z80:op_ed.obj
 0001:00030ae0       ?ope_6F@@YIXPAUZ80@@@Z     00431ae0 f   z80:op_ed.obj
 0001:00030b40       ?ope_6A@@YIXPAUZ80@@@Z     00431b40 f   z80:op_ed.obj
 0001:00030ba0       ?ope_69@@YIXPAUZ80@@@Z     00431ba0 f   z80:op_ed.obj
 0001:00030bc0       ?ope_68@@YIXPAUZ80@@@Z     00431bc0 f   z80:op_ed.obj
 0001:00030c00       ?ope_67@@YIXPAUZ80@@@Z     00431c00 f   z80:op_ed.obj
 0001:00030c60       ?ope_62@@YIXPAUZ80@@@Z     00431c60 f   z80:op_ed.obj
 0001:00030cb0       ?ope_61@@YIXPAUZ80@@@Z     00431cb0 f   z80:op_ed.obj
 0001:00030cd0       ?ope_60@@YIXPAUZ80@@@Z     00431cd0 f   z80:op_ed.obj
 0001:00030d10       ?ope_5F@@YIXPAUZ80@@@Z     00431d10 f   z80:op_ed.obj
 0001:00030d60       ?ope_5E@@YIXPAUZ80@@@Z     00431d60 f   z80:op_ed.obj
 0001:00030d70       ?ope_5B@@YIXPAUZ80@@@Z     00431d70 f   z80:op_ed.obj
 0001:00030de0       ?ope_5A@@YIXPAUZ80@@@Z     00431de0 f   z80:op_ed.obj
 0001:00030e60       ?ope_59@@YIXPAUZ80@@@Z     00431e60 f   z80:op_ed.obj
 0001:00030e80       ?ope_58@@YIXPAUZ80@@@Z     00431e80 f   z80:op_ed.obj
 0001:00030ec0       ?ope_57@@YIXPAUZ80@@@Z     00431ec0 f   z80:op_ed.obj
 0001:00030f00       ?ope_56@@YIXPAUZ80@@@Z     00431f00 f   z80:op_ed.obj
 0001:00030f10       ?ope_53@@YIXPAUZ80@@@Z     00431f10 f   z80:op_ed.obj
 0001:00030f80       ?ope_52@@YIXPAUZ80@@@Z     00431f80 f   z80:op_ed.obj
 0001:00031000       ?ope_51@@YIXPAUZ80@@@Z     00432000 f   z80:op_ed.obj
 0001:00031020       ?ope_50@@YIXPAUZ80@@@Z     00432020 f   z80:op_ed.obj
 0001:00031060       ?ope_4F@@YIXPAUZ80@@@Z     00432060 f   z80:op_ed.obj
 0001:00031070       ?ope_4D@@YIXPAUZ80@@@Z     00432070 f   z80:op_ed.obj
 0001:000310d0       ?ope_4B@@YIXPAUZ80@@@Z     004320d0 f   z80:op_ed.obj
 0001:00031140       ?ope_4A@@YIXPAUZ80@@@Z     00432140 f   z80:op_ed.obj
 0001:000311c0       ?ope_49@@YIXPAUZ80@@@Z     004321c0 f   z80:op_ed.obj
 0001:000311e0       ?ope_48@@YIXPAUZ80@@@Z     004321e0 f   z80:op_ed.obj
 0001:00031220       ?ope_47@@YIXPAUZ80@@@Z     00432220 f   z80:op_ed.obj
 0001:00031230       ?ope_46@@YIXPAUZ80@@@Z     00432230 f   z80:op_ed.obj
 0001:00031240       ?ope_45@@YIXPAUZ80@@@Z     00432240 f   z80:op_ed.obj
 0001:000312a0       ?ope_44@@YIXPAUZ80@@@Z     004322a0 f   z80:op_ed.obj
 0001:000312c0       ?ope_43@@YIXPAUZ80@@@Z     004322c0 f   z80:op_ed.obj
 0001:00031330       ?ope_42@@YIXPAUZ80@@@Z     00432330 f   z80:op_ed.obj
 0001:000313b0       ?ope_41@@YIXPAUZ80@@@Z     004323b0 f   z80:op_ed.obj
 0001:000313d0       ?ope_40@@YIXPAUZ80@@@Z     004323d0 f   z80:op_ed.obj
 0001:00031410       ?ope_BB@@YIXPAUZ80@@@Z     00432410 f   z80:op_ed.obj
 0001:00031490       ?ope_BA@@YIXPAUZ80@@@Z     00432490 f   z80:op_ed.obj
 0001:00031500       ?ope_B3@@YIXPAUZ80@@@Z     00432500 f   z80:op_ed.obj
 0001:00031580       ?ope_B2@@YIXPAUZ80@@@Z     00432580 f   z80:op_ed.obj
 0001:000315f0       ?ope_AB@@YIXPAUZ80@@@Z     004325f0 f   z80:op_ed.obj
 0001:00031650       ?ope_AA@@YIXPAUZ80@@@Z     00432650 f   z80:op_ed.obj
 0001:000316a0       ?ope_A3@@YIXPAUZ80@@@Z     004326a0 f   z80:op_ed.obj
 0001:00031700       ?ope_A2@@YIXPAUZ80@@@Z     00432700 f   z80:op_ed.obj
 0001:00031750       ?op_CB@@YIXPAUZ80@@@Z      00432750 f   z80:op_cb.obj
 0001:00031770       ?opl_3F@@YIXPAUZ80@@@Z     00432770 f   z80:op_cb.obj
 0001:00031790       ?opl_3E@@YIXPAUZ80@@@Z     00432790 f   z80:op_cb.obj
 0001:000317d0       ?opl_3D@@YIXPAUZ80@@@Z     004327d0 f   z80:op_cb.obj
 0001:000317f0       ?opl_3C@@YIXPAUZ80@@@Z     004327f0 f   z80:op_cb.obj
 0001:00031810       ?opl_3B@@YIXPAUZ80@@@Z     00432810 f   z80:op_cb.obj
 0001:00031830       ?opl_3A@@YIXPAUZ80@@@Z     00432830 f   z80:op_cb.obj
 0001:00031850       ?opl_39@@YIXPAUZ80@@@Z     00432850 f   z80:op_cb.obj
 0001:00031870       ?opl_38@@YIXPAUZ80@@@Z     00432870 f   z80:op_cb.obj
 0001:00031890       ?opl_37@@YIXPAUZ80@@@Z     00432890 f   z80:op_cb.obj
 0001:000318b0       ?opl_36@@YIXPAUZ80@@@Z     004328b0 f   z80:op_cb.obj
 0001:000318f0       ?opl_35@@YIXPAUZ80@@@Z     004328f0 f   z80:op_cb.obj
 0001:00031910       ?opl_34@@YIXPAUZ80@@@Z     00432910 f   z80:op_cb.obj
 0001:00031930       ?opl_33@@YIXPAUZ80@@@Z     00432930 f   z80:op_cb.obj
 0001:00031950       ?opl_32@@YIXPAUZ80@@@Z     00432950 f   z80:op_cb.obj
 0001:00031970       ?opl_31@@YIXPAUZ80@@@Z     00432970 f   z80:op_cb.obj
 0001:00031990       ?opl_30@@YIXPAUZ80@@@Z     00432990 f   z80:op_cb.obj
 0001:000319b0       ?opl_2F@@YIXPAUZ80@@@Z     004329b0 f   z80:op_cb.obj
 0001:000319d0       ?opl_2E@@YIXPAUZ80@@@Z     004329d0 f   z80:op_cb.obj
 0001:00031a10       ?opl_2D@@YIXPAUZ80@@@Z     00432a10 f   z80:op_cb.obj
 0001:00031a30       ?opl_2C@@YIXPAUZ80@@@Z     00432a30 f   z80:op_cb.obj
 0001:00031a50       ?opl_2B@@YIXPAUZ80@@@Z     00432a50 f   z80:op_cb.obj
 0001:00031a70       ?opl_2A@@YIXPAUZ80@@@Z     00432a70 f   z80:op_cb.obj
 0001:00031a90       ?opl_29@@YIXPAUZ80@@@Z     00432a90 f   z80:op_cb.obj
 0001:00031ab0       ?opl_28@@YIXPAUZ80@@@Z     00432ab0 f   z80:op_cb.obj
 0001:00031ad0       ?opl_27@@YIXPAUZ80@@@Z     00432ad0 f   z80:op_cb.obj
 0001:00031af0       ?opl_26@@YIXPAUZ80@@@Z     00432af0 f   z80:op_cb.obj
 0001:00031b30       ?opl_25@@YIXPAUZ80@@@Z     00432b30 f   z80:op_cb.obj
 0001:00031b50       ?opl_24@@YIXPAUZ80@@@Z     00432b50 f   z80:op_cb.obj
 0001:00031b70       ?opl_23@@YIXPAUZ80@@@Z     00432b70 f   z80:op_cb.obj
 0001:00031b90       ?opl_22@@YIXPAUZ80@@@Z     00432b90 f   z80:op_cb.obj
 0001:00031bb0       ?opl_21@@YIXPAUZ80@@@Z     00432bb0 f   z80:op_cb.obj
 0001:00031bd0       ?opl_20@@YIXPAUZ80@@@Z     00432bd0 f   z80:op_cb.obj
 0001:00031bf0       ?opl_1F@@YIXPAUZ80@@@Z     00432bf0 f   z80:op_cb.obj
 0001:00031c20       ?opl_1E@@YIXPAUZ80@@@Z     00432c20 f   z80:op_cb.obj
 0001:00031c70       ?opl_1D@@YIXPAUZ80@@@Z     00432c70 f   z80:op_cb.obj
 0001:00031ca0       ?opl_1C@@YIXPAUZ80@@@Z     00432ca0 f   z80:op_cb.obj
 0001:00031cd0       ?opl_1B@@YIXPAUZ80@@@Z     00432cd0 f   z80:op_cb.obj
 0001:00031d00       ?opl_1A@@YIXPAUZ80@@@Z     00432d00 f   z80:op_cb.obj
 0001:00031d30       ?opl_19@@YIXPAUZ80@@@Z     00432d30 f   z80:op_cb.obj
 0001:00031d60       ?opl_18@@YIXPAUZ80@@@Z     00432d60 f   z80:op_cb.obj
 0001:00031d90       ?opl_17@@YIXPAUZ80@@@Z     00432d90 f   z80:op_cb.obj
 0001:00031dc0       ?opl_16@@YIXPAUZ80@@@Z     00432dc0 f   z80:op_cb.obj
 0001:00031e10       ?opl_15@@YIXPAUZ80@@@Z     00432e10 f   z80:op_cb.obj
 0001:00031e40       ?opl_14@@YIXPAUZ80@@@Z     00432e40 f   z80:op_cb.obj
 0001:00031e70       ?opl_13@@YIXPAUZ80@@@Z     00432e70 f   z80:op_cb.obj
 0001:00031ea0       ?opl_12@@YIXPAUZ80@@@Z     00432ea0 f   z80:op_cb.obj
 0001:00031ed0       ?opl_11@@YIXPAUZ80@@@Z     00432ed0 f   z80:op_cb.obj
 0001:00031f00       ?opl_10@@YIXPAUZ80@@@Z     00432f00 f   z80:op_cb.obj
 0001:00031f30       ?opl_0F@@YIXPAUZ80@@@Z     00432f30 f   z80:op_cb.obj
 0001:00031f50       ?opl_0E@@YIXPAUZ80@@@Z     00432f50 f   z80:op_cb.obj
 0001:00031f90       ?opl_0D@@YIXPAUZ80@@@Z     00432f90 f   z80:op_cb.obj
 0001:00031fb0       ?opl_0C@@YIXPAUZ80@@@Z     00432fb0 f   z80:op_cb.obj
 0001:00031fd0       ?opl_0B@@YIXPAUZ80@@@Z     00432fd0 f   z80:op_cb.obj
 0001:00031ff0       ?opl_0A@@YIXPAUZ80@@@Z     00432ff0 f   z80:op_cb.obj
 0001:00032010       ?opl_09@@YIXPAUZ80@@@Z     00433010 f   z80:op_cb.obj
 0001:00032030       ?opl_08@@YIXPAUZ80@@@Z     00433030 f   z80:op_cb.obj
 0001:00032050       ?opl_07@@YIXPAUZ80@@@Z     00433050 f   z80:op_cb.obj
 0001:00032070       ?opl_06@@YIXPAUZ80@@@Z     00433070 f   z80:op_cb.obj
 0001:000320b0       ?opl_05@@YIXPAUZ80@@@Z     004330b0 f   z80:op_cb.obj
 0001:000320d0       ?opl_04@@YIXPAUZ80@@@Z     004330d0 f   z80:op_cb.obj
 0001:000320f0       ?opl_03@@YIXPAUZ80@@@Z     004330f0 f   z80:op_cb.obj
 0001:00032110       ?opl_02@@YIXPAUZ80@@@Z     00433110 f   z80:op_cb.obj
 0001:00032130       ?opl_01@@YIXPAUZ80@@@Z     00433130 f   z80:op_cb.obj
 0001:00032150       ?opl_00@@YIXPAUZ80@@@Z     00433150 f   z80:op_cb.obj
 0001:00032170       ?opl_FF@@YIXPAUZ80@@@Z     00433170 f   z80:op_cb.obj
 0001:00032180       ?opl_FE@@YIXPAUZ80@@@Z     00433180 f   z80:op_cb.obj
 0001:000321b0       ?opl_FD@@YIXPAUZ80@@@Z     004331b0 f   z80:op_cb.obj
 0001:000321c0       ?opl_FC@@YIXPAUZ80@@@Z     004331c0 f   z80:op_cb.obj
 0001:000321d0       ?opl_FB@@YIXPAUZ80@@@Z     004331d0 f   z80:op_cb.obj
 0001:000321e0       ?opl_FA@@YIXPAUZ80@@@Z     004331e0 f   z80:op_cb.obj
 0001:000321f0       ?opl_F9@@YIXPAUZ80@@@Z     004331f0 f   z80:op_cb.obj
 0001:00032200       ?opl_F8@@YIXPAUZ80@@@Z     00433200 f   z80:op_cb.obj
 0001:00032210       ?opl_F7@@YIXPAUZ80@@@Z     00433210 f   z80:op_cb.obj
 0001:00032220       ?opl_F6@@YIXPAUZ80@@@Z     00433220 f   z80:op_cb.obj
 0001:00032250       ?opl_F5@@YIXPAUZ80@@@Z     00433250 f   z80:op_cb.obj
 0001:00032260       ?opl_F4@@YIXPAUZ80@@@Z     00433260 f   z80:op_cb.obj
 0001:00032270       ?opl_F3@@YIXPAUZ80@@@Z     00433270 f   z80:op_cb.obj
 0001:00032280       ?opl_F2@@YIXPAUZ80@@@Z     00433280 f   z80:op_cb.obj
 0001:00032290       ?opl_F1@@YIXPAUZ80@@@Z     00433290 f   z80:op_cb.obj
 0001:000322a0       ?opl_F0@@YIXPAUZ80@@@Z     004332a0 f   z80:op_cb.obj
 0001:000322b0       ?opl_EF@@YIXPAUZ80@@@Z     004332b0 f   z80:op_cb.obj
 0001:000322c0       ?opl_EE@@YIXPAUZ80@@@Z     004332c0 f   z80:op_cb.obj
 0001:000322f0       ?opl_ED@@YIXPAUZ80@@@Z     004332f0 f   z80:op_cb.obj
 0001:00032300       ?opl_EC@@YIXPAUZ80@@@Z     00433300 f   z80:op_cb.obj
 0001:00032310       ?opl_EB@@YIXPAUZ80@@@Z     00433310 f   z80:op_cb.obj
 0001:00032320       ?opl_EA@@YIXPAUZ80@@@Z     00433320 f   z80:op_cb.obj
 0001:00032330       ?opl_E9@@YIXPAUZ80@@@Z     00433330 f   z80:op_cb.obj
 0001:00032340       ?opl_E8@@YIXPAUZ80@@@Z     00433340 f   z80:op_cb.obj
 0001:00032350       ?opl_E7@@YIXPAUZ80@@@Z     00433350 f   z80:op_cb.obj
 0001:00032360       ?opl_E6@@YIXPAUZ80@@@Z     00433360 f   z80:op_cb.obj
 0001:00032390       ?opl_E5@@YIXPAUZ80@@@Z     00433390 f   z80:op_cb.obj
 0001:000323a0       ?opl_E4@@YIXPAUZ80@@@Z     004333a0 f   z80:op_cb.obj
 0001:000323b0       ?opl_E3@@YIXPAUZ80@@@Z     004333b0 f   z80:op_cb.obj
 0001:000323c0       ?opl_E2@@YIXPAUZ80@@@Z     004333c0 f   z80:op_cb.obj
 0001:000323d0       ?opl_E1@@YIXPAUZ80@@@Z     004333d0 f   z80:op_cb.obj
 0001:000323e0       ?opl_E0@@YIXPAUZ80@@@Z     004333e0 f   z80:op_cb.obj
 0001:000323f0       ?opl_DF@@YIXPAUZ80@@@Z     004333f0 f   z80:op_cb.obj
 0001:00032400       ?opl_DE@@YIXPAUZ80@@@Z     00433400 f   z80:op_cb.obj
 0001:00032430       ?opl_DD@@YIXPAUZ80@@@Z     00433430 f   z80:op_cb.obj
 0001:00032440       ?opl_DC@@YIXPAUZ80@@@Z     00433440 f   z80:op_cb.obj
 0001:00032450       ?opl_DB@@YIXPAUZ80@@@Z     00433450 f   z80:op_cb.obj
 0001:00032460       ?opl_DA@@YIXPAUZ80@@@Z     00433460 f   z80:op_cb.obj
 0001:00032470       ?opl_D9@@YIXPAUZ80@@@Z     00433470 f   z80:op_cb.obj
 0001:00032480       ?opl_D8@@YIXPAUZ80@@@Z     00433480 f   z80:op_cb.obj
 0001:00032490       ?opl_D7@@YIXPAUZ80@@@Z     00433490 f   z80:op_cb.obj
 0001:000324a0       ?opl_D6@@YIXPAUZ80@@@Z     004334a0 f   z80:op_cb.obj
 0001:000324d0       ?opl_D5@@YIXPAUZ80@@@Z     004334d0 f   z80:op_cb.obj
 0001:000324e0       ?opl_D4@@YIXPAUZ80@@@Z     004334e0 f   z80:op_cb.obj
 0001:000324f0       ?opl_D3@@YIXPAUZ80@@@Z     004334f0 f   z80:op_cb.obj
 0001:00032500       ?opl_D2@@YIXPAUZ80@@@Z     00433500 f   z80:op_cb.obj
 0001:00032510       ?opl_D1@@YIXPAUZ80@@@Z     00433510 f   z80:op_cb.obj
 0001:00032520       ?opl_D0@@YIXPAUZ80@@@Z     00433520 f   z80:op_cb.obj
 0001:00032530       ?opl_CF@@YIXPAUZ80@@@Z     00433530 f   z80:op_cb.obj
 0001:00032540       ?opl_CE@@YIXPAUZ80@@@Z     00433540 f   z80:op_cb.obj
 0001:00032570       ?opl_CD@@YIXPAUZ80@@@Z     00433570 f   z80:op_cb.obj
 0001:00032580       ?opl_CC@@YIXPAUZ80@@@Z     00433580 f   z80:op_cb.obj
 0001:00032590       ?opl_CB@@YIXPAUZ80@@@Z     00433590 f   z80:op_cb.obj
 0001:000325a0       ?opl_CA@@YIXPAUZ80@@@Z     004335a0 f   z80:op_cb.obj
 0001:000325b0       ?opl_C9@@YIXPAUZ80@@@Z     004335b0 f   z80:op_cb.obj
 0001:000325c0       ?opl_C8@@YIXPAUZ80@@@Z     004335c0 f   z80:op_cb.obj
 0001:000325d0       ?opl_C7@@YIXPAUZ80@@@Z     004335d0 f   z80:op_cb.obj
 0001:000325e0       ?opl_C6@@YIXPAUZ80@@@Z     004335e0 f   z80:op_cb.obj
 0001:00032610       ?opl_C5@@YIXPAUZ80@@@Z     00433610 f   z80:op_cb.obj
 0001:00032620       ?opl_C4@@YIXPAUZ80@@@Z     00433620 f   z80:op_cb.obj
 0001:00032630       ?opl_C3@@YIXPAUZ80@@@Z     00433630 f   z80:op_cb.obj
 0001:00032640       ?opl_C2@@YIXPAUZ80@@@Z     00433640 f   z80:op_cb.obj
 0001:00032650       ?opl_C1@@YIXPAUZ80@@@Z     00433650 f   z80:op_cb.obj
 0001:00032660       ?opl_C0@@YIXPAUZ80@@@Z     00433660 f   z80:op_cb.obj
 0001:00032670       ?opl_BF@@YIXPAUZ80@@@Z     00433670 f   z80:op_cb.obj
 0001:00032680       ?opl_BE@@YIXPAUZ80@@@Z     00433680 f   z80:op_cb.obj
 0001:000326b0       ?opl_BD@@YIXPAUZ80@@@Z     004336b0 f   z80:op_cb.obj
 0001:000326c0       ?opl_BC@@YIXPAUZ80@@@Z     004336c0 f   z80:op_cb.obj
 0001:000326d0       ?opl_BB@@YIXPAUZ80@@@Z     004336d0 f   z80:op_cb.obj
 0001:000326e0       ?opl_BA@@YIXPAUZ80@@@Z     004336e0 f   z80:op_cb.obj
 0001:000326f0       ?opl_B9@@YIXPAUZ80@@@Z     004336f0 f   z80:op_cb.obj
 0001:00032700       ?opl_B8@@YIXPAUZ80@@@Z     00433700 f   z80:op_cb.obj
 0001:00032710       ?opl_B7@@YIXPAUZ80@@@Z     00433710 f   z80:op_cb.obj
 0001:00032720       ?opl_B6@@YIXPAUZ80@@@Z     00433720 f   z80:op_cb.obj
 0001:00032750       ?opl_B5@@YIXPAUZ80@@@Z     00433750 f   z80:op_cb.obj
 0001:00032760       ?opl_B4@@YIXPAUZ80@@@Z     00433760 f   z80:op_cb.obj
 0001:00032770       ?opl_B3@@YIXPAUZ80@@@Z     00433770 f   z80:op_cb.obj
 0001:00032780       ?opl_B2@@YIXPAUZ80@@@Z     00433780 f   z80:op_cb.obj
 0001:00032790       ?opl_B1@@YIXPAUZ80@@@Z     00433790 f   z80:op_cb.obj
 0001:000327a0       ?opl_B0@@YIXPAUZ80@@@Z     004337a0 f   z80:op_cb.obj
 0001:000327b0       ?opl_AF@@YIXPAUZ80@@@Z     004337b0 f   z80:op_cb.obj
 0001:000327c0       ?opl_AE@@YIXPAUZ80@@@Z     004337c0 f   z80:op_cb.obj
 0001:000327f0       ?opl_AD@@YIXPAUZ80@@@Z     004337f0 f   z80:op_cb.obj
 0001:00032800       ?opl_AC@@YIXPAUZ80@@@Z     00433800 f   z80:op_cb.obj
 0001:00032810       ?opl_AB@@YIXPAUZ80@@@Z     00433810 f   z80:op_cb.obj
 0001:00032820       ?opl_AA@@YIXPAUZ80@@@Z     00433820 f   z80:op_cb.obj
 0001:00032830       ?opl_A9@@YIXPAUZ80@@@Z     00433830 f   z80:op_cb.obj
 0001:00032840       ?opl_A8@@YIXPAUZ80@@@Z     00433840 f   z80:op_cb.obj
 0001:00032850       ?opl_A7@@YIXPAUZ80@@@Z     00433850 f   z80:op_cb.obj
 0001:00032860       ?opl_A6@@YIXPAUZ80@@@Z     00433860 f   z80:op_cb.obj
 0001:00032890       ?opl_A5@@YIXPAUZ80@@@Z     00433890 f   z80:op_cb.obj
 0001:000328a0       ?opl_A4@@YIXPAUZ80@@@Z     004338a0 f   z80:op_cb.obj
 0001:000328b0       ?opl_A3@@YIXPAUZ80@@@Z     004338b0 f   z80:op_cb.obj
 0001:000328c0       ?opl_A2@@YIXPAUZ80@@@Z     004338c0 f   z80:op_cb.obj
 0001:000328d0       ?opl_A1@@YIXPAUZ80@@@Z     004338d0 f   z80:op_cb.obj
 0001:000328e0       ?opl_A0@@YIXPAUZ80@@@Z     004338e0 f   z80:op_cb.obj
 0001:000328f0       ?opl_9F@@YIXPAUZ80@@@Z     004338f0 f   z80:op_cb.obj
 0001:00032900       ?opl_9E@@YIXPAUZ80@@@Z     00433900 f   z80:op_cb.obj
 0001:00032930       ?opl_9D@@YIXPAUZ80@@@Z     00433930 f   z80:op_cb.obj
 0001:00032940       ?opl_9C@@YIXPAUZ80@@@Z     00433940 f   z80:op_cb.obj
 0001:00032950       ?opl_9B@@YIXPAUZ80@@@Z     00433950 f   z80:op_cb.obj
 0001:00032960       ?opl_9A@@YIXPAUZ80@@@Z     00433960 f   z80:op_cb.obj
 0001:00032970       ?opl_99@@YIXPAUZ80@@@Z     00433970 f   z80:op_cb.obj
 0001:00032980       ?opl_98@@YIXPAUZ80@@@Z     00433980 f   z80:op_cb.obj
 0001:00032990       ?opl_97@@YIXPAUZ80@@@Z     00433990 f   z80:op_cb.obj
 0001:000329a0       ?opl_96@@YIXPAUZ80@@@Z     004339a0 f   z80:op_cb.obj
 0001:000329d0       ?opl_95@@YIXPAUZ80@@@Z     004339d0 f   z80:op_cb.obj
 0001:000329e0       ?opl_94@@YIXPAUZ80@@@Z     004339e0 f   z80:op_cb.obj
 0001:000329f0       ?opl_93@@YIXPAUZ80@@@Z     004339f0 f   z80:op_cb.obj
 0001:00032a00       ?opl_92@@YIXPAUZ80@@@Z     00433a00 f   z80:op_cb.obj
 0001:00032a10       ?opl_91@@YIXPAUZ80@@@Z     00433a10 f   z80:op_cb.obj
 0001:00032a20       ?opl_90@@YIXPAUZ80@@@Z     00433a20 f   z80:op_cb.obj
 0001:00032a30       ?opl_8F@@YIXPAUZ80@@@Z     00433a30 f   z80:op_cb.obj
 0001:00032a40       ?opl_8E@@YIXPAUZ80@@@Z     00433a40 f   z80:op_cb.obj
 0001:00032a70       ?opl_8D@@YIXPAUZ80@@@Z     00433a70 f   z80:op_cb.obj
 0001:00032a80       ?opl_8C@@YIXPAUZ80@@@Z     00433a80 f   z80:op_cb.obj
 0001:00032a90       ?opl_8B@@YIXPAUZ80@@@Z     00433a90 f   z80:op_cb.obj
 0001:00032aa0       ?opl_8A@@YIXPAUZ80@@@Z     00433aa0 f   z80:op_cb.obj
 0001:00032ab0       ?opl_89@@YIXPAUZ80@@@Z     00433ab0 f   z80:op_cb.obj
 0001:00032ac0       ?opl_88@@YIXPAUZ80@@@Z     00433ac0 f   z80:op_cb.obj
 0001:00032ad0       ?opl_87@@YIXPAUZ80@@@Z     00433ad0 f   z80:op_cb.obj
 0001:00032ae0       ?opl_86@@YIXPAUZ80@@@Z     00433ae0 f   z80:op_cb.obj
 0001:00032b10       ?opl_85@@YIXPAUZ80@@@Z     00433b10 f   z80:op_cb.obj
 0001:00032b20       ?opl_84@@YIXPAUZ80@@@Z     00433b20 f   z80:op_cb.obj
 0001:00032b30       ?opl_83@@YIXPAUZ80@@@Z     00433b30 f   z80:op_cb.obj
 0001:00032b40       ?opl_82@@YIXPAUZ80@@@Z     00433b40 f   z80:op_cb.obj
 0001:00032b50       ?opl_81@@YIXPAUZ80@@@Z     00433b50 f   z80:op_cb.obj
 0001:00032b60       ?opl_80@@YIXPAUZ80@@@Z     00433b60 f   z80:op_cb.obj
 0001:00032b70       ?opl_7F@@YIXPAUZ80@@@Z     00433b70 f   z80:op_cb.obj
 0001:00032ba0       ?opl_7E@@YIXPAUZ80@@@Z     00433ba0 f   z80:op_cb.obj
 0001:00032bf0       ?opl_7D@@YIXPAUZ80@@@Z     00433bf0 f   z80:op_cb.obj
 0001:00032c20       ?opl_7C@@YIXPAUZ80@@@Z     00433c20 f   z80:op_cb.obj
 0001:00032c50       ?opl_7B@@YIXPAUZ80@@@Z     00433c50 f   z80:op_cb.obj
 0001:00032c80       ?opl_7A@@YIXPAUZ80@@@Z     00433c80 f   z80:op_cb.obj
 0001:00032cb0       ?opl_79@@YIXPAUZ80@@@Z     00433cb0 f   z80:op_cb.obj
 0001:00032ce0       ?opl_78@@YIXPAUZ80@@@Z     00433ce0 f   z80:op_cb.obj
 0001:00032d10       ?opl_77@@YIXPAUZ80@@@Z     00433d10 f   z80:op_cb.obj
 0001:00032d40       ?opl_76@@YIXPAUZ80@@@Z     00433d40 f   z80:op_cb.obj
 0001:00032d90       ?opl_75@@YIXPAUZ80@@@Z     00433d90 f   z80:op_cb.obj
 0001:00032dc0       ?opl_74@@YIXPAUZ80@@@Z     00433dc0 f   z80:op_cb.obj
 0001:00032df0       ?opl_73@@YIXPAUZ80@@@Z     00433df0 f   z80:op_cb.obj
 0001:00032e20       ?opl_72@@YIXPAUZ80@@@Z     00433e20 f   z80:op_cb.obj
 0001:00032e50       ?opl_71@@YIXPAUZ80@@@Z     00433e50 f   z80:op_cb.obj
 0001:00032e80       ?opl_70@@YIXPAUZ80@@@Z     00433e80 f   z80:op_cb.obj
 0001:00032eb0       ?opl_6F@@YIXPAUZ80@@@Z     00433eb0 f   z80:op_cb.obj
 0001:00032ee0       ?opl_6E@@YIXPAUZ80@@@Z     00433ee0 f   z80:op_cb.obj
 0001:00032f30       ?opl_6D@@YIXPAUZ80@@@Z     00433f30 f   z80:op_cb.obj
 0001:00032f60       ?opl_6C@@YIXPAUZ80@@@Z     00433f60 f   z80:op_cb.obj
 0001:00032f90       ?opl_6B@@YIXPAUZ80@@@Z     00433f90 f   z80:op_cb.obj
 0001:00032fc0       ?opl_6A@@YIXPAUZ80@@@Z     00433fc0 f   z80:op_cb.obj
 0001:00032ff0       ?opl_69@@YIXPAUZ80@@@Z     00433ff0 f   z80:op_cb.obj
 0001:00033020       ?opl_68@@YIXPAUZ80@@@Z     00434020 f   z80:op_cb.obj
 0001:00033050       ?opl_67@@YIXPAUZ80@@@Z     00434050 f   z80:op_cb.obj
 0001:00033080       ?opl_66@@YIXPAUZ80@@@Z     00434080 f   z80:op_cb.obj
 0001:000330d0       ?opl_65@@YIXPAUZ80@@@Z     004340d0 f   z80:op_cb.obj
 0001:00033100       ?opl_64@@YIXPAUZ80@@@Z     00434100 f   z80:op_cb.obj
 0001:00033130       ?opl_63@@YIXPAUZ80@@@Z     00434130 f   z80:op_cb.obj
 0001:00033160       ?opl_62@@YIXPAUZ80@@@Z     00434160 f   z80:op_cb.obj
 0001:00033190       ?opl_61@@YIXPAUZ80@@@Z     00434190 f   z80:op_cb.obj
 0001:000331c0       ?opl_60@@YIXPAUZ80@@@Z     004341c0 f   z80:op_cb.obj
 0001:000331f0       ?opl_5F@@YIXPAUZ80@@@Z     004341f0 f   z80:op_cb.obj
 0001:00033220       ?opl_5E@@YIXPAUZ80@@@Z     00434220 f   z80:op_cb.obj
 0001:00033270       ?opl_5D@@YIXPAUZ80@@@Z     00434270 f   z80:op_cb.obj
 0001:000332a0       ?opl_5C@@YIXPAUZ80@@@Z     004342a0 f   z80:op_cb.obj
 0001:000332d0       ?opl_5B@@YIXPAUZ80@@@Z     004342d0 f   z80:op_cb.obj
 0001:00033300       ?opl_5A@@YIXPAUZ80@@@Z     00434300 f   z80:op_cb.obj
 0001:00033330       ?opl_59@@YIXPAUZ80@@@Z     00434330 f   z80:op_cb.obj
 0001:00033360       ?opl_58@@YIXPAUZ80@@@Z     00434360 f   z80:op_cb.obj
 0001:00033390       ?opl_57@@YIXPAUZ80@@@Z     00434390 f   z80:op_cb.obj
 0001:000333c0       ?opl_56@@YIXPAUZ80@@@Z     004343c0 f   z80:op_cb.obj
 0001:00033410       ?opl_55@@YIXPAUZ80@@@Z     00434410 f   z80:op_cb.obj
 0001:00033440       ?opl_54@@YIXPAUZ80@@@Z     00434440 f   z80:op_cb.obj
 0001:00033470       ?opl_53@@YIXPAUZ80@@@Z     00434470 f   z80:op_cb.obj
 0001:000334a0       ?opl_52@@YIXPAUZ80@@@Z     004344a0 f   z80:op_cb.obj
 0001:000334d0       ?opl_51@@YIXPAUZ80@@@Z     004344d0 f   z80:op_cb.obj
 0001:00033500       ?opl_50@@YIXPAUZ80@@@Z     00434500 f   z80:op_cb.obj
 0001:00033530       ?opl_4F@@YIXPAUZ80@@@Z     00434530 f   z80:op_cb.obj
 0001:00033560       ?opl_4E@@YIXPAUZ80@@@Z     00434560 f   z80:op_cb.obj
 0001:000335b0       ?opl_4D@@YIXPAUZ80@@@Z     004345b0 f   z80:op_cb.obj
 0001:000335e0       ?opl_4C@@YIXPAUZ80@@@Z     004345e0 f   z80:op_cb.obj
 0001:00033610       ?opl_4B@@YIXPAUZ80@@@Z     00434610 f   z80:op_cb.obj
 0001:00033640       ?opl_4A@@YIXPAUZ80@@@Z     00434640 f   z80:op_cb.obj
 0001:00033670       ?opl_49@@YIXPAUZ80@@@Z     00434670 f   z80:op_cb.obj
 0001:000336a0       ?opl_48@@YIXPAUZ80@@@Z     004346a0 f   z80:op_cb.obj
 0001:000336d0       ?opl_47@@YIXPAUZ80@@@Z     004346d0 f   z80:op_cb.obj
 0001:00033700       ?opl_46@@YIXPAUZ80@@@Z     00434700 f   z80:op_cb.obj
 0001:00033750       ?opl_45@@YIXPAUZ80@@@Z     00434750 f   z80:op_cb.obj
 0001:00033780       ?opl_44@@YIXPAUZ80@@@Z     00434780 f   z80:op_cb.obj
 0001:000337b0       ?opl_43@@YIXPAUZ80@@@Z     004347b0 f   z80:op_cb.obj
 0001:000337e0       ?opl_42@@YIXPAUZ80@@@Z     004347e0 f   z80:op_cb.obj
 0001:00033810       ?opl_41@@YIXPAUZ80@@@Z     00434810 f   z80:op_cb.obj
 0001:00033840       ?opl_40@@YIXPAUZ80@@@Z     00434840 f   z80:op_cb.obj
 0001:00033870       ?oplx_38@@YIEPAUZ80@@E@Z   00434870 f   z80:op_ddcb.obj
 0001:00033880       ?oplx_30@@YIEPAUZ80@@E@Z   00434880 f   z80:op_ddcb.obj
 0001:000338a0       ?oplx_28@@YIEPAUZ80@@E@Z   004348a0 f   z80:op_ddcb.obj
 0001:000338c0       ?oplx_20@@YIEPAUZ80@@E@Z   004348c0 f   z80:op_ddcb.obj
 0001:000338d0       ?oplx_18@@YIEPAUZ80@@E@Z   004348d0 f   z80:op_ddcb.obj
 0001:00033900       ?oplx_10@@YIEPAUZ80@@E@Z   00434900 f   z80:op_ddcb.obj
 0001:00033930       ?oplx_08@@YIEPAUZ80@@E@Z   00434930 f   z80:op_ddcb.obj
 0001:00033950       ?oplx_00@@YIEPAUZ80@@E@Z   00434950 f   z80:op_ddcb.obj
 0001:00033970       ?op_FD@@YIXPAUZ80@@@Z      00434970 f   z80:op_ddcb.obj
 0001:00033a60       ?op_DD@@YIXPAUZ80@@@Z      00434a60 f   z80:op_ddcb.obj
 0001:00033b50       ?oplx_F8@@YIEPAUZ80@@E@Z   00434b50 f   z80:op_ddcb.obj
 0001:00033b60       ?oplx_F0@@YIEPAUZ80@@E@Z   00434b60 f   z80:op_ddcb.obj
 0001:00033b70       ?oplx_E8@@YIEPAUZ80@@E@Z   00434b70 f   z80:op_ddcb.obj
 0001:00033b80       ?oplx_E0@@YIEPAUZ80@@E@Z   00434b80 f   z80:op_ddcb.obj
 0001:00033b90       ?oplx_D8@@YIEPAUZ80@@E@Z   00434b90 f   z80:op_ddcb.obj
 0001:00033ba0       ?oplx_D0@@YIEPAUZ80@@E@Z   00434ba0 f   z80:op_ddcb.obj
 0001:00033bb0       ?oplx_C8@@YIEPAUZ80@@E@Z   00434bb0 f   z80:op_ddcb.obj
 0001:00033bc0       ?oplx_C0@@YIEPAUZ80@@E@Z   00434bc0 f   z80:op_ddcb.obj
 0001:00033bd0       ?oplx_B8@@YIEPAUZ80@@E@Z   00434bd0 f   z80:op_ddcb.obj
 0001:00033be0       ?oplx_B0@@YIEPAUZ80@@E@Z   00434be0 f   z80:op_ddcb.obj
 0001:00033bf0       ?oplx_A8@@YIEPAUZ80@@E@Z   00434bf0 f   z80:op_ddcb.obj
 0001:00033c00       ?oplx_A0@@YIEPAUZ80@@E@Z   00434c00 f   z80:op_ddcb.obj
 0001:00033c10       ?oplx_98@@YIEPAUZ80@@E@Z   00434c10 f   z80:op_ddcb.obj
 0001:00033c20       ?oplx_90@@YIEPAUZ80@@E@Z   00434c20 f   z80:op_ddcb.obj
 0001:00033c30       ?oplx_88@@YIEPAUZ80@@E@Z   00434c30 f   z80:op_ddcb.obj
 0001:00033c40       ?oplx_80@@YIEPAUZ80@@E@Z   00434c40 f   z80:op_ddcb.obj
 0001:00033c50       ?oplx_78@@YIEPAUZ80@@E@Z   00434c50 f   z80:op_ddcb.obj
 0001:00033c90       ?oplx_70@@YIEPAUZ80@@E@Z   00434c90 f   z80:op_ddcb.obj
 0001:00033cd0       ?oplx_68@@YIEPAUZ80@@E@Z   00434cd0 f   z80:op_ddcb.obj
 0001:00033d10       ?oplx_60@@YIEPAUZ80@@E@Z   00434d10 f   z80:op_ddcb.obj
 0001:00033d50       ?oplx_58@@YIEPAUZ80@@E@Z   00434d50 f   z80:op_ddcb.obj
 0001:00033d90       ?oplx_50@@YIEPAUZ80@@E@Z   00434d90 f   z80:op_ddcb.obj
 0001:00033dd0       ?oplx_48@@YIEPAUZ80@@E@Z   00434dd0 f   z80:op_ddcb.obj
 0001:00033e10       ?oplx_40@@YIEPAUZ80@@E@Z   00434e10 f   z80:op_ddcb.obj
 0001:00033e50       ?make_rot@@YAXXZ           00434e50 f   z80:tables.obj
 0001:00033eb0       ?make_log@@YAXXZ           00434eb0 f   z80:tables.obj
 0001:00033ef0       ?make_sbc@@YAXXZ           00434ef0 f   z80:tables.obj
 0001:00034010       ?make_adc@@YAXXZ           00435010 f   z80:tables.obj
 0001:000340e0       ?init_z80tables@@YAXXZ     004350e0 f   z80:tables.obj
 0001:00034100       ?op_FF@@YIXPAUZ80@@@Z      00435100 f   z80:op_noprefix.obj
 0001:00034150       ?op_FC@@YIXPAUZ80@@@Z      00435150 f   z80:op_noprefix.obj
 0001:000341d0       ?op_FB@@YIXPAUZ80@@@Z      004351d0 f   z80:op_noprefix.obj
 0001:000341e0       ?op_FA@@YIXPAUZ80@@@Z      004351e0 f   z80:op_noprefix.obj
 0001:00034230       ?op_F9@@YIXPAUZ80@@@Z      00435230 f   z80:op_noprefix.obj
 0001:00034240       ?op_F8@@YIXPAUZ80@@@Z      00435240 f   z80:op_noprefix.obj
 0001:000342a0       ?op_F7@@YIXPAUZ80@@@Z      004352a0 f   z80:op_noprefix.obj
 0001:000342f0       ?op_F5@@YIXPAUZ80@@@Z      004352f0 f   z80:op_noprefix.obj
 0001:00034320       ?op_F4@@YIXPAUZ80@@@Z      00435320 f   z80:op_noprefix.obj
 0001:000343a0       ?op_F3@@YIXPAUZ80@@@Z      004353a0 f   z80:op_noprefix.obj
 0001:000343b0       ?op_F2@@YIXPAUZ80@@@Z      004353b0 f   z80:op_noprefix.obj
 0001:00034400       ?op_F1@@YIXPAUZ80@@@Z      00435400 f   z80:op_noprefix.obj
 0001:00034440       ?op_F0@@YIXPAUZ80@@@Z      00435440 f   z80:op_noprefix.obj
 0001:000344a0       ?op_EF@@YIXPAUZ80@@@Z      004354a0 f   z80:op_noprefix.obj
 0001:000344f0       ?op_EC@@YIXPAUZ80@@@Z      004354f0 f   z80:op_noprefix.obj
 0001:00034570       ?op_EB@@YIXPAUZ80@@@Z      00435570 f   z80:op_noprefix.obj
 0001:00034580       ?op_EA@@YIXPAUZ80@@@Z      00435580 f   z80:op_noprefix.obj
 0001:000345d0       ?op_E9@@YIXPAUZ80@@@Z      004355d0 f   z80:op_noprefix.obj
 0001:000345f0       ?op_E8@@YIXPAUZ80@@@Z      004355f0 f   z80:op_noprefix.obj
 0001:00034650       ?op_E7@@YIXPAUZ80@@@Z      00435650 f   z80:op_noprefix.obj
 0001:000346a0       ?op_E5@@YIXPAUZ80@@@Z      004356a0 f   z80:op_noprefix.obj
 0001:000346d0       ?op_E4@@YIXPAUZ80@@@Z      004356d0 f   z80:op_noprefix.obj
 0001:00034750       ?op_E3@@YIXPAUZ80@@@Z      00435750 f   z80:op_noprefix.obj
 0001:000347b0       ?op_E2@@YIXPAUZ80@@@Z      004357b0 f   z80:op_noprefix.obj
 0001:00034800       ?op_E1@@YIXPAUZ80@@@Z      00435800 f   z80:op_noprefix.obj
 0001:00034840       ?op_E0@@YIXPAUZ80@@@Z      00435840 f   z80:op_noprefix.obj
 0001:00034890       ?op_DF@@YIXPAUZ80@@@Z      00435890 f   z80:op_noprefix.obj
 0001:000348e0       ?op_DC@@YIXPAUZ80@@@Z      004358e0 f   z80:op_noprefix.obj
 0001:00034960       ?op_DB@@YIXPAUZ80@@@Z      00435960 f   z80:op_noprefix.obj
 0001:000349a0       ?op_DA@@YIXPAUZ80@@@Z      004359a0 f   z80:op_noprefix.obj
 0001:000349f0       ?op_D9@@YIXPAUZ80@@@Z      004359f0 f   z80:op_noprefix.obj
 0001:00034a20       ?op_D8@@YIXPAUZ80@@@Z      00435a20 f   z80:op_noprefix.obj
 0001:00034a80       ?op_D7@@YIXPAUZ80@@@Z      00435a80 f   z80:op_noprefix.obj
 0001:00034ad0       ?op_D5@@YIXPAUZ80@@@Z      00435ad0 f   z80:op_noprefix.obj
 0001:00034b00       ?op_D4@@YIXPAUZ80@@@Z      00435b00 f   z80:op_noprefix.obj
 0001:00034b80       ?op_D3@@YIXPAUZ80@@@Z      00435b80 f   z80:op_noprefix.obj
 0001:00034bd0       ?op_D2@@YIXPAUZ80@@@Z      00435bd0 f   z80:op_noprefix.obj
 0001:00034c20       ?op_D1@@YIXPAUZ80@@@Z      00435c20 f   z80:op_noprefix.obj
 0001:00034c60       ?op_D0@@YIXPAUZ80@@@Z      00435c60 f   z80:op_noprefix.obj
 0001:00034cc0       ?op_CF@@YIXPAUZ80@@@Z      00435cc0 f   z80:op_noprefix.obj
 0001:00034d10       ?op_CD@@YIXPAUZ80@@@Z      00435d10 f   z80:op_noprefix.obj
 0001:00034d90       ?op_CC@@YIXPAUZ80@@@Z      00435d90 f   z80:op_noprefix.obj
 0001:00034e10       ?op_CA@@YIXPAUZ80@@@Z      00435e10 f   z80:op_noprefix.obj
 0001:00034e60       ?op_C9@@YIXPAUZ80@@@Z      00435e60 f   z80:op_noprefix.obj
 0001:00034eb0       ?op_C8@@YIXPAUZ80@@@Z      00435eb0 f   z80:op_noprefix.obj
 0001:00034f10       ?op_C7@@YIXPAUZ80@@@Z      00435f10 f   z80:op_noprefix.obj
 0001:00034f60       ?op_C5@@YIXPAUZ80@@@Z      00435f60 f   z80:op_noprefix.obj
 0001:00034f90       ?op_C4@@YIXPAUZ80@@@Z      00435f90 f   z80:op_noprefix.obj
 0001:00035010       ?op_C3@@YIXPAUZ80@@@Z      00436010 f   z80:op_noprefix.obj
 0001:00035060       ?op_C2@@YIXPAUZ80@@@Z      00436060 f   z80:op_noprefix.obj
 0001:000350b0       ?op_C1@@YIXPAUZ80@@@Z      004360b0 f   z80:op_noprefix.obj
 0001:000350f0       ?op_C0@@YIXPAUZ80@@@Z      004360f0 f   z80:op_noprefix.obj
 0001:00035150       ?op_AF@@YIXPAUZ80@@@Z      00436150 f   z80:op_noprefix.obj
 0001:00035160       ?op_97@@YIXPAUZ80@@@Z      00436160 f   z80:op_noprefix.obj
 0001:00035170       ?op_7E@@YIXPAUZ80@@@Z      00436170 f   z80:op_noprefix.obj
 0001:00035190       ?op_7D@@YIXPAUZ80@@@Z      00436190 f   z80:op_noprefix.obj
 0001:000351a0       ?op_7C@@YIXPAUZ80@@@Z      004361a0 f   z80:op_noprefix.obj
 0001:000351b0       ?op_7B@@YIXPAUZ80@@@Z      004361b0 f   z80:op_noprefix.obj
 0001:000351c0       ?op_7A@@YIXPAUZ80@@@Z      004361c0 f   z80:op_noprefix.obj
 0001:000351d0       ?op_79@@YIXPAUZ80@@@Z      004361d0 f   z80:op_noprefix.obj
 0001:000351e0       ?op_78@@YIXPAUZ80@@@Z      004361e0 f   z80:op_noprefix.obj
 0001:000351f0       ?op_77@@YIXPAUZ80@@@Z      004361f0 f   z80:op_noprefix.obj
 0001:00035210       ?op_76@@YIXPAUZ80@@@Z      00436210 f   z80:op_noprefix.obj
 0001:00035230       ?op_75@@YIXPAUZ80@@@Z      00436230 f   z80:op_noprefix.obj
 0001:00035250       ?op_74@@YIXPAUZ80@@@Z      00436250 f   z80:op_noprefix.obj
 0001:00035270       ?op_73@@YIXPAUZ80@@@Z      00436270 f   z80:op_noprefix.obj
 0001:00035290       ?op_72@@YIXPAUZ80@@@Z      00436290 f   z80:op_noprefix.obj
 0001:000352b0       ?op_71@@YIXPAUZ80@@@Z      004362b0 f   z80:op_noprefix.obj
 0001:000352d0       ?op_70@@YIXPAUZ80@@@Z      004362d0 f   z80:op_noprefix.obj
 0001:000352f0       ?op_6F@@YIXPAUZ80@@@Z      004362f0 f   z80:op_noprefix.obj
 0001:00035300       ?op_6E@@YIXPAUZ80@@@Z      00436300 f   z80:op_noprefix.obj
 0001:00035320       ?op_6C@@YIXPAUZ80@@@Z      00436320 f   z80:op_noprefix.obj
 0001:00035330       ?op_6B@@YIXPAUZ80@@@Z      00436330 f   z80:op_noprefix.obj
 0001:00035340       ?op_6A@@YIXPAUZ80@@@Z      00436340 f   z80:op_noprefix.obj
 0001:00035350       ?op_69@@YIXPAUZ80@@@Z      00436350 f   z80:op_noprefix.obj
 0001:00035360       ?op_68@@YIXPAUZ80@@@Z      00436360 f   z80:op_noprefix.obj
 0001:00035370       ?op_67@@YIXPAUZ80@@@Z      00436370 f   z80:op_noprefix.obj
 0001:00035380       ?op_66@@YIXPAUZ80@@@Z      00436380 f   z80:op_noprefix.obj
 0001:000353a0       ?op_65@@YIXPAUZ80@@@Z      004363a0 f   z80:op_noprefix.obj
 0001:000353b0       ?op_63@@YIXPAUZ80@@@Z      004363b0 f   z80:op_noprefix.obj
 0001:000353c0       ?op_62@@YIXPAUZ80@@@Z      004363c0 f   z80:op_noprefix.obj
 0001:000353d0       ?op_61@@YIXPAUZ80@@@Z      004363d0 f   z80:op_noprefix.obj
 0001:000353e0       ?op_60@@YIXPAUZ80@@@Z      004363e0 f   z80:op_noprefix.obj
 0001:000353f0       ?op_5F@@YIXPAUZ80@@@Z      004363f0 f   z80:op_noprefix.obj
 0001:00035400       ?op_5E@@YIXPAUZ80@@@Z      00436400 f   z80:op_noprefix.obj
 0001:00035420       ?op_5D@@YIXPAUZ80@@@Z      00436420 f   z80:op_noprefix.obj
 0001:00035430       ?op_5C@@YIXPAUZ80@@@Z      00436430 f   z80:op_noprefix.obj
 0001:00035440       ?op_5A@@YIXPAUZ80@@@Z      00436440 f   z80:op_noprefix.obj
 0001:00035450       ?op_59@@YIXPAUZ80@@@Z      00436450 f   z80:op_noprefix.obj
 0001:00035460       ?op_58@@YIXPAUZ80@@@Z      00436460 f   z80:op_noprefix.obj
 0001:00035470       ?op_57@@YIXPAUZ80@@@Z      00436470 f   z80:op_noprefix.obj
 0001:00035480       ?op_56@@YIXPAUZ80@@@Z      00436480 f   z80:op_noprefix.obj
 0001:000354a0       ?op_55@@YIXPAUZ80@@@Z      004364a0 f   z80:op_noprefix.obj
 0001:000354b0       ?op_54@@YIXPAUZ80@@@Z      004364b0 f   z80:op_noprefix.obj
 0001:000354c0       ?op_53@@YIXPAUZ80@@@Z      004364c0 f   z80:op_noprefix.obj
 0001:000354d0       ?op_51@@YIXPAUZ80@@@Z      004364d0 f   z80:op_noprefix.obj
 0001:000354e0       ?op_50@@YIXPAUZ80@@@Z      004364e0 f   z80:op_noprefix.obj
 0001:000354f0       ?op_4F@@YIXPAUZ80@@@Z      004364f0 f   z80:op_noprefix.obj
 0001:00035500       ?op_4E@@YIXPAUZ80@@@Z      00436500 f   z80:op_noprefix.obj
 0001:00035520       ?op_4D@@YIXPAUZ80@@@Z      00436520 f   z80:op_noprefix.obj
 0001:00035530       ?op_4C@@YIXPAUZ80@@@Z      00436530 f   z80:op_noprefix.obj
 0001:00035540       ?op_4B@@YIXPAUZ80@@@Z      00436540 f   z80:op_noprefix.obj
 0001:00035550       ?op_4A@@YIXPAUZ80@@@Z      00436550 f   z80:op_noprefix.obj
 0001:00035560       ?op_48@@YIXPAUZ80@@@Z      00436560 f   z80:op_noprefix.obj
 0001:00035570       ?op_47@@YIXPAUZ80@@@Z      00436570 f   z80:op_noprefix.obj
 0001:00035580       ?op_46@@YIXPAUZ80@@@Z      00436580 f   z80:op_noprefix.obj
 0001:000355a0       ?op_45@@YIXPAUZ80@@@Z      004365a0 f   z80:op_noprefix.obj
 0001:000355b0       ?op_44@@YIXPAUZ80@@@Z      004365b0 f   z80:op_noprefix.obj
 0001:000355c0       ?op_43@@YIXPAUZ80@@@Z      004365c0 f   z80:op_noprefix.obj
 0001:000355d0       ?op_42@@YIXPAUZ80@@@Z      004365d0 f   z80:op_noprefix.obj
 0001:000355e0       ?op_41@@YIXPAUZ80@@@Z      004365e0 f   z80:op_noprefix.obj
 0001:000355f0       ?op_3F@@YIXPAUZ80@@@Z      004365f0 f   z80:op_noprefix.obj
 0001:00035610       ?op_3E@@YIXPAUZ80@@@Z      00436610 f   z80:op_noprefix.obj
 0001:00035630       ?op_3B@@YIXPAUZ80@@@Z      00436630 f   z80:op_noprefix.obj
 0001:00035640       ?op_3A@@YIXPAUZ80@@@Z      00436640 f   z80:op_noprefix.obj
 0001:000356a0       ?op_39@@YIXPAUZ80@@@Z      004366a0 f   z80:op_noprefix.obj
 0001:00035700       ?op_38@@YIXPAUZ80@@@Z      00436700 f   z80:op_noprefix.obj
 0001:00035740       ?op_37@@YIXPAUZ80@@@Z      00436740 f   z80:op_noprefix.obj
 0001:00035750       ?op_36@@YIXPAUZ80@@@Z      00436750 f   z80:op_noprefix.obj
 0001:00035780       ?op_33@@YIXPAUZ80@@@Z      00436780 f   z80:op_noprefix.obj
 0001:00035790       ?op_32@@YIXPAUZ80@@@Z      00436790 f   z80:op_noprefix.obj
 0001:00035800       ?op_31@@YIXPAUZ80@@@Z      00436800 f   z80:op_noprefix.obj
 0001:00035840       ?op_30@@YIXPAUZ80@@@Z      00436840 f   z80:op_noprefix.obj
 0001:00035880       ?op_2F@@YIXPAUZ80@@@Z      00436880 f   z80:op_noprefix.obj
 0001:000358a0       ?op_2E@@YIXPAUZ80@@@Z      004368a0 f   z80:op_noprefix.obj
 0001:000358c0       ?op_2B@@YIXPAUZ80@@@Z      004368c0 f   z80:op_noprefix.obj
 0001:000358d0       ?op_2A@@YIXPAUZ80@@@Z      004368d0 f   z80:op_noprefix.obj
 0001:00035940       ?op_29@@YIXPAUZ80@@@Z      00436940 f   z80:op_noprefix.obj
 0001:00035980       ?op_28@@YIXPAUZ80@@@Z      00436980 f   z80:op_noprefix.obj
 0001:000359c0       ?op_27@@YIXPAUZ80@@@Z      004369c0 f   z80:op_noprefix.obj
 0001:000359f0       ?op_26@@YIXPAUZ80@@@Z      004369f0 f   z80:op_noprefix.obj
 0001:00035a10       ?op_23@@YIXPAUZ80@@@Z      00436a10 f   z80:op_noprefix.obj
 0001:00035a20       ?op_22@@YIXPAUZ80@@@Z      00436a20 f   z80:op_noprefix.obj
 0001:00035a90       ?op_21@@YIXPAUZ80@@@Z      00436a90 f   z80:op_noprefix.obj
 0001:00035ad0       ?op_20@@YIXPAUZ80@@@Z      00436ad0 f   z80:op_noprefix.obj
 0001:00035b10       ?op_1F@@YIXPAUZ80@@@Z      00436b10 f   z80:op_noprefix.obj
 0001:00035b40       ?op_1E@@YIXPAUZ80@@@Z      00436b40 f   z80:op_noprefix.obj
 0001:00035b60       ?op_1B@@YIXPAUZ80@@@Z      00436b60 f   z80:op_noprefix.obj
 0001:00035b70       ?op_1A@@YIXPAUZ80@@@Z      00436b70 f   z80:op_noprefix.obj
 0001:00035b90       ?op_19@@YIXPAUZ80@@@Z      00436b90 f   z80:op_noprefix.obj
 0001:00035bf0       ?op_18@@YIXPAUZ80@@@Z      00436bf0 f   z80:op_noprefix.obj
 0001:00035c20       ?op_17@@YIXPAUZ80@@@Z      00436c20 f   z80:op_noprefix.obj
 0001:00035c50       ?op_16@@YIXPAUZ80@@@Z      00436c50 f   z80:op_noprefix.obj
 0001:00035c70       ?op_13@@YIXPAUZ80@@@Z      00436c70 f   z80:op_noprefix.obj
 0001:00035c80       ?op_12@@YIXPAUZ80@@@Z      00436c80 f   z80:op_noprefix.obj
 0001:00035ca0       ?op_11@@YIXPAUZ80@@@Z      00436ca0 f   z80:op_noprefix.obj
 0001:00035ce0       ?op_10@@YIXPAUZ80@@@Z      00436ce0 f   z80:op_noprefix.obj
 0001:00035d20       ?op_0F@@YIXPAUZ80@@@Z      00436d20 f   z80:op_noprefix.obj
 0001:00035d40       ?op_0E@@YIXPAUZ80@@@Z      00436d40 f   z80:op_noprefix.obj
 0001:00035d60       ?op_0B@@YIXPAUZ80@@@Z      00436d60 f   z80:op_noprefix.obj
 0001:00035d70       ?op_0A@@YIXPAUZ80@@@Z      00436d70 f   z80:op_noprefix.obj
 0001:00035d90       ?op_09@@YIXPAUZ80@@@Z      00436d90 f   z80:op_noprefix.obj
 0001:00035df0       ?op_08@@YIXPAUZ80@@@Z      00436df0 f   z80:op_noprefix.obj
 0001:00035e00       ?op_07@@YIXPAUZ80@@@Z      00436e00 f   z80:op_noprefix.obj
 0001:00035e20       ?op_06@@YIXPAUZ80@@@Z      00436e20 f   z80:op_noprefix.obj
 0001:00035e40       ?op_03@@YIXPAUZ80@@@Z      00436e40 f   z80:op_noprefix.obj
 0001:00035e50       ?op_02@@YIXPAUZ80@@@Z      00436e50 f   z80:op_noprefix.obj
 0001:00035e70       ?op_01@@YIXPAUZ80@@@Z      00436e70 f   z80:op_noprefix.obj
 0001:00035eb0       ?op_00@@YIXPAUZ80@@@Z      00436eb0 f   z80:op_noprefix.obj
 0001:00035ec0       ?op_FE@@YIXPAUZ80@@@Z      00436ec0 f   z80:op_noprefix.obj
 0001:00035ef0       ?op_F6@@YIXPAUZ80@@@Z      00436ef0 f   z80:op_noprefix.obj
 0001:00035f20       ?op_EE@@YIXPAUZ80@@@Z      00436f20 f   z80:op_noprefix.obj
 0001:00035f50       ?op_E6@@YIXPAUZ80@@@Z      00436f50 f   z80:op_noprefix.obj
 0001:00035f80       ?op_DE@@YIXPAUZ80@@@Z      00436f80 f   z80:op_noprefix.obj
 0001:00035fd0       ?op_D6@@YIXPAUZ80@@@Z      00436fd0 f   z80:op_noprefix.obj
 0001:00036010       ?op_CE@@YIXPAUZ80@@@Z      00437010 f   z80:op_noprefix.obj
 0001:00036060       ?op_C6@@YIXPAUZ80@@@Z      00437060 f   z80:op_noprefix.obj
 0001:000360a0       ?op_BF@@YIXPAUZ80@@@Z      004370a0 f   z80:op_noprefix.obj
 0001:000360c0       ?op_BE@@YIXPAUZ80@@@Z      004370c0 f   z80:op_noprefix.obj
 0001:000360f0       ?op_BD@@YIXPAUZ80@@@Z      004370f0 f   z80:op_noprefix.obj
 0001:00036110       ?op_BC@@YIXPAUZ80@@@Z      00437110 f   z80:op_noprefix.obj
 0001:00036130       ?op_BB@@YIXPAUZ80@@@Z      00437130 f   z80:op_noprefix.obj
 0001:00036150       ?op_BA@@YIXPAUZ80@@@Z      00437150 f   z80:op_noprefix.obj
 0001:00036170       ?op_B9@@YIXPAUZ80@@@Z      00437170 f   z80:op_noprefix.obj
 0001:00036190       ?op_B8@@YIXPAUZ80@@@Z      00437190 f   z80:op_noprefix.obj
 0001:000361b0       ?op_B7@@YIXPAUZ80@@@Z      004371b0 f   z80:op_noprefix.obj
 0001:000361c0       ?op_B6@@YIXPAUZ80@@@Z      004371c0 f   z80:op_noprefix.obj
 0001:000361f0       ?op_B5@@YIXPAUZ80@@@Z      004371f0 f   z80:op_noprefix.obj
 0001:00036210       ?op_B4@@YIXPAUZ80@@@Z      00437210 f   z80:op_noprefix.obj
 0001:00036230       ?op_B3@@YIXPAUZ80@@@Z      00437230 f   z80:op_noprefix.obj
 0001:00036250       ?op_B2@@YIXPAUZ80@@@Z      00437250 f   z80:op_noprefix.obj
 0001:00036270       ?op_B1@@YIXPAUZ80@@@Z      00437270 f   z80:op_noprefix.obj
 0001:00036290       ?op_B0@@YIXPAUZ80@@@Z      00437290 f   z80:op_noprefix.obj
 0001:000362b0       ?op_AE@@YIXPAUZ80@@@Z      004372b0 f   z80:op_noprefix.obj
 0001:000362e0       ?op_AD@@YIXPAUZ80@@@Z      004372e0 f   z80:op_noprefix.obj
 0001:00036300       ?op_AC@@YIXPAUZ80@@@Z      00437300 f   z80:op_noprefix.obj
 0001:00036320       ?op_AB@@YIXPAUZ80@@@Z      00437320 f   z80:op_noprefix.obj
 0001:00036340       ?op_AA@@YIXPAUZ80@@@Z      00437340 f   z80:op_noprefix.obj
 0001:00036360       ?op_A9@@YIXPAUZ80@@@Z      00437360 f   z80:op_noprefix.obj
 0001:00036380       ?op_A8@@YIXPAUZ80@@@Z      00437380 f   z80:op_noprefix.obj
 0001:000363a0       ?op_A7@@YIXPAUZ80@@@Z      004373a0 f   z80:op_noprefix.obj
 0001:000363c0       ?op_A6@@YIXPAUZ80@@@Z      004373c0 f   z80:op_noprefix.obj
 0001:000363f0       ?op_A5@@YIXPAUZ80@@@Z      004373f0 f   z80:op_noprefix.obj
 0001:00036410       ?op_A4@@YIXPAUZ80@@@Z      00437410 f   z80:op_noprefix.obj
 0001:00036430       ?op_A3@@YIXPAUZ80@@@Z      00437430 f   z80:op_noprefix.obj
 0001:00036450       ?op_A2@@YIXPAUZ80@@@Z      00437450 f   z80:op_noprefix.obj
 0001:00036470       ?op_A1@@YIXPAUZ80@@@Z      00437470 f   z80:op_noprefix.obj
 0001:00036490       ?op_A0@@YIXPAUZ80@@@Z      00437490 f   z80:op_noprefix.obj
 0001:000364b0       ?op_9F@@YIXPAUZ80@@@Z      004374b0 f   z80:op_noprefix.obj
 0001:000364f0       ?op_9E@@YIXPAUZ80@@@Z      004374f0 f   z80:op_noprefix.obj
 0001:00036540       ?op_9D@@YIXPAUZ80@@@Z      00437540 f   z80:op_noprefix.obj
 0001:00036580       ?op_9C@@YIXPAUZ80@@@Z      00437580 f   z80:op_noprefix.obj
 0001:000365c0       ?op_9B@@YIXPAUZ80@@@Z      004375c0 f   z80:op_noprefix.obj
 0001:00036600       ?op_9A@@YIXPAUZ80@@@Z      00437600 f   z80:op_noprefix.obj
 0001:00036640       ?op_99@@YIXPAUZ80@@@Z      00437640 f   z80:op_noprefix.obj
 0001:00036680       ?op_98@@YIXPAUZ80@@@Z      00437680 f   z80:op_noprefix.obj
 0001:000366c0       ?op_96@@YIXPAUZ80@@@Z      004376c0 f   z80:op_noprefix.obj
 0001:00036700       ?op_95@@YIXPAUZ80@@@Z      00437700 f   z80:op_noprefix.obj
 0001:00036730       ?op_94@@YIXPAUZ80@@@Z      00437730 f   z80:op_noprefix.obj
 0001:00036760       ?op_93@@YIXPAUZ80@@@Z      00437760 f   z80:op_noprefix.obj
 0001:00036790       ?op_92@@YIXPAUZ80@@@Z      00437790 f   z80:op_noprefix.obj
 0001:000367c0       ?op_91@@YIXPAUZ80@@@Z      004377c0 f   z80:op_noprefix.obj
 0001:000367f0       ?op_90@@YIXPAUZ80@@@Z      004377f0 f   z80:op_noprefix.obj
 0001:00036820       ?op_8F@@YIXPAUZ80@@@Z      00437820 f   z80:op_noprefix.obj
 0001:00036860       ?op_8E@@YIXPAUZ80@@@Z      00437860 f   z80:op_noprefix.obj
 0001:000368b0       ?op_8D@@YIXPAUZ80@@@Z      004378b0 f   z80:op_noprefix.obj
 0001:000368f0       ?op_8C@@YIXPAUZ80@@@Z      004378f0 f   z80:op_noprefix.obj
 0001:00036930       ?op_8B@@YIXPAUZ80@@@Z      00437930 f   z80:op_noprefix.obj
 0001:00036970       ?op_8A@@YIXPAUZ80@@@Z      00437970 f   z80:op_noprefix.obj
 0001:000369b0       ?op_89@@YIXPAUZ80@@@Z      004379b0 f   z80:op_noprefix.obj
 0001:000369f0       ?op_88@@YIXPAUZ80@@@Z      004379f0 f   z80:op_noprefix.obj
 0001:00036a30       ?op_87@@YIXPAUZ80@@@Z      00437a30 f   z80:op_noprefix.obj
 0001:00036a50       ?op_86@@YIXPAUZ80@@@Z      00437a50 f   z80:op_noprefix.obj
 0001:00036a90       ?op_85@@YIXPAUZ80@@@Z      00437a90 f   z80:op_noprefix.obj
 0001:00036ac0       ?op_84@@YIXPAUZ80@@@Z      00437ac0 f   z80:op_noprefix.obj
 0001:00036af0       ?op_83@@YIXPAUZ80@@@Z      00437af0 f   z80:op_noprefix.obj
 0001:00036b20       ?op_82@@YIXPAUZ80@@@Z      00437b20 f   z80:op_noprefix.obj
 0001:00036b50       ?op_81@@YIXPAUZ80@@@Z      00437b50 f   z80:op_noprefix.obj
 0001:00036b80       ?op_80@@YIXPAUZ80@@@Z      00437b80 f   z80:op_noprefix.obj
 0001:00036bb0       ?op_3D@@YIXPAUZ80@@@Z      00437bb0 f   z80:op_noprefix.obj
 0001:00036bd0       ?op_3C@@YIXPAUZ80@@@Z      00437bd0 f   z80:op_noprefix.obj
 0001:00036bf0       ?op_35@@YIXPAUZ80@@@Z      00437bf0 f   z80:op_noprefix.obj
 0001:00036c30       ?op_34@@YIXPAUZ80@@@Z      00437c30 f   z80:op_noprefix.obj
 0001:00036c70       ?op_2D@@YIXPAUZ80@@@Z      00437c70 f   z80:op_noprefix.obj
 0001:00036c90       ?op_2C@@YIXPAUZ80@@@Z      00437c90 f   z80:op_noprefix.obj
 0001:00036cb0       ?op_25@@YIXPAUZ80@@@Z      00437cb0 f   z80:op_noprefix.obj
 0001:00036cd0       ?op_24@@YIXPAUZ80@@@Z      00437cd0 f   z80:op_noprefix.obj
 0001:00036cf0       ?op_1D@@YIXPAUZ80@@@Z      00437cf0 f   z80:op_noprefix.obj
 0001:00036d10       ?op_1C@@YIXPAUZ80@@@Z      00437d10 f   z80:op_noprefix.obj
 0001:00036d30       ?op_15@@YIXPAUZ80@@@Z      00437d30 f   z80:op_noprefix.obj
 0001:00036d50       ?op_14@@YIXPAUZ80@@@Z      00437d50 f   z80:op_noprefix.obj
 0001:00036d70       ?op_0D@@YIXPAUZ80@@@Z      00437d70 f   z80:op_noprefix.obj
 0001:00036d90       ?op_0C@@YIXPAUZ80@@@Z      00437d90 f   z80:op_noprefix.obj
 0001:00036db0       ?op_05@@YIXPAUZ80@@@Z      00437db0 f   z80:op_noprefix.obj
 0001:00036dd0       ?op_04@@YIXPAUZ80@@@Z      00437dd0 f   z80:op_noprefix.obj
 0001:00036df0       ?reset@SNDCOUNTER@@QAEXXZ  00437df0 f   snd:sndcounter.obj
 0001:00036e00       ?end@SNDCOUNTER@@QAEXAAI0@Z 00437e00 f   snd:sndcounter.obj
 0001:00036e20       ?count@SNDCOUNTER@@QAEXAAVSNDRENDER@@@Z 00437e20 f   snd:sndcounter.obj
 0001:00036e40       ?begin@SNDCOUNTER@@QAEXXZ  00437e40 f   snd:sndcounter.obj
 0001:00036f80       ?set_timings@TSaa1099@@QAEXIII@Z 00437f80 f   snd:saa1099.obj
 0001:00037020       ?start_frame@TSaa1099@@QAEXI@Z 00438020 f   snd:saa1099.obj
 0001:00037050       ?WrCtl@TSaa1099@@QAEXE@Z   00438050 f   snd:saa1099.obj
 0001:000370a0       ?update@TSaa1099@@AAEXI@Z  004380a0 f   snd:saa1099.obj
 0001:00037420       ?flush@TSaa1099@@AAEXI@Z   00438420 f   snd:saa1099.obj
 0001:00037450       ?end_frame@TSaa1099@@QAEII@Z 00438450 f   snd:saa1099.obj
 0001:00037500       ?WrData@TSaa1099@@QAEXIE@Z 00438500 f   snd:saa1099.obj
 0001:00037870       ??0TSaa1099@@QAE@XZ        00438870 f   snd:saa1099.obj
 0001:000378f0       ?reset@TSaa1099@@QAEXI@Z   004388f0 f   snd:saa1099.obj
 0001:00037910       ?set_volumes@SNDCHIP@@QAEXIPBUSNDCHIP_VOLTAB@@PBUSNDCHIP_PANTAB@@@Z 00438910 f   snd:sndchip.obj
 0001:00037a10       ?read@SNDCHIP@@QAEEXZ      00438a10 f   snd:sndchip.obj
 0001:00037a30       ?select@SNDCHIP@@QAEXE@Z   00438a30 f   snd:sndchip.obj
 0001:00037a50       ?start_frame@SNDCHIP@@QAEXI@Z 00438a50 f   snd:sndchip.obj
 0001:00037a70       ?flush@SNDCHIP@@AAEXI@Z    00438a70 f   snd:sndchip.obj
 0001:00037db0       ?end_frame@SNDCHIP@@QAEII@Z 00438db0 f   snd:sndchip.obj
 0001:00037e40       ?write@SNDCHIP@@QAEXIE@Z   00438e40 f   snd:sndchip.obj
 0001:00038140       ?render@SNDCHIP@@QAEIPAUAYOUT@@III@Z 00439140 f   snd:sndchip.obj
 0001:000381b0       ?apply_regs@SNDCHIP@@AAEXI@Z 004391b0 f   snd:sndchip.obj
 0001:00038210       ?reset@SNDCHIP@@QAEXI@Z    00439210 f   snd:sndchip.obj
 0001:00038250       ?set_timings@SNDCHIP@@QAEXIII@Z 00439250 f   snd:sndchip.obj
 0001:000383d0       ??0SNDCHIP@@QAE@XZ         004393d0 f   snd:sndchip.obj
 0001:000384a0       ?flush@SNDRENDER@@AAEXI@Z  004394a0 f   snd:sndrender.obj
 0001:000386d0       ?set_timings@SNDRENDER@@QAEXII@Z 004396d0 f   snd:sndrender.obj
 0001:00038710       ?end_frame@SNDRENDER@@QAEII@Z 00439710 f   snd:sndrender.obj
 0001:000387a0       ?update@SNDRENDER@@QAEXIII@Z 004397a0 f   snd:sndrender.obj
 0001:000387f0       ?start_frame@SNDRENDER@@QAEXI@Z 004397f0 f   snd:sndrender.obj
 0001:00038810       ?render@SNDRENDER@@QAEIPAUSNDOUT@@III@Z 00439810 f   snd:sndrender.obj
 0001:000388a0       ??0SNDRENDER@@QAE@XZ       004398a0 f   snd:sndrender.obj
 0001:00038950       ?scanhex@@YAHPAPAE@Z       00439950 f   z80asm.obj
 0001:000389d0       ?getindex@@YAHPAPAEPADIH@Z 004399d0 f   z80asm.obj
 0001:00038a60       ?z80scanr8@@YAHPAPAE0@Z    00439a60 f   z80asm.obj
 0001:00038b20       ?disasm_address@@YAXPADID@Z 00439b20 f   z80asm.obj
 0001:00038c00       ?assemble@@YAHI@Z          00439c00 f   z80asm.obj
 0001:00039160       ?disasm@@YAPAEPAEID@Z      0043a160 f   z80asm.obj
 0001:00039860       ?assemble_cmd@@YAHPAEI@Z   0043a860 f   z80asm.obj
 0001:00039a50       ?write_trd@FDD@@QAEHPAU_iobuf@@@Z 0043aa50 f   wldr_trd.obj
 0001:00039b10       ?addfile@FDD@@QAEHPAE0@Z   0043ab10 f   wldr_trd.obj
 0001:00039cd0       ?addboot@FDD@@QAEXXZ       0043acd0 f   wldr_trd.obj
 0001:00039e60       ?format_trd@FDD@@QAEXXZ    0043ae60 f   wldr_trd.obj
 0001:00039ef0       ?read_trd@FDD@@QAEHXZ      0043aef0 f   wldr_trd.obj
 0001:00039f60       ?emptydisk@FDD@@QAEXXZ     0043af60 f   wldr_trd.obj
 0001:0003a020       ?read_hob@FDD@@QAEHXZ      0043b020 f   wldr_trd.obj
 0001:0003a050       ?read_scl@FDD@@QAEHXZ      0043b050 f   wldr_trd.obj
 0001:0003a150       ?reconst@@YAXXZ            0043b150 f   wldr_td0.obj
 0001:0003a290       ?StartHuff@@YAXXZ          0043b290 f   wldr_td0.obj
 0001:0003a370       ?readChar@@YAHXZ           0043b370 f   wldr_td0.obj
 0001:0003a390       ?update@@YAXH@Z            0043b390 f   wldr_td0.obj
 0001:0003a470       ?GetByte@@YAHXZ            0043b470 f   wldr_td0.obj
 0001:0003a510       ?GetBit@@YAHXZ             0043b510 f   wldr_td0.obj
 0001:0003a5a0       ?DecodePosition@@YAHXZ     0043b5a0 f   wldr_td0.obj
 0001:0003a5e0       ?DecodeChar@@YAHXZ         0043b5e0 f   wldr_td0.obj
 0001:0003a620       ?write_td0@FDD@@QAEHPAU_iobuf@@@Z 0043b620 f   wldr_td0.obj
 0001:0003a930       ?unpack_lzh@@YAIPAEI0@Z    0043b930 f   wldr_td0.obj
 0001:0003aa80       ?read_td0@FDD@@QAEHXZ      0043ba80 f   wldr_td0.obj
 0001:0003adf0       ?get_sector@TRKCACHE@@QBEPBUSECHDR@@I@Z 0043bdf0 f   wd93trk.obj
 0001:0003ae30       ?dump@TRKCACHE@@QAEXXZ     0043be30 f   wd93trk.obj
 0001:0003af00       ?write_sector@TRKCACHE@@QAEHIPAE@Z 0043bf00 f   wd93trk.obj
 0001:0003af80       ?seek@TRKCACHE@@QAEXPAUFDD@@IIW4SEEK_MODE@@@Z 0043bf80 f   wd93trk.obj
 0001:0003b1f0       ?format@TRKCACHE@@QAEXXZ   0043c1f0 f   wd93trk.obj
 0001:0003b4a0       ?index@FDD@@QAEHXZ         0043c4a0 f   wd93dat.obj
 0001:0003b4c0       ?free@FDD@@QAEXXZ          0043c4c0 f   wd93dat.obj
 0001:0003b570       ?newdisk@FDD@@QAEXII@Z     0043c570 f   wd93dat.obj
 0001:0003b630       ?test@FDD@@QAEDXZ          0043c630 f   wd93dat.obj
 0001:0003b6f0       ?done_fdd@@YA_N_N@Z        0043c6f0 f   wd93dat.obj
 0001:0003b730       ?read@FDD@@QAEHE@Z         0043c730 f   wd93dat.obj
 0001:0003b7b0       ?crc32@@YAXAAHPAEI@Z       0043c7b0 f   wd93crc.obj
 0001:0003b800       ?crc16@@YAGPAEI@Z          0043c800 f   wd93crc.obj
 0001:0003b840       ?wd93_crc@@YAIPAEI@Z       0043c840 f   wd93crc.obj
 0001:0003b880       ?getindex@WD1793@@QAEXXZ   0043c880 f   wd93cmd.obj
 0001:0003b8e0       ?notready@WD1793@@QAEDXZ   0043c8e0 f   wd93cmd.obj
 0001:0003b930       ?load@WD1793@@QAEXXZ       0043c930 f   wd93cmd.obj
 0001:0003b950       ?find_marker@WD1793@@QAEXXZ 0043c950 f   wd93cmd.obj
 0001:0003bb30       ?trdos_traps@WD1793@@QAEXXZ 0043cb30 f   wd93cmd.obj
 0001:0003bdf0       ?process@WD1793@@QAEXXZ    0043cdf0 f   wd93cmd.obj
 0001:0003ca90       ?out@WD1793@@QAEXEE@Z      0043da90 f   wd93cmd.obj
 0001:0003cca0       ?in@WD1793@@QAEEE@Z        0043dca0 f   wd93cmd.obj
 0001:0003cd20       ?State2Str@TVs1001@@CAPBDW4TState@1@@Z 0043dd20 f   vs1001.obj
 0001:0003cd90       ?StreamSeek@TVs1001@@AAEH_K@Z 0043dd90 f   vs1001.obj
 0001:0003cda0       ?StreamLen@TVs1001@@AAE_KXZ 0043dda0 f   vs1001.obj
 0001:0003cdb0       ?Thread@TVs1001@@AAEXXZ    0043ddb0 f   vs1001.obj
 0001:0003cdd0       ?Play@TVs1001@@QAEXXZ      0043ddd0 f   vs1001.obj
 0001:0003cdf0       ?GetDecodeTime@TVs1001@@AAEGXZ 0043ddf0 f   vs1001.obj
 0001:0003ce50       ?SetVol@TVs1001@@AAEXG@Z   0043de50 f   vs1001.obj
 0001:0003cf60       ?Rd@TVs1001@@AAEGH@Z       0043df60 f   vs1001.obj
 0001:0003cfb0       ?Rd@TVs1001@@QAEEXZ        0043dfb0 f   vs1001.obj
 0001:0003d040       ?SetNcs@TVs1001@@QAEX_N@Z  0043e040 f   vs1001.obj
 0001:0003d060       ?StreamClose@TVs1001@@AAEXXZ 0043e060 f   vs1001.obj
 0001:0003d070       ?Get@TRingBuffer@@QAEKPAXK@Z 0043e070 f   vs1001.obj
 0001:0003d1b0       ?Put@TRingBuffer@@QAEXE@Z  0043e1b0 f   vs1001.obj
 0001:0003d230       ?Reset@TRingBuffer@@QAEXXZ 0043e230 f   vs1001.obj
 0001:0003d270       ?StreamRead@TVs1001@@AAEKPAXK@Z 0043e270 f   vs1001.obj
 0001:0003d290       ?ShutDown@TVs1001@@QAEXXZ  0043e290 f   vs1001.obj
 0001:0003d2f0       ?SoftReset@TVs1001@@AAEXXZ 0043e2f0 f   vs1001.obj
 0001:0003d3f0       ?Wr@TVs1001@@QAEXE@Z       0043e3f0 f   vs1001.obj
 0001:0003d420       ?Wr@TVs1001@@AAEXHG@Z      0043e420 f   vs1001.obj
 0001:0003d490       ?Reset@TVs1001@@QAEXXZ     0043e490 f   vs1001.obj
 0001:0003d570       ??0TVs1001@@QAE@XZ         0043e570 f   vs1001.obj
 0001:0003d5c0       ?WrCmd@TVs1001@@QAEXE@Z    0043e5c0 f   vs1001.obj
 0001:0003d6b0       ?SwitchCpu@TCpuMgr@@SAXXZ  0043e6b0 f   vars.obj
 0001:0003d6c0       ?CheckNextFrame@TGsZ80@@UAEXXZ 0043e6c0 f   vars.obj
 0001:0003d700       ?IntVec@TGsZ80@@UAEEXZ     0043e700 f   vars.obj
 0001:0003d710       ?CheckNextFrame@TMainZ80@@UAEXXZ 0043e710 f   vars.obj
 0001:0003d760       ?retn@TMainZ80@@UAEXXZ     0043e760 f   vars.obj
 0001:0003d770       ?IntVec@TMainZ80@@UAEEXZ   0043e770 f   vars.obj
 0001:0003d790       ?m1_cycle@TMainZ80@@UAEEXZ 0043e790 f   vars.obj
 0001:0003d7b0       ?DirectMem@TMainZ80@@UBEPAEI@Z 0043e7b0 f   vars.obj
 0001:0003d7d0       ?out@TMainZ80@@UAEXIE@Z    0043e7d0 f   vars.obj
 0001:0003d7f0       ?in@TMainZ80@@UAEEI@Z      0043e7f0 f   vars.obj
 0001:0003d810       ?color@@YAXH@Z             0043e810 f   util.obj
 0001:0003d830       ?dump1@@YAXPAEI@Z          0043e830 f   util.obj
 0001:0003d900       ?wcmatch@@YA_NPAD0@Z       0043e900 f   util.obj
 0001:0003d970       ?dispatch_more@@YADPAUaction@@@Z 0043e970 f   util.obj
 0001:0003da60       ?hex@@YAED@Z               0043ea60 f   util.obj
 0001:0003da80       ?ishex@@YAHD@Z             0043ea80 f   util.obj
 0001:0003dac0       ?trim@@YAXPAD@Z            0043eac0 f   util.obj
 0001:0003db50       ?errmsg@@YAXPBD0@Z         0043eb50 f   util.obj
 0001:0003dbb0       ?err_win32@@YAXK@Z         0043ebb0 f   util.obj
 0001:0003dca0       ?hex@@YAEPBD@Z             0043eca0 f   util.obj
 0001:0003dcf0       ?GetCPUFrequency@@YA_KXZ   0043ecf0 f   util.obj
 0001:0003ddd0       ?cpuid@@YAIIH@Z            0043edd0 f   util.obj
 0001:0003de00       ?fillCpuString@@YAXPAD@Z   0043ee00 f   util.obj
 0001:0003def0       ?process_msgs@@YAIXZ       0043eef0 f   util.obj
 0001:0003e220       ?eat@@YAXXZ                0043f220 f   util.obj
 0001:0003e260       ?errexit@@YAXPBD0@Z        0043f260 f   util.obj
 0001:0003e280       ?dispatch@@YADPAUaction@@@Z 0043f280 f   util.obj
 0001:0003e2c0       ?alloc_infocell@@YAXXZ     0043f2c0 f   tape.obj
 0001:0003e300       ?desc@@YAXPAEIPAD@Z        0043f300 f   tape.obj
 0001:0003e4c0       ?reserve@@YAXI@Z           0043f4c0 f   tape.obj
 0001:0003e510       ?closetape@@YAXXZ          0043f510 f   tape.obj
 0001:0003e580       ?start_tape@@YAXXZ         0043f580 f   tape.obj
 0001:0003e630       ?reset_tape@@YAXXZ         0043f630 f   tape.obj
 0001:0003e660       ?find_tape_sizes@@YAXXZ    0043f660 f   tape.obj
 0001:0003e720       ?find_tape_index@@YAXXZ    0043f720 f   tape.obj
 0001:0003e780       ?named_cell@@YAXPBXI@Z     0043f780 f   tape.obj
 0001:0003e800       ?stop_tape@@YAXXZ          0043f800 f   tape.obj
 0001:0003e870       ?find_pulse@@YAII@Z        0043f870 f   tape.obj
 0001:0003e950       ?tape_traps@@YAXXZ         0043f950 f   tape.obj
 0001:0003eb00       ?tape_bit@@YAEXZ           0043fb00 f   tape.obj
 0001:0003ec40       ?parse_hardware@@YAXPAE@Z  0043fc40 f   tape.obj
 0001:0003ee70       ?create_appendable_block@@YAXXZ 0043fe70 f   tape.obj
 0001:0003eea0       ?readCSW@@YAHXZ            0043fea0 f   tape.obj
 0001:0003eff0       ?makeblock@@YAXPAEIIIIIIIIE@Z 0043fff0 f   tape.obj
 0001:0003f1c0       ?fast_tape@@YAXXZ          004401c0 f   tape.obj
 0001:0003f530       ?readTZX@@YAHXZ            00440530 f   tape.obj
 0001:000401d0       ?readTAP@@YAHXZ            004411d0 f   tape.obj
 0001:00040320       ?PngDone@@YAXXZ            00441320 f   sshot_png.obj
 0001:00040340       ?PngInit@@YA_NXZ           00441340 f   sshot_png.obj
 0001:00040490       ?PngSaveImage@@YAHPAU_iobuf@@PAEHHUpng_color_struct@@@Z 00441490 f   sshot_png.obj
 0001:000405c0       ?flush_dig_snd@@YAXXZ      004415c0 f   sound.obj
 0001:00040660       ?init_snd_frame@@YAXXZ     00441660 f   sound.obj
 0001:00040730       ?restart_sound@@YAXXZ      00441730 f   sound.obj
 0001:00040850       ?apply_sound@@YAXXZ        00441850 f   sound.obj
 0001:00040970       ?flush_snd_frame@@YAXXZ    00441970 f   sound.obj
 0001:00040cc0       ?Unload@BASS@@YAXXZ        00441cc0 f   snd_bass.obj
 0001:00040cf0       ?Load@BASS@@YAXXZ          00441cf0 f   snd_bass.obj
 0001:000410f0       ?SaveBmp@@YAXPAU_iobuf@@PAE@Z 004420f0 f   snapshot.obj
 0001:00041170       ?ConvBgr32ToBgr24@@YAXPAE0H@Z 00442170 f   snapshot.obj
 0001:000411e0       ?ConvYuy2ToBgr24@@YAXPAE0H@Z 004421e0 f   snapshot.obj
 0001:00041360       ?ConvRgb16ToBgr24@@YAXPAE0H@Z 00442360 f   snapshot.obj
 0001:000413d0       ?ConvRgb15ToBgr24@@YAXPAE0H@Z 004423d0 f   snapshot.obj
 0001:00041440       ?ConvPal8ToBgr24@@YAXPAE0H@Z 00442440 f   snapshot.obj
 0001:00041550       ?filename_ok@@YA_NPAD@Z    00442550 f   snapshot.obj
 0001:00041590       ?ArcDlg@@YGHPAUHWND__@@IIJ@Z 00442590 f   snapshot.obj
 0001:000416b0       ?unpack_page@@YAXPAEH0H@Z  004426b0 f   snapshot.obj
 0001:00041720       ?SavePng@@YAXPAU_iobuf@@PAE@Z 00442720 f   snapshot.obj
 0001:00041770       ?readZ80@@YAHXZ            00442770 f   snapshot.obj
 0001:00041b00       ?writeSNA@@YAHPAU_iobuf@@@Z 00442b00 f   snapshot.obj
 0001:00041d50       ?readSP@@YAHXZ             00442d50 f   snapshot.obj
 0001:00041eb0       ?readSNA48@@YAHXZ          00442eb0 f   snapshot.obj
 0001:00042030       ?readSNA128@@YAHXZ         00443030 f   snapshot.obj
 0001:00042200       ?what_is@@YAEPAD@Z         00443200 f   snapshot.obj
 0001:00042650       ?main_scrshot@@YAXXZ       00443650 f   snapshot.obj
 0001:000427d0       ?main_savevideo@@YAXXZ     004437d0 f   snapshot.obj
 0001:00042840       ?load_arc@@YAHPAD@Z        00443840 f   snapshot.obj
 0001:00042d50       ?savesnap@@YAXH@Z          00443d50 f   snapshot.obj
 0001:000432f0       ?loadsnap@@YAHPAD@Z        004442f0 f   snapshot.obj
 0001:00043640       ?opensnap@@YAXH@Z          00444640 f   snapshot.obj
 0001:000438d0       ?Close@TSdCard@@QAEXXZ     004448d0 f   sdcard.obj
 0001:000438f0       ?GetRespondType@TSdCard@@AAE?AW4TState@1@XZ 004448f0 f   sdcard.obj
 0001:00043990       ?Rd@TSdCard@@QAEEXZ        00444990 f   sdcard.obj
 0001:00043c10       ?Wr@TSdCard@@QAEXE@Z       00444c10 f   sdcard.obj
 0001:00043ee0       ?Reset@TSdCard@@QAEXXZ     00444ee0 f   sdcard.obj
 0001:00043f70       ?Open@TSdCard@@QAEXPBD@Z   00444f70 f   sdcard.obj
 0001:00043fc0       ?VtxDlg@@YGHPAUHWND__@@IIJ@Z 00444fc0 f   savesnd.obj
 0001:00044180       ?silence@@YA_NI@Z          00445180 f   savesnd.obj
 0001:000441b0       ?dopoke@@YAHH@Z            004451b0 f   savesnd.obj
 0001:000442d0       ?pokedlg@@YGHPAUHWND__@@IIJ@Z 004452d0 f   savesnd.obj
 0001:000443c0       ?savesnddialog@@YAXXZ      004453c0 f   savesnd.obj
 0001:00044a50       ?OnResize@FILEPREVIEWINFO@@QAEXXZ 00445a50 f   opendlg.obj
 0001:00044a90       ?Preview@FILEPREVIEWINFO@@QAEXPAE@Z 00445a90 f   opendlg.obj
 0001:00044be0       ?PreviewSCL@FILEPREVIEWINFO@@QAEXPAD@Z 00445be0 f   opendlg.obj
 0001:00044d30       ?PreviewTRD@FILEPREVIEWINFO@@QAEXPAD@Z 00445d30 f   opendlg.obj
 0001:00044db0       ?OnChange@FILEPREVIEWINFO@@QAEXXZ 00445db0 f   opendlg.obj
 0001:00044e70       ?PreviewDlgProc@@YGIPAUHWND__@@IIJ@Z 00445e70 f   opendlg.obj
 0001:00045000       ?GetSnapshotFileName@@YAHPAUtagOFNA@@H@Z 00446000 f   opendlg.obj
 0001:000450d0       ?setup_int@ISA_MODEM@@QAEXXZ 004460d0 f   modem.obj
 0001:00045120       ?io@ISA_MODEM@@QAEXXZ      00446120 f   modem.obj
 0001:00045280       ?close@ISA_MODEM@@QAEXXZ   00446280 f   modem.obj
 0001:000452b0       ?read@ISA_MODEM@@QAEEI@Z   004462b0 f   modem.obj
 0001:00045360       ?write@ISA_MODEM@@QAEXIE@Z 00446360 f   modem.obj
 0001:00045510       ?open@ISA_MODEM@@QAEXH@Z   00446510 f   modem.obj
 0001:00045620       ?write@NVRAM@@QAEXE@Z      00446620 f   memory.obj
 0001:000457e0       ?cmos_write@@YAXE@Z        004467e0 f   memory.obj
 0001:00045810       ?cmosBCD@@YAEE@Z           00446810 f   memory.obj
 0001:00045840       ?set_banks@@YAXXZ          00446840 f   memory.obj
 0001:00046120       ?cmos_read@@YAEXZ          00447120 f   memory.obj
 0001:00046290       ?set_mode@@YAXW4ROM_MODE@@@Z 00447290 f   memory.obj
 0001:00046350       ?set_scorp_profrom@@YAXI@Z 00447350 f   memory.obj
 0001:000463c0       ?do_idle@@YAXXZ            004473c0 f   mainloop.obj
 0001:00046490       ?spectrum_frame@@YAXXZ     00447490 f   mainloop.obj
 0001:000465e0       ?mainloop@@YAXAB_N@Z       004475e0 f   mainloop.obj
 0001:000467f0       ?done_leds@@YAXXZ          004477f0 f   leds.obj
 0001:00046820       ?init_leds@@YAXXZ          00447820 f   leds.obj
 0001:00046870       ?input_led@@YAXXZ          00447870 f   leds.obj
 0001:00046a80       ?paint_led@@YAXIE@Z        00447a80 f   leds.obj
 0001:00046b20       ?text_i@@YAXPAEPBDEI@Z     00447b20 f   leds.obj
 0001:00046d30       ?time_led@@YAXXZ           00447d30 f   leds.obj
 0001:00046db0       ?key_led@@YAXXZ            00447db0 f   leds.obj
 0001:00046ef0       ?ay_kbd@@YAXXZ             00447ef0 f   leds.obj
 0001:00046f90       ?show_mband@@YAXPAEI@Z     00447f90 f   leds.obj
 0001:00047280       ?perf_led@@YAXXZ           00448280 f   leds.obj
 0001:000473a0       ?load_led@@YAXXZ           004483a0 f   leds.obj
 0001:000477a0       ?ay_led@@YAXXZ             004487a0 f   leds.obj
 0001:00048000       ?memband_led@@YAXXZ        00449000 f   leds.obj
 0001:000480a0       ?debug_led@@YAXXZ          004490a0 f   leds.obj
 0001:00048330       ?showleds@@YAXXZ           00449330 f   leds.obj
 0001:00048460       ?clear@ATM_KBD@@QAEXXZ     00449460 f   input.obj
 0001:00048470       ?processzx@ATM_KBD@@QAEXIE@Z 00449470 f   input.obj
 0001:000484e0       ?paste@K_INPUT@@QAEXXZ     004494e0 f   input.obj
 0001:00048590       ?read_quorum@K_INPUT@@QAEEE@Z 00449590 f   input.obj
 0001:000485c0       ?kempston_my@K_INPUT@@QAEEXZ 004495c0 f   input.obj
 0001:000485f0       ?kempston_mx@K_INPUT@@QAEEXZ 004495f0 f   input.obj
 0001:00048620       ?aymouse_wr@K_INPUT@@QAEXE@Z 00449620 f   input.obj
 0001:00048660       ?clear_zx@K_INPUT@@QAEXXZ  00449660 f   input.obj
 0001:00048670       ?reset@ATM_KBD@@QAEXXZ     00449670 f   input.obj
 0001:00048690       ?setkey@ATM_KBD@@QAEXIE@Z  00449690 f   input.obj
 0001:000487c0       ?aymouse_rd@K_INPUT@@QAEEXZ 004497c0 f   input.obj
 0001:00048870       ?process_pc_layout@K_INPUT@@QAE_NXZ 00449870 f   input.obj
 0001:00048900       ?read@ATM_KBD@@QAEEEE@Z    00449900 f   input.obj
 0001:00048da0       ?read@K_INPUT@@QAEEE@Z     00449da0 f   input.obj
 0001:00048df0       ?make_matrix@K_INPUT@@QAEXXZ 00449df0 f   input.obj
 0001:000491b0       ?readdevices@K_INPUT@@QAEDXZ 0044a1b0 f   input.obj
 0001:000494f0       ?restrict_version@@YAXD@Z  0044a4f0 f   init.obj
 0001:00049510       ?cpu_info@@YAXXZ           0044a510 f   init.obj
 0001:000496b0       ?exit@@YAXXZ               0044a6b0 f   init.obj
 0001:00049840       ?init_all@@YAXHPAPAD@Z     0044a840 f   init.obj
 0001:00049ae0       ?done_ie_help@@YAXXZ       0044aae0 f   iehelp.obj
 0001:00049b20       ?init_ie_help@@YAXXZ       0044ab20 f   iehelp.obj
 0001:00049b30       ?showhelppp@@YAXPBD@Z      0044ab30 f   iehelp.obj
 0001:00049f40       ?done_aspi@@YAXXZ          0044af40 f   hddio.obj
 0001:00049f60       ?SEND_ASPI_CMD@ATAPI_PASSER@@QAEHPAXH@Z 0044af60 f   hddio.obj
 0001:0004a070       ?swap_bytes@@YAXPADPAEI@Z  0044b070 f   hddio.obj
 0001:0004a0c0       ?make_ata_string@@YAXPAEIPBD@Z 0044b0c0 f   hddio.obj
 0001:0004a120       ?seek@ATAPI_PASSER@@QAE_NI@Z 0044b120 f   hddio.obj
 0001:0004a170       ?read_sector@ATAPI_PASSER@@QAE_NPAE@Z 0044b170 f   hddio.obj
 0001:0004a1c0       ?SEND_SPTI_CMD@ATAPI_PASSER@@QAEHPAXH@Z 0044b1c0 f   hddio.obj
 0001:0004a2b0       ?pass_through@ATAPI_PASSER@@QAEHPAXH@Z 0044b2b0 f   hddio.obj
 0001:0004a2e0       ?close@ATAPI_PASSER@@QAEXXZ 0044b2e0 f   hddio.obj
 0001:0004a310       ?open@ATAPI_PASSER@@QAEKPAUPHYS_DEVICE@@@Z 0044b310 f   hddio.obj
 0001:0004a380       ?write_sector@ATA_PASSER@@QAE_NPAE@Z 0044b380 f   hddio.obj
 0001:0004a390       ?read_sector@ATA_PASSER@@QAE_NPAE@Z 0044b390 f   hddio.obj
 0001:0004a3e0       ?seek@ATA_PASSER@@QAE_NI@Z 0044b3e0 f   hddio.obj
 0001:0004a430       ?get_hdd_count@ATA_PASSER@@SAIXZ 0044b430 f   hddio.obj
 0001:0004a510       ?close@ATA_PASSER@@QAEXXZ  0044b510 f   hddio.obj
 0001:0004a590       ?open@ATA_PASSER@@QAEKPAUPHYS_DEVICE@@@Z 0044b590 f   hddio.obj
 0001:0004a860       ?print_device_name@@YAXPADPAUPHYS_DEVICE@@@Z 0044b860 f   hddio.obj
 0001:0004a930       ?read_atapi_id@ATAPI_PASSER@@QAEHPAED@Z 0044b930 f   hddio.obj
 0001:0004ab90       ?identify@ATA_PASSER@@SAIPAUPHYS_DEVICE@@H@Z 0044bb90 f   hddio.obj
 0001:0004aee0       ?init_aspi@@YAXXZ          0044bee0 f   hddio.obj
 0001:0004af90       ?identify@ATAPI_PASSER@@SAIPAUPHYS_DEVICE@@H@Z 0044bf90 f   hddio.obj
 0001:0004b3d0       ?prepare_id@ATA_DEVICE@@QAEXXZ 0044c3d0 f   hdd.obj
 0001:0004b530       ?recalibrate@ATA_DEVICE@@QAEXXZ 0044c530 f   hdd.obj
 0001:0004b550       ?next_sector@ATA_DEVICE@@QAEXXZ 0044c550 f   hdd.obj
 0001:0004b5b0       ?seek@ATA_DEVICE@@QAEDXZ   0044c5b0 f   hdd.obj
 0001:0004b630       ?command_ok@ATA_DEVICE@@QAEXXZ 0044c630 f   hdd.obj
 0001:0004b650       ?reset_signature@ATA_DEVICE@@QAEXW4RESET_TYPE@1@@Z 0044c650 f   hdd.obj
 0001:0004b6a0       ?delstr_spaces@@YAXPAD0@Z  0044c6a0 f   hdd.obj
 0001:0004b6c0       ?handle_atapi_packet_emulate@ATA_DEVICE@@QAEXXZ 0044c6c0 f   hdd.obj
 0001:0004b9c0       ?verify_sectors@ATA_DEVICE@@QAEXXZ 0044c9c0 f   hdd.obj
 0001:0004baf0       ?read_sectors@ATA_DEVICE@@QAEXXZ 0044caf0 f   hdd.obj
 0001:0004bb80       ?write_sectors@ATA_DEVICE@@QAEXXZ 0044cb80 f   hdd.obj
 0001:0004bc10       ?format_track@ATA_DEVICE@@QAEXXZ 0044cc10 f   hdd.obj
 0001:0004bc40       ?exec_ata_cmd@ATA_DEVICE@@QAEDE@Z 0044cc40 f   hdd.obj
 0001:0004be20       ?reset@ATA_DEVICE@@QAEXW4RESET_TYPE@1@@Z 0044ce20 f   hdd.obj
 0001:0004be90       ?reset@ATA_PORT@@QAEXXZ    0044ce90 f   hdd.obj
 0001:0004bf50       ?find_hdd_device@@YAIPAD@Z 0044cf50 f   hdd.obj
 0001:0004c010       ?handle_atapi_packet@ATA_DEVICE@@QAEXXZ 0044d010 f   hdd.obj
 0001:0004c170       ?write_data@ATA_DEVICE@@QAEXI@Z 0044d170 f   hdd.obj
 0001:0004c1e0       ?exec_atapi_cmd@ATA_DEVICE@@QAEDE@Z 0044d1e0 f   hdd.obj
 0001:0004c290       ?read_data@ATA_DEVICE@@QAEIXZ 0044d290 f   hdd.obj
 0001:0004c320       ?read@ATA_DEVICE@@QAEEI@Z  0044d320 f   hdd.obj
 0001:0004c370       ?read_intrq@ATA_DEVICE@@QAEEXZ 0044d370 f   hdd.obj
 0001:0004c3b0       ?read_intrq@ATA_PORT@@QAEEXZ 0044d3b0 f   hdd.obj
 0001:0004c450       ?write_data@ATA_PORT@@QAEXI@Z 0044d450 f   hdd.obj
 0001:0004c470       ?read_data@ATA_PORT@@QAEIXZ 0044d470 f   hdd.obj
 0001:0004c490       ?read@ATA_PORT@@QAEEI@Z    0044d490 f   hdd.obj
 0001:0004c560       ?configure@ATA_DEVICE@@QAEXPAUIDE_CONFIG@@@Z 0044d560 f   hdd.obj
 0001:0004c740       ?write@ATA_DEVICE@@QAEXIE@Z 0044d740 f   hdd.obj
 0001:0004c840       ?write@ATA_PORT@@QAEXIE@Z  0044d840 f   hdd.obj
 0001:0004c870       ?init_hdd_cd@@YAXXZ        0044d870 f   hdd.obj
 0001:0004c8f0       ?GetModemPort@@YAHPAUHWND__@@@Z 0044d8f0 f   gui.obj
 0001:0004c980       ?SelectModem@@YAXPAUHWND__@@@Z 0044d980 f   gui.obj
 0001:0004ca70       ?FillModemList@@YAXPAUHWND__@@@Z 0044da70 f   gui.obj
 0001:0004cc50       ?HddDlg_show_size@@YAXII@Z 0044dc50 f   gui.obj
 0001:0004cd40       ?HddDlg_set_active@@YAXXZ  0044dd40 f   gui.obj
 0001:0004cdf0       ?setint@@YAXIH@Z           0044ddf0 f   gui.obj
 0001:0004ce50       ?getint@@YAHI@Z            0044de50 f   gui.obj
 0001:0004cea0       ?MemDlg_set_visible@@YAXXZ 0044dea0 f   gui.obj
 0001:0004cf80       ?MemDlg_get_bigrom@@YAPADXZ 0044df80 f   gui.obj
 0001:0004cff0       ?getcheck@@YAEI@Z          0044dff0 f   gui.obj
 0001:0004d010       ?setcheck@@YAXIE@Z         0044e010 f   gui.obj
 0001:0004d030       ?LedsDlg@@YGHPAUHWND__@@IIJ@Z 0044e030 f   gui.obj
 0001:0004d4a0       ?InputDlg@@YGHPAUHWND__@@IIJ@Z 0044e4a0 f   gui.obj
 0001:0004dca0       ?TapeDlg@@YGHPAUHWND__@@IIJ@Z 0044eca0 f   gui.obj
 0001:0004ddd0       ?SoundDlg@@YGHPAUHWND__@@IIJ@Z 0044edd0 f   gui.obj
 0001:0004e1d0       ?fir_dlg@@YGHPAUHWND__@@IIJ@Z 0044f1d0 f   gui.obj
 0001:0004e3e0       ?ChipDlg@@YGHPAUHWND__@@IIJ@Z 0044f3e0 f   gui.obj
 0001:0004e710       ?EFF7Dlg@@YGHPAUHWND__@@IIJ@Z 0044f710 f   gui.obj
 0001:0004e840       ?HddDlg_show_info@@YAXH@Z  0044f840 f   gui.obj
 0001:0004e9f0       ?UlaDlg@@YGHPAUHWND__@@IIJ@Z 0044f9f0 f   gui.obj
 0001:0004f0c0       ?mem_set_sizes@@YAXXZ      004500c0 f   gui.obj
 0001:0004f390       ?select_romfile@@YADPAD@Z  00450390 f   gui.obj
 0001:0004f490       ?HddDlg_select_image@@YAXH@Z 00450490 f   gui.obj
 0001:0004f7c0       ?change_rombank@@YAXHH@Z   004507c0 f   gui.obj
 0001:0004fa20       ?compare_rset@@YADPAD@Z    00450a20 f   gui.obj
 0001:0004fae0       ?HddDlg@@YGHPAUHWND__@@IIJ@Z 00450ae0 f   gui.obj
 0001:0004ffc0       ?find_romset@@YAXXZ        00450fc0 f   gui.obj
 0001:00050030       ?change_rompage@@YAXHH@Z   00451030 f   gui.obj
 0001:00050140       ?reload_roms@@YAXXZ        00451140 f   gui.obj
 0001:000501f0       ?MemDlg@@YGHPAUHWND__@@IIJ@Z 004511f0 f   gui.obj
 0001:000508d0       ?VideoDlg@@YGHPAUHWND__@@IIJ@Z 004518d0 f   gui.obj
 0001:00051230       ?BetaDlg@@YGHPAUHWND__@@IIJ@Z 00452230 f   gui.obj
 0001:00051860       ?setup_dlg@@YAXXZ          00452860 f   gui.obj
 0001:00051b40       ?SetLastT@z80gs@@YAXXZ     00452b40 f   gsz80.obj
 0001:00051b60       ?delta@z80gs@@YA_JXZ       00452b60 f   gsz80.obj
 0001:00051c70       ?BankNames@z80gs@@YAXHPAD@Z 00452c70 f   gsz80.obj
 0001:00051e40       ?apply_gs@z80gs@@YAXXZ     00452e40 f   gsz80.obj
 0001:00051e90       ?retn@TGsZ80@@UAEXXZ       00452e90 f   gsz80.obj
 0001:00051ea0       ?m1_cycle@TGsZ80@@UAEEXZ   00452ea0 f   gsz80.obj
 0001:00051ec0       ?DirectMem@TGsZ80@@UBEPAEI@Z 00452ec0 f   gsz80.obj
 0001:00051ee0       ?DbgWm@z80gs@@YIXKE@Z      00452ee0 f   gsz80.obj
 0001:00051f20       ?Wm@z80gs@@YIXKE@Z         00452f20 f   gsz80.obj
 0001:00051f60       ?nmi@z80gs@@YAXXZ          00452f60 f   gsz80.obj
 0001:00052010       ?dbgwm@z80gs@@YIXKE@Z      00453010 f   gsz80.obj
 0001:00052030       ?MemDbg@z80gs@@YIPAEK@Z    00453030 f   gsz80.obj
 0001:00052050       ?z80loop@z80fast@z80gs@@YAXXZ 00453050 f   gsz80.obj
 0001:000522d0       ?init_gs_frame@z80gs@@YAXXZ 004532d0 f   gsz80.obj
 0001:00052340       ?reset@z80gs@@YAXXZ        00453340 f   gsz80.obj
 0001:00052420       ?step@z80gs@@YIXXZ         00453420 f   gsz80.obj
 0001:00052460       ?in@z80gs@@YAEI@Z          00453460 f   gsz80.obj
 0001:00052610       ?in@TGsZ80@@UAEEI@Z        00453610 f   gsz80.obj
 0001:00052620       ?DbgRm@z80gs@@YIEK@Z       00453620 f   gsz80.obj
 0001:00052690       ?Rm@z80gs@@YIEK@Z          00453690 f   gsz80.obj
 0001:000526e0       ?out@z80gs@@YAXIE@Z        004536e0 f   gsz80.obj
 0001:00052980       ?dbgrm@z80gs@@YIEK@Z       00453980 f   gsz80.obj
 0001:000529f0       ?out@TGsZ80@@UAEXIE@Z      004539f0 f   gsz80.obj
 0001:00052a10       ?z80loop@z80dbg@z80gs@@YAXXZ 00453a10 f   gsz80.obj
 0001:00052c30       ?flush_gs_z80@z80gs@@YAXXZ 00453c30 f   gsz80.obj
 0001:00052c70       ?in_gs@z80gs@@YAEI@Z       00453c70 f   gsz80.obj
 0001:00052ce0       ?out_gs@z80gs@@YAXIE@Z     00453ce0 f   gsz80.obj
 0001:00052db0       ?flush_gs_frame@z80gs@@YAXXZ 00453db0 f   gsz80.obj
 0001:00052e10       ?gs_render@@YGKKPAXK0@Z    00453e10 f   gshle.obj
 0001:00052ea0       ?in@GSHLE@@QAEEE@Z         00453ea0 f   gshle.obj
 0001:00052ed0       ?set_busy@GSHLE@@QAEXE@Z   00453ed0 f   gshle.obj
 0001:00052ef0       ?start_fx@GSHLE@@QAEXIIEE@Z 00453ef0 f   gshle.obj
 0001:00053050       ?out@GSHLE@@QAEXEE@Z       00454050 f   gshle.obj
 0001:00053760       ?applyconfig@GSHLE@@QAEXXZ 00454760 f   gshle.obj
 0001:00053800       ?reset@GSHLE@@QAEXXZ       00454800 f   gshle.obj
 0001:000538c0       ?flush_gs_frame@GSHLE@@QAEXXZ 004548c0 f   gshlbass.obj
 0001:00053960       ?resetmod@GSHLE@@QAEXXZ    00454960 f   gshlbass.obj
 0001:00053980       ?reset_sound@GSHLE@@QAEXXZ 00454980 f   gshlbass.obj
 0001:00053990       ?reportError@GSHLE@@QAEXPBD@Z 00454990 f   gshlbass.obj
 0001:000539e0       ?restart_mod@GSHLE@@QAEXII@Z 004549e0 f   gshlbass.obj
 0001:00053a60       ?initChannels@GSHLE@@QAEXXZ 00454a60 f   gshlbass.obj
 0001:00053ab0       ?runBASS@GSHLE@@QAEXXZ     00454ab0 f   gshlbass.obj
 0001:00053bd0       ?startfx@GSHLE@@QAEXPAUCHANNEL@1@M@Z 00454bd0 f   gshlbass.obj
 0001:00053c90       ?cont_mod@GSHLE@@QAEXXZ    00454c90 f   gshlbass.obj
 0001:00053cc0       ?stop_mod@GSHLE@@QAEXXZ    00454cc0 f   gshlbass.obj
 0001:00053d00       ?modgetpos@GSHLE@@QAEKXZ   00454d00 f   gshlbass.obj
 0001:00053d20       ?resetfx@GSHLE@@QAEXXZ     00454d20 f   gshlbass.obj
 0001:00053d60       ?init_mod@GSHLE@@QAEXXZ    00454d60 f   gshlbass.obj
 0001:00053dc0       ?setmodvol@GSHLE@@QAEXI@Z  00454dc0 f   gshlbass.obj
 0001:00053e40       ?debug_note@GSHLE@@QAEXI@Z 00454e40 f   gshlbass.obj
 0001:00053f40       ?reset_gs_sound@@YAXXZ     00454f40 f   gs.obj
 0001:00053fa0       ?make_gs_volume@@YAXI@Z    00454fa0 f   gs.obj
 0001:00053fd0       ?init_gs_frame@@YAXXZ      00454fd0 f   gs.obj
 0001:00053fe0       ?done_gs@@YAXXZ            00454fe0 f   gs.obj
 0001:00054010       ?apply_gs@@YAXXZ           00455010 f   gs.obj
 0001:00054080       ?reset_gs@@YAXXZ           00455080 f   gs.obj
 0001:000540b0       ?init_gs@@YAXXZ            004550b0 f   gs.obj
 0001:00054120       ?flush_gs_frame@@YAXXZ     00455120 f   gs.obj
 0001:00054140       ?out_gs@@YAXEE@Z           00455140 f   gs.obj
 0001:00054170       ?in_gs@@YAEE@Z             00455170 f   gs.obj
 0001:000541c0       ?save_font@@YAXXZ          004551c0 f   fntsrch.obj
 0001:000543f0       ?set_data@@YAXPAUHWND__@@@Z 004553f0 f   fntsrch.obj
 0001:000544b0       ?create_maps@@YAXXZ        004554b0 f   fntsrch.obj
 0001:00054560       ?kill_pattern@@YAXIII@Z    00455560 f   fntsrch.obj
 0001:000546a0       ?paint_font@@YAXPAUHWND__@@H@Z 004556a0 f   fntsrch.obj
 0001:00054a10       ?update_rmask@@YAXXZ       00455a10 f   fntsrch.obj
 0001:00054bf0       ?kill_raw@@YAIIII@Z        00455bf0 f   fntsrch.obj
 0001:00054c60       ?get_ranges@@YAXPAUHWND__@@@Z 00455c60 f   fntsrch.obj
 0001:00054dc0       ?FontFromFile@@YAXPAUHWND__@@@Z 00455dc0 f   fntsrch.obj
 0001:00054ef0       ?count_lnk@@YAII@Z         00455ef0 f   fntsrch.obj
 0001:00055010       ?linked_empties@@YAII@Z    00456010 f   fntsrch.obj
 0001:000550e0       ?linked_cells@@YAII@Z      004560e0 f   fntsrch.obj
 0001:000551b0       ?is_font@@YAEXZ            004561b0 f   fntsrch.obj
 0001:00055790       ?fnt_search@@YAXPAUHWND__@@@Z 00456790 f   fntsrch.obj
 0001:000558c0       ?fonts_dlg@@YGHPAUHWND__@@IIJ@Z 004568c0 f   fntsrch.obj
 0001:00055c70       ?font_setup@@YAXPAUHWND__@@@Z 00456c70 f   fntsrch.obj
 0001:00055c90       ?ss_register_entry@@YAXPBDH0HPAXI@Z 00456c90 f   emul_2203.obj
 0001:000561c0       ?refresh_fc_eg_slot@@YAXPAUFM_SLOT@@HH@Z 004571c0 f   emul_2203.obj
 0001:00056260       ?op_calc1@@YAHIIH@Z        00457260 f   emul_2203.obj
 0001:00056290       ?op_calc@@YAHIIH@Z         00457290 f   emul_2203.obj
 0001:000562d0       ?set_sl_rr@@YAXPAUFM_SLOT@@H@Z 004572d0 f   emul_2203.obj
 0001:00056310       ?set_sr@@YAXPAUFM_SLOT@@H@Z 00457310 f   emul_2203.obj
 0001:00056340       ?set_dr@@YAXPAUFM_SLOT@@H@Z 00457340 f   emul_2203.obj
 0001:00056370       ?set_ar_ksr@@YAXPAUFM_CH@@PAUFM_SLOT@@H@Z 00457370 f   emul_2203.obj
 0001:000563d0       ?set_tl@@YAXPAUFM_CH@@PAUFM_SLOT@@H@Z 004573d0 f   emul_2203.obj
 0001:000563e0       ?set_det_mul@@YAXPAUFM_ST@@PAUFM_CH@@PAUFM_SLOT@@H@Z 004573e0 f   emul_2203.obj
 0001:000565a0       ?FM_KEYOFF@@YAXPAUFM_CH@@H@Z 004575a0 f   emul_2203.obj
 0001:000565c0       ?FM_KEYON@@YAXPAUFM_CH@@H@Z 004575c0 f   emul_2203.obj
 0001:000565f0       ?FM_BUSY_SET@@YAXPAUFM_ST@@H@Z 004575f0 f   emul_2203.obj
 0001:00056610       ?FM_STATUS_FLAG@@YAEPAUFM_ST@@@Z 00457610 f   emul_2203.obj
 0001:00056640       ?FM_STATUS_RESET@@YAXPAUFM_ST@@H@Z 00457640 f   emul_2203.obj
 0001:00056650       ?FM_STATUS_SET@@YAXPAUFM_ST@@H@Z 00457650 f   emul_2203.obj
 0001:00056660       ?YM2203Read@@YAEPAXH@Z     00457660 f   emul_2203.obj
 0001:000566a0       ?YM2203Shutdown@@YAXPAX@Z  004576a0 f   emul_2203.obj
 0001:00056a80       ?state_save_register_float@@YAXPBDH0PAMI@Z 00457a80 f   emul_2203.obj
 0001:00056b10       ?state_save_register_double@@YAXPBDH0PANI@Z 00457b10 f   emul_2203.obj
 0001:00056b80       ?state_save_register_int@@YAXPBDH0PAH@Z 00457b80 f   emul_2203.obj
 0001:00056bf0       ?state_save_register_INT32@@YAXPBDH0PAHI@Z 00457bf0 f   emul_2203.obj
 0001:00056c80       ?state_save_register_UINT32@@YAXPBDH0PAII@Z 00457c80 f   emul_2203.obj
 0001:00056d10       ?state_save_register_INT16@@YAXPBDH0PAFI@Z 00457d10 f   emul_2203.obj
 0001:00056d30       ?state_save_register_UINT16@@YAXPBDH0PAGI@Z 00457d30 f   emul_2203.obj
 0001:00056dc0       ?state_save_register_INT8@@YAXPBDH0PACI@Z 00457dc0 f   emul_2203.obj
 0001:00056de0       ?state_save_register_UINT8@@YAXPBDH0PAEI@Z 00457de0 f   emul_2203.obj
 0001:00056e00       ?CSMKeyControll@@YAXPAUFM_CH@@@Z 00457e00 f   emul_2203.obj
 0001:00056ea0       ?refresh_fc_eg_chan@@YAXPAUFM_CH@@@Z 00457ea0 f   emul_2203.obj
 0001:00056ef0       ?chan_calc@@YAXPAUFM_OPN@@PAUFM_CH@@@Z 00457ef0 f   emul_2203.obj
 0001:000570e0       ?TimerBOver@@YAXPAUFM_ST@@@Z 004580e0 f   emul_2203.obj
 0001:00057110       ?TimerAOver@@YAXPAUFM_ST@@@Z 00458110 f   emul_2203.obj
 0001:00057140       ?set_timers@@YAXPAUFM_ST@@PAXH@Z 00458140 f   emul_2203.obj
 0001:000571d0       ?FM_IRQMASK_SET@@YAXPAUFM_ST@@H@Z 004581d0 f   emul_2203.obj
 0001:00057200       ?YM2203TimerOver@@YAHPAXH@Z 00458200 f   emul_2203.obj
 0001:000572b0       ?YM2203UpdateOne@@YAXPAXPAFH@Z 004582b0 f   emul_2203.obj
 0001:000574f0       ?OPNPrescaler_w@@YAXPAUFM_OPN@@HH@Z 004584f0 f   emul_2203.obj
 0001:00057c20       ?YM2203Write@@YAHPAXHE@Z   00458c20 f   emul_2203.obj
 0001:00057cb0       ?YM2203_save_state@@YAXPAXH@Z 00458cb0 f   emul_2203.obj
 0001:00057ea0       ?YM2203Postload@@YAXPAX@Z  00458ea0 f   emul_2203.obj
 0001:00057f40       ?YM2203ResetChip@@YAXPAX@Z 00458f40 f   emul_2203.obj
 0001:00058000       ?YM2203Init@@YAPAXPAXHHH@Z 00459000 f   emul_2203.obj
 0001:00058070       ?wnd_resize@@YAXH@Z        00459070 f   emulkeys.obj
 0001:00058180       ?main_pastetext@@YAXXZ     00459180 f   emulkeys.obj
 0001:00058190       ?main_atmkbd@@YAXXZ        00459190 f   emulkeys.obj
 0001:000581c0       ?main_autofire@@YAXXZ      004591c0 f   emulkeys.obj
 0001:00058200       ?main_keystick@@YAXXZ      00459200 f   emulkeys.obj
 0001:00058270       ?filterdlg@@YGHPAUHWND__@@IIJ@Z 00459270 f   emulkeys.obj
 0001:000584c0       ?main_leds@@YAXXZ          004594c0 f   emulkeys.obj
 0001:00058500       ?main_sizem@@YAXXZ         00459500 f   emulkeys.obj
 0001:00058540       ?main_size2@@YAXXZ         00459540 f   emulkeys.obj
 0001:00058550       ?main_size1@@YAXXZ         00459550 f   emulkeys.obj
 0001:00058560       ?main_mouse@@YAXXZ         00459560 f   emulkeys.obj
 0001:00058630       ?m_nmi@@YAXW4ROM_MODE@@@Z  00459630 f   emulkeys.obj
 0001:00058710       ?main_starttape@@YAXXZ     00459710 f   emulkeys.obj
 0001:00058730       ?main_debug@@YAXXZ         00459730 f   emulkeys.obj
 0001:00058760       ?qsave3@@YAXXZ             00459760 f   emulkeys.obj
 0001:00058770       ?qsave2@@YAXXZ             00459770 f   emulkeys.obj
 0001:00058780       ?qsave1@@YAXXZ             00459780 f   emulkeys.obj
 0001:00058790       ?main_nmicache@@YAXXZ      00459790 f   emulkeys.obj
 0001:00058830       ?main_nmidos@@YAXXZ        00459830 f   emulkeys.obj
 0001:00058870       ?main_nmi@@YAXXZ           00459870 f   emulkeys.obj
 0001:00058920       ?savesnap@@YAXXZ           00459920 f   emulkeys.obj
 0001:00058990       ?main_save@@YAXXZ          00459990 f   emulkeys.obj
 0001:00058a10       ?main_poke@@YAXXZ          00459a10 f   emulkeys.obj
 0001:00058a90       ?main_maxspeed@@YAXXZ      00459a90 f   emulkeys.obj
 0001:00058b40       ?correct_exit@@YAXXZ       00459b40 f   emulkeys.obj
 0001:00058b90       ?main_fullscr@@YAXXZ       00459b90 f   emulkeys.obj
 0001:00058bd0       ?main_selectdriver@@YAXXZ  00459bd0 f   emulkeys.obj
 0001:00058cc0       ?main_selectfilter@@YAXXZ  00459cc0 f   emulkeys.obj
 0001:00058d70       ?main_pause@@YAXXZ         00459d70 f   emulkeys.obj
 0001:00058e30       ?mon_help@@YAXXZ           00459e30 f   emulkeys.obj
 0001:00058e70       ?main_help@@YAXXZ          00459e70 f   emulkeys.obj
 0001:00058ea0       ?chfix@@YAXH@Z             00459ea0 f   emulkeys.obj
 0001:00059130       ?main_decfix10@@YAXXZ      0045a130 f   emulkeys.obj
 0001:00059140       ?main_incfix10@@YAXXZ      0045a140 f   emulkeys.obj
 0001:00059150       ?main_decfix@@YAXXZ        0045a150 f   emulkeys.obj
 0001:00059160       ?main_incfix@@YAXXZ        0045a160 f   emulkeys.obj
 0001:00059170       ?main_selectsnd@@YAXXZ     0045a170 f   emulkeys.obj
 0001:000591a0       ?main_selectfix@@YAXXZ     0045a1a0 f   emulkeys.obj
 0001:00059200       ?opensnap@@YAXXZ           0045a200 f   emulkeys.obj
 0001:00059270       ?qload3@@YAXXZ             0045a270 f   emulkeys.obj
 0001:00059280       ?qload2@@YAXXZ             0045a280 f   emulkeys.obj
 0001:00059290       ?qload1@@YAXXZ             0045a290 f   emulkeys.obj
 0001:000592a0       ?main_tapebrowser@@YAXXZ   0045a2a0 f   emulkeys.obj
 0001:000592b0       ?m_reset@@YAXW4ROM_MODE@@@Z 0045a2b0 f   emulkeys.obj
 0001:00059330       ?main_reset@@YAXXZ         0045a330 f   emulkeys.obj
 0001:00059340       ?main_resetcache@@YAXXZ    0045a340 f   emulkeys.obj
 0001:00059390       ?main_resetdos@@YAXXZ      0045a390 f   emulkeys.obj
 0001:000593e0       ?main_resetbas@@YAXXZ      0045a3e0 f   emulkeys.obj
 0001:00059420       ?main_reset48@@YAXXZ       0045a420 f   emulkeys.obj
 0001:00059470       ?main_resetsys@@YAXXZ      0045a470 f   emulkeys.obj
 0001:000594b0       ?main_reset128@@YAXXZ      0045a4b0 f   emulkeys.obj
 0001:000594f0       ?alloc_table@@YAPAXAAPAPAXPAX@Z 0045a4f0 f   dxr_text.obj
 0001:00059530       ?line_a64_32@@YAXPAE0QAPAEI@Z 0045a530 f   dxr_text.obj
 0001:00059700       ?line_a64_16@@YAXPAE0QAPAEI@Z 0045a700 f   dxr_text.obj
 0001:00059850       ?line_a64_8@@YAXPAE0QAPAEI@Z 0045a850 f   dxr_text.obj
 0001:00059b60       ?detect_scroll@@YAIPAE@Z   0045ab60 f   dxr_text.obj
 0001:00059c50       ?rend_anti64_32d@@YAXPAEI0I@Z 0045ac50 f   dxr_text.obj
 0001:00059da0       ?rend_anti64_32s@@YAXPAEI0I@Z 0045ada0 f   dxr_text.obj
 0001:00059eb0       ?rend_anti64_16d@@YAXPAEI0I@Z 0045aeb0 f   dxr_text.obj
 0001:0005a000       ?rend_anti64_16s@@YAXPAEI0I@Z 0045b000 f   dxr_text.obj
 0001:0005a100       ?rend_anti64_8d@@YAXPAEI0I@Z 0045b100 f   dxr_text.obj
 0001:0005a250       ?rend_anti64_8s@@YAXPAEI0I@Z 0045b250 f   dxr_text.obj
 0001:0005a350       ?render_text@@YIXPAEI@Z    0045b350 f   dxr_text.obj
 0001:0005a4d0       ?create_font_tables@@YAXXZ 0045b4d0 f   dxr_text.obj
 0001:0005a740       ?gcd@@YAIII@Z              0045b740 f   dxr_rsm.obj
 0001:0005a760       ?prepare_line_8@RSM_DATA@@QAEXPAE@Z 0045b760 f   dxr_rsm.obj
 0001:0005a890       ?prepare_line_16@RSM_DATA@@QAEXPAE@Z 0045b890 f   dxr_rsm.obj
 0001:0005a9b0       ?prepare_line_32@RSM_DATA@@QAEXPAE@Z 0045b9b0 f   dxr_rsm.obj
 0001:0005ab40       ?lcm@@YAIII@Z              0045bb40 f   dxr_rsm.obj
 0001:0005ab60       ?rend_rsm_32@@YAXPAEI0@Z   0045bb60 f   dxr_rsm.obj
 0001:0005abe0       ?rend_rsm_16o@@YAXPAEI0@Z  0045bbe0 f   dxr_rsm.obj
 0001:0005ac60       ?rend_rsm_16@@YAXPAEI0@Z   0045bc60 f   dxr_rsm.obj
 0001:0005adb0       ?rend_rsm_8@@YAXPAEI0@Z    0045bdb0 f   dxr_rsm.obj
 0001:0005ae30       ?render_rsm@@YIXPAEI@Z     0045be30 f   dxr_rsm.obj
 0001:0005aec0       ?calc_rsm_tables@@YAXXZ    0045bec0 f   dxr_rsm.obj
 0001:0005b4f0       ?line32_prof@@YAXPAE0PAI@Z 0045c4f0 f   dxr_prof.obj
 0001:0005b610       ?line16_prof@@YAXPAE0PAI@Z 0045c610 f   dxr_prof.obj
 0001:0005b8a0       ?line8_prof@@YAXPAE0PAI@Z  0045c8a0 f   dxr_prof.obj
 0001:0005ba50       ?r_profi_32d@@YAXPAEI0@Z   0045ca50 f   dxr_prof.obj
 0001:0005bac0       ?r_profi_32@@YAXPAEI0@Z    0045cac0 f   dxr_prof.obj
 0001:0005bb20       ?r_profi_16d@@YAXPAEI0@Z   0045cb20 f   dxr_prof.obj
 0001:0005bb90       ?r_profi_16@@YAXPAEI0@Z    0045cb90 f   dxr_prof.obj
 0001:0005bbf0       ?r_profi_8d@@YAXPAEI0@Z    0045cbf0 f   dxr_prof.obj
 0001:0005bc60       ?r_profi_8@@YAXPAEI0@Z     0045cc60 f   dxr_prof.obj
 0001:0005bcc0       ?rend_profi@@YAXPAEI@Z     0045ccc0 f   dxr_prof.obj
 0001:0005bde0       ?line_atm7_32@@YAXPAE0PAI0H@Z 0045cde0 f   dxr_atm7.obj
 0001:0005c040       ?line_atm7_16@@YAXPAE0PAI0H@Z 0045d040 f   dxr_atm7.obj
 0001:0005c360       ?line_atm7_8@@YAXPAE0PAI0H@Z 0045d360 f   dxr_atm7.obj
 0001:0005c590       ?rend_atm7@@YAXPAEIHH@Z    0045d590 f   dxr_atm7.obj
 0001:0005c770       ?line_atm6_32@@YAXPAE0PAI0H@Z 0045d770 f   dxr_atm6.obj
 0001:0005c9c0       ?line_atm6_16@@YAXPAE0PAI0H@Z 0045d9c0 f   dxr_atm6.obj
 0001:0005cce0       ?line_atm6_8@@YAXPAE0PAI0H@Z 0045dce0 f   dxr_atm6.obj
 0001:0005cf10       ?rend_atm6@@YAXPAEIHH@Z    0045df10 f   dxr_atm6.obj
 0001:0005d0f0       ?line_atm2_32@@YAXPAE0PAIH@Z 0045e0f0 f   dxr_atm2.obj
 0001:0005d230       ?line_atm2_16@@YAXPAE0PAIH@Z 0045e230 f   dxr_atm2.obj
 0001:0005d4d0       ?line_atm2_8@@YAXPAE0PAIH@Z 0045e4d0 f   dxr_atm2.obj
 0001:0005d690       ?rend_atm2@@YAXPAEIHH@Z    0045e690 f   dxr_atm2.obj
 0001:0005db70       ?rend_atm0@@YAXPAEIHH@Z    0045eb70 f   dxr_atm0.obj
 0001:0005dce0       ?rend_atm0_small@@YAXPAEIHH@Z 0045ece0 f   dxr_atm0.obj
 0001:0005dd80       ?lines_scale3_32@@YAXIPAEI@Z 0045ed80 f   dxr_advm.obj
 0001:0005df70       ?lines_scale3@@YAXIPAEI@Z  0045ef70 f   dxr_advm.obj
 0001:0005e5c0       ?lines_scale2_32@@YAXPBEIPAE1I@Z 0045f5c0 f   dxr_advm.obj
 0001:0005e670       ?lines_scale2@@YAXPBEIPAE1I@Z 0045f670 f   dxr_advm.obj
 0001:0005e840       ?render_scale4@@YAXPAEI@Z  0045f840 f   dxr_advm.obj
 0001:0005ea00       ?render_scale3_32@@YAXPAEI@Z 0045fa00 f   dxr_advm.obj
 0001:0005eaf0       ?render_scale3@@YAXPAEI@Z  0045faf0 f   dxr_advm.obj
 0001:0005ebd0       ?render_scale2_32@@YAXPAEI@Z 0045fbd0 f   dxr_advm.obj
 0001:0005ecc0       ?render_scale2@@YAXPAEI@Z  0045fcc0 f   dxr_advm.obj
 0001:0005ed90       ?render_advmame@@YIXPAEI@Z 0045fd90 f   dxr_advm.obj
 0001:0005ee30       ?line32_512@@YAXPAE0PAI@Z  0045fe30 f   dxr_512.obj
 0001:0005ef40       ?line16_512@@YAXPAE0PAI@Z  0045ff40 f   dxr_512.obj
 0001:0005f120       ?line8_512@@YAXPAE0PAI@Z   00460120 f   dxr_512.obj
 0001:0005f220       ?r512_32d@@YAXPAEI@Z       00460220 f   dxr_512.obj
 0001:0005f280       ?r512_32s@@YAXPAEI@Z       00460280 f   dxr_512.obj
 0001:0005f2c0       ?r512_16d@@YAXPAEI@Z       004602c0 f   dxr_512.obj
 0001:0005f320       ?r512_16s@@YAXPAEI@Z       00460320 f   dxr_512.obj
 0001:0005f360       ?r512_8d@@YAXPAEI@Z        00460360 f   dxr_512.obj
 0001:0005f3c0       ?r512_8s@@YAXPAEI@Z        004603c0 f   dxr_512.obj
 0001:0005f400       ?rend_512@@YAXPAEI@Z       00460400 f   dxr_512.obj
 0001:00060230       ?rend_p4bpp@@YAXPAEI@Z     00461230 f   dxr_4bpp.obj
 0001:00060380       ?rend_p4bpp_small@@YAXPAEI@Z 00461380 f   dxr_4bpp.obj
 0001:00060490       ?gdi_frame@@YAXXZ          00461490 f   dxrframe.obj
 0001:000605c0       ?_render_black@@YAXPAEI@Z  004615c0 f   dxrframe.obj
 0001:00060630       ?rend_frame_32d@@YAXPAEI@Z 00461630 f   dxrframe.obj
 0001:000607b0       ?rend_frame_32d1@@YAXPAEI@Z 004617b0 f   dxrframe.obj
 0001:000608d0       ?rend_frame32@@YAXPAEI@Z   004618d0 f   dxrframe.obj
 0001:000609f0       ?rend_frame_16d@@YAXPAEI@Z 004619f0 f   dxrframe.obj
 0001:00060b60       ?rend_frame_16d1@@YAXPAEI@Z 00461b60 f   dxrframe.obj
 0001:00060c80       ?rend_frame16@@YAXPAEI@Z   00461c80 f   dxrframe.obj
 0001:00060d70       ?rend_frame_8d@@YAXPAEI@Z  00461d70 f   dxrframe.obj
 0001:00060ed0       ?rend_frame_8d1@@YAXPAEI@Z 00461ed0 f   dxrframe.obj
 0001:00060fc0       ?rend_frame8@@YAXPAEI@Z    00461fc0 f   dxrframe.obj
 0001:00061090       ?_render_blt@@YAXPAEI0I@Z  00462090 f   dxrendch.obj
 0001:000610f0       ?get_c4_32@@YAXXZ          004620f0 f   dxrendch.obj
 0001:00061480       ?get_c2_32@@YAXXZ          00462480 f   dxrendch.obj
 0001:000616e0       ?_render_ch_ax@@YIXPAEIP6IX0I@Z1@Z 004626e0 f   dxrendch.obj
 0001:00061810       ?render_c4x32b@@YIXPAEI@Z  00462810 f   dxrendch.obj
 0001:00062590       ?_render_c4x16bl@@YIXPAEI@Z 00463590 f   dxrendch.obj
 0001:00063760       ?_render_c4x16b@@YIXPAEI@Z 00464760 f   dxrendch.obj
 0001:00065d40       ?_render_c2x16bl@@YIXPAEI@Z 00466d40 f   dxrendch.obj
 0001:000665a0       ?_render_c2x16b@@YIXPAEI@Z 004675a0 f   dxrendch.obj
 0001:00067790       ?render_c16b@@YIXPAEI@Z    00468790 f   dxrendch.obj
 0001:000677b0       ?render_c16bl@@YIXPAEI@Z   004687b0 f   dxrendch.obj
 0001:000677d0       ?_render_c4hw@@YIXPAEI@Z   004687d0 f   dxrendch.obj
 0001:00067820       ?_render_c2hw@@YIXPAEI@Z   00468820 f   dxrendch.obj
 0001:00067870       ?_render_c4x16@@YIXPAEI@Z  00468870 f   dxrendch.obj
 0001:000678f0       ?_render_c2x16@@YIXPAEI@Z  004688f0 f   dxrendch.obj
 0001:00067970       ?render_ch_hw@@YIXPAEI@Z   00468970 f   dxrendch.obj
 0001:00067990       ?render_ch_ov@@YIXPAEI@Z   00468990 f   dxrendch.obj
 0001:00067a60       ?render_scale@@YIXPAEI@Z   00468a60 f   dxrend.obj
 0001:00067d50       ?render_tv@@YIXPAEI@Z      00468d50 f   dxrend.obj
 0001:00067f10       ?render_quad@@YIXPAEI@Z    00468f10 f   dxrend.obj
 0001:00067fc0       ?render_3x@@YIXPAEI@Z      00468fc0 f   dxrend.obj
 0001:00068070       ?rend_dbl@@YAXPAEI@Z       00469070 f   dxrend.obj
 0001:00068170       ?rend_small@@YAXPAEI@Z     00469170 f   dxrend.obj
 0001:000681b0       ?render_small@@YIXPAEI@Z   004691b0 f   dxrend.obj
 0001:00068280       ?render_bil@@YIXPAEI@Z     00469280 f   dxrend.obj
 0001:000684f0       ?render_dbl@@YIXPAEI@Z     004694f0 f   dxrend.obj
 0001:00068570       ?line8q_nf@@YAXPAE0PAI@Z   00469570 f   dxrcopy.obj
 0001:00068720       ?line8t_nf@@YAXPAE0PAI@Z   00469720 f   dxrcopy.obj
 0001:00068930       ?line8d_nf@@YAXPAE0PAI@Z   00469930 f   dxrcopy.obj
 0001:00068b10       ?line8q@@YAXPAE0PAI@Z      00469b10 f   dxrcopy.obj
 0001:00068be0       ?line8t@@YAXPAE0PAI@Z      00469be0 f   dxrcopy.obj
 0001:00068cd0       ?line8d@@YAXPAE0PAI@Z      00469cd0 f   dxrcopy.obj
 0001:00068da0       ?line8_nf@@YAXPAE0PAI@Z    00469da0 f   dxrcopy.obj
 0001:00068fb0       ?line8@@YAXPAE0PAI@Z       00469fb0 f   dxrcopy.obj
 0001:000690b0       ?line16t_nf@@YAXPAE0PAI@Z  0046a0b0 f   dxrcopy.obj
 0001:00069530       ?line16t@@YAXPAE0PAI@Z     0046a530 f   dxrcopy.obj
 0001:00069730       ?line16_nf@@YAXPAE0PAI@Z   0046a730 f   dxrcopy.obj
 0001:000698c0       ?line32q@@YAXPAE0PAI@Z     0046a8c0 f   dxrcopy.obj
 0001:000699d0       ?line32t@@YAXPAEPBEPBI@Z   0046a9d0 f   dxrcopy.obj
 0001:00069ac0       ?line32d@@YAXPAE0PAI@Z     0046aac0 f   dxrcopy.obj
 0001:00069c00       ?line32@@YAXPAE0PAI@Z      0046ac00 f   dxrcopy.obj
 0001:00069d20       ?line32q_nf@@YAXPAE0PAI@Z  0046ad20 f   dxrcopy.obj
 0001:00069ec0       ?line32t_nf@@YAXPAE0PAI@Z  0046aec0 f   dxrcopy.obj
 0001:0006a070       ?line32d_nf@@YAXPAE0PAI@Z  0046b070 f   dxrcopy.obj
 0001:0006a230       ?line32_nf@@YAXPAE0PAI@Z   0046b230 f   dxrcopy.obj
 0001:0006a390       ?rend_copy8q_nf@@YAXPAEI@Z 0046b390 f   dxrcopy.obj
 0001:0006a410       ?rend_copy8t_nf@@YAXPAEI@Z 0046b410 f   dxrcopy.obj
 0001:0006a480       ?rend_copy8d_nf@@YAXPAEI@Z 0046b480 f   dxrcopy.obj
 0001:0006a560       ?rend_copy8d1_nf@@YAXPAEI@Z 0046b560 f   dxrcopy.obj
 0001:0006a5b0       ?rend_copy8q@@YAXPAEI@Z    0046b5b0 f   dxrcopy.obj
 0001:0006a630       ?rend_copy8t@@YAXPAEI@Z    0046b630 f   dxrcopy.obj
 0001:0006a6a0       ?rend_copy8d@@YAXPAEI@Z    0046b6a0 f   dxrcopy.obj
 0001:0006a700       ?rend_copy8d1@@YAXPAEI@Z   0046b700 f   dxrcopy.obj
 0001:0006a750       ?rend_copy8_nf@@YIXPAEI@Z  0046b750 f   dxrcopy.obj
 0001:0006a7a0       ?rend_copy8@@YIXPAEI@Z     0046b7a0 f   dxrcopy.obj
 0001:0006a7e0       ?rend_copy16q_nf@@YAXPAEI@Z 0046b7e0 f   dxrcopy.obj
 0001:0006a850       ?rend_copy16t_nf@@YAXPAEI@Z 0046b850 f   dxrcopy.obj
 0001:0006a8c0       ?rend_copy16d_nf@@YAXPAEI@Z 0046b8c0 f   dxrcopy.obj
 0001:0006a9c0       ?rend_copy16d1_nf@@YAXPAEI@Z 0046b9c0 f   dxrcopy.obj
 0001:0006aa10       ?rend_copy16q@@YAXPAEI@Z   0046ba10 f   dxrcopy.obj
 0001:0006aaa0       ?rend_copy16t@@YAXPAEI@Z   0046baa0 f   dxrcopy.obj
 0001:0006ab10       ?rend_copy16d@@YAXPAEI@Z   0046bb10 f   dxrcopy.obj
 0001:0006ab80       ?rend_copy16d1@@YAXPAEI@Z  0046bb80 f   dxrcopy.obj
 0001:0006abd0       ?rend_copy16_nf@@YAXPAEI@Z 0046bbd0 f   dxrcopy.obj
 0001:0006ac20       ?rend_copy16@@YAXPAEI@Z    0046bc20 f   dxrcopy.obj
 0001:0006ac70       ?rend_copy32q@@YAXPAEI@Z   0046bc70 f   dxrcopy.obj
 0001:0006acf0       ?rend_copy32t@@YAXPAEI@Z   0046bcf0 f   dxrcopy.obj
 0001:0006ad60       ?rend_copy32d@@YAXPAEI@Z   0046bd60 f   dxrcopy.obj
 0001:0006ade0       ?rend_copy32d1@@YAXPAEI@Z  0046bde0 f   dxrcopy.obj
 0001:0006ae40       ?rend_copy32q_nf@@YAXPAEI@Z 0046be40 f   dxrcopy.obj
 0001:0006aec0       ?rend_copy32t_nf@@YAXPAEI@Z 0046bec0 f   dxrcopy.obj
 0001:0006af30       ?rend_copy32d_nf@@YAXPAEI@Z 0046bf30 f   dxrcopy.obj
 0001:0006b010       ?rend_copy32d1_nf@@YAXPAEI@Z 0046c010 f   dxrcopy.obj
 0001:0006b050       ?rend_copy32@@YAXPAEI@Z    0046c050 f   dxrcopy.obj
 0001:0006b0a0       ?rend_copy32_nf@@YAXPAEI@Z 0046c0a0 f   dxrcopy.obj
 0001:0006b0f0       ?printrds@@YAXPBDJ@Z       0046c0f0 f   dxerr.obj
 0001:0006b120       ?printrmm@@YAXPBDJ@Z       0046c120 f   dxerr.obj
 0001:0006b230       ?printrdi@@YAXPBDJ@Z       0046c230 f   dxerr.obj
 0001:0006b260       ?printrdd@@YAXPBDJ@Z       0046c260 f   dxerr.obj
 0001:0006b300       ?scale_normal@@YAXXZ       0046c300 f   dx.obj
 0001:0006b350       ?callb@@YGJPAU_DDSURFACEDESC@@PAX@Z 0046c350 f   dx.obj
 0001:0006b3b0       ?SetDIDwordProperty@@YAJPAUIDirectInputDeviceA@@ABU_GUID@@KKK@Z 0046c3b0 f   dx.obj
 0001:0006b3f0       ?trim_right@@YAXPAD@Z      0046c3f0 f   dx.obj
 0001:0006b420       ?updatebitmap@@YAXXZ       0046c420 f   dx.obj
 0001:0006b510       ?adjust_mouse_cursor@@YAXXZ 0046c510 f   dx.obj
 0001:0006b630       ?set_priority@@YAXXZ       0046c630 f   dx.obj
 0001:0006b670       ?restore_sound_buffer@@YAXXZ 0046c670 f   dx.obj
 0001:0006b6c0       ?do_sound_none@@YIXXZ      0046c6c0 f   dx.obj
 0001:0006b750       ?clear_buffer@@YAXXZ       0046c750 f   dx.obj
 0001:0006b800       ?sound_stop@@YAXXZ         0046c800 f   dx.obj
 0001:0006b820       ?done_dx@@YAXXZ            0046c820 f   dx.obj
 0001:0006bb70       ?sound_play@@YAXXZ         0046cb70 f   dx.obj
 0001:0006bb90       ?do_sound@@YAXXZ           0046cb90 f   dx.obj
 0001:0006bcf0       ?InitJoystickInput@@YGHPBUDIDEVICEINSTANCEA@@PAX@Z 0046ccf0 f   dx.obj
 0001:0006c260       ?setpal@@YAXD@Z            0046d260 f   dx.obj
 0001:0006c2e0       ?readdevice@@YAXPAXKPAUIDirectInputDeviceA@@@Z 0046d2e0 f   dx.obj
 0001:0006c380       ?do_sound_ds@@YIXXZ        0046d380 f   dx.obj
 0001:0006c5e0       ?do_sound_wave@@YIXXZ      0046d5e0 f   dx.obj
 0001:0006cc60       ?set_vidmode@@YAXXZ        0046dc60 f   dx.obj
 0001:0006d870       ?ReadKeyboard@@YAXPAX@Z    0046e870 f   dx.obj
 0001:0006d890       ?readmouse@@YAXPAU_DIMOUSESTATE@@@Z 0046e890 f   dx.obj
 0001:0006d8c0       ?WndProc@@YGHPAUHWND__@@IIJ@Z 0046e8c0 f   dx.obj
 0001:0006de10       ?flip@@YAXXZ               0046ee10 f   dx.obj
 0001:0006df00       ?start_dx@@YAXXZ           0046ef00 f   dx.obj
 0001:0006e800       ?draw_alco_256@@YAXXZ      0046f800 f   draw_384.obj
 0001:0006ec50       ?draw_alco_320@@YAXXZ      0046fc50 f   draw_384.obj
 0001:0006f1c0       ?draw_alco_384@@YAXXZ      004701c0 f   draw_384.obj
 0001:0006f540       ?draw_alco@@YAXXZ          00470540 f   draw_384.obj
 0001:0006f570       ?draw_gigascreen_no_border@@YAXXZ 00470570 f   drawnomc.obj
 0001:0006f690       ?draw_border@@YAXXZ        00470690 f   drawnomc.obj
 0001:0006f6c0       ?draw_screen@@YAXXZ        004706c0 f   drawnomc.obj
 0001:0006f840       ?load_spec_colors@@YAXXZ   00470840 f   draw.obj
 0001:0006f870       ?update_screen@@YAXXZ      00470870 f   draw.obj
 0001:0006fa30       ?calc_noflic_16_32@@YAXXZ  00470a30 f   draw.obj
 0001:0006fb30       ?hires_sc_tables@@YAXXZ    00470b30 f   draw.obj
 0001:0006fc30       ?atm_zc_tables@@YAXXZ      00470c30 f   draw.obj
 0001:0006fd80       ?p4bpp_tables@@YAXXZ       00470d80 f   draw.obj
 0001:00070020       ?attr_tables@@YAXXZ        00471020 f   draw.obj
 0001:00070260       ?make_colortab@@YAXD@Z     00471260 f   draw.obj
 0001:00070330       ?create_palette@@YAXXZ     00471330 f   draw.obj
 0001:000705b0       ?getYUY2@@YAIIII@Z         004715b0 f   draw.obj
 0001:000706f0       ?video_permanent_tables@@YAXXZ 004716f0 f   draw.obj
 0001:00070a20       ?PrepareFrameATM1@AtmVideoController@@QAEXH@Z 00471a20 f   draw.obj
 0001:00070a40       ?PrepareFrameATM2@AtmVideoController@@QAEXH@Z 00471a40 f   draw.obj
 0001:00070aa0       ?flush_frame@@YAXXZ        00471aa0 f   draw.obj
 0001:00070b20       ?init_frame@@YAXXZ         00471b20 f   draw.obj
 0001:00070c20       ?raw_data@@YAIIII@Z        00471c20 f   draw.obj
 0001:00070d60       ?paint_scr@@YAXD@Z         00471d60 f   draw.obj
 0001:00070da0       ?atari_to_raw@@YAIII@Z     00471da0 f   draw.obj
 0001:00070e40       ?pixel_tables@@YAXXZ       00471e40 f   draw.obj
 0001:00071210       ?video_timing_tables@@YAXXZ 00472210 f   draw.obj
 0001:00071700       ?video_color_tables@@YAXXZ 00472700 f   draw.obj
 0001:00071960       ?set_video@@YAXXZ          00472960 f   draw.obj
 0001:00071970       ?apply_video@@YAXXZ        00472970 f   draw.obj
 0001:00071a40       ?isbrk@@YAEABUZ80@@@Z      00472a40 f   debug.obj
 0001:00071a90       ?CopyToPrev@TCpuMgr@@SAXXZ 00472a90 f   debug.obj
 0001:00071ae0       ?handle_mouse@@YAXXZ       00472ae0 f   debug.obj
 0001:00071db0       ?debugscr@@YAXXZ           00472db0 f   debug.obj
 0001:00071e20       ?debug@@YAXPAUZ80@@@Z      00472e20 f   debug.obj
 0001:00072050       ?debug_events@@YAXPAUZ80@@@Z 00473050 f   debug.obj
 0001:00072150       ?SetLastT@z80dbg@@YAXXZ    00473150 f   dbgtrace.obj
 0001:00072170       ?mon_step@@YAXXZ           00473170 f   dbgtrace.obj
 0001:000722b0       ?csave@@YAXI@Z             004732b0 f   dbgtrace.obj
 0001:000722e0       ?cdjump@@YAXXZ             004732e0 f   dbgtrace.obj
 0001:00072450       ?pop_pos@@YAXXZ            00473450 f   dbgtrace.obj
 0001:000724b0       ?chere@@YAXXZ              004734b0 f   dbgtrace.obj
 0001:000724e0       ?cright@@YAXXZ             004734e0 f   dbgtrace.obj
 0001:000724f0       ?cleft@@YAXXZ              004734f0 f   dbgtrace.obj
 0001:00072500       ?cdown@@YAXXZ              00473500 f   dbgtrace.obj
 0001:00072550       ?cfindpc@@YAXXZ            00473550 f   dbgtrace.obj
 0001:00072570       ?cbpx@@YAXXZ               00473570 f   dbgtrace.obj
 0001:00072590       ?csetpc@@YAXXZ             00473590 f   dbgtrace.obj
 0001:000725b0       ?push_pos@@YAXXZ           004735b0 f   dbgtrace.obj
 0001:00072600       ?tracewndflags@@YAIXZ      00473600 f   dbgtrace.obj
 0001:000727f0       ?mon_stepover@@YAXXZ       004737f0 f   dbgtrace.obj
 0001:00072850       ?csave8@@YAXXZ             00473850 f   dbgtrace.obj
 0001:00072870       ?csave7@@YAXXZ             00473870 f   dbgtrace.obj
 0001:00072890       ?csave6@@YAXXZ             00473890 f   dbgtrace.obj
 0001:000728b0       ?csave5@@YAXXZ             004738b0 f   dbgtrace.obj
 0001:000728d0       ?csave4@@YAXXZ             004738d0 f   dbgtrace.obj
 0001:000728f0       ?csave3@@YAXXZ             004738f0 f   dbgtrace.obj
 0001:00072910       ?csave2@@YAXXZ             00473910 f   dbgtrace.obj
 0001:00072930       ?csave1@@YAXXZ             00473930 f   dbgtrace.obj
 0001:00072950       ?crest@@YAXI@Z             00473950 f   dbgtrace.obj
 0001:000729c0       ?cjump@@YAXXZ              004739c0 f   dbgtrace.obj
 0001:00072b60       ?cpu_up@@YAII@Z            00473b60 f   dbgtrace.obj
 0001:00072c10       ?disasm_line@@YAHIPAD@Z    00473c10 f   dbgtrace.obj
 0001:00072d80       ?crest8@@YAXXZ             00473d80 f   dbgtrace.obj
 0001:00072d90       ?crest7@@YAXXZ             00473d90 f   dbgtrace.obj
 0001:00072da0       ?crest6@@YAXXZ             00473da0 f   dbgtrace.obj
 0001:00072db0       ?crest5@@YAXXZ             00473db0 f   dbgtrace.obj
 0001:00072dc0       ?crest4@@YAXXZ             00473dc0 f   dbgtrace.obj
 0001:00072dd0       ?crest3@@YAXXZ             00473dd0 f   dbgtrace.obj
 0001:00072de0       ?crest2@@YAXXZ             00473de0 f   dbgtrace.obj
 0001:00072df0       ?crest1@@YAXXZ             00473df0 f   dbgtrace.obj
 0001:00072e00       ?cup@@YAXXZ                00473e00 f   dbgtrace.obj
 0001:00072e80       ?showtrace@@YAXXZ          00473e80 f   dbgtrace.obj
 0001:000732d0       ?cfliplabels@@YAXXZ        004742d0 f   dbgtrace.obj
 0001:000732f0       ?cpgup@@YAXXZ              004742f0 f   dbgtrace.obj
 0001:00073360       ?cpgdn@@YAXXZ              00474360 f   dbgtrace.obj
 0001:000733c0       ?center@@YAXXZ             004743c0 f   dbgtrace.obj
 0001:00073780       ?c_lbl_import@@YAXXZ       00474780 f   dbgtrace.obj
 0001:00073790       ?dispatch_trace@@YADXZ     00474790 f   dbgtrace.obj
 0001:000737b0       ?cgoto@@YAXXZ              004747b0 f   dbgtrace.obj
 0001:00073820       ?cfindcode@@YAXXZ          00474820 f   dbgtrace.obj
 0001:00073860       ?cfindtext@@YAXXZ          00474860 f   dbgtrace.obj
 0001:000738c0       ?read_mem@@YAXXZ           004748c0 f   dbgrwdlg.obj
 0001:00073900       ?write_mem@@YAXXZ          00474900 f   dbgrwdlg.obj
 0001:00073940       ?rw_select_drive@@YADXZ    00474940 f   dbgrwdlg.obj
 0001:000739d0       ?wr_trdos_file@@YADXZ      004749d0 f   dbgrwdlg.obj
 0001:00073d20       ?rw_trdos_sectors@@YADW4FILEDLG_MODE@@@Z 00474d20 f   dbgrwdlg.obj
 0001:00074180       ?query_file_addr@@YADW4FILEDLG_MODE@@@Z 00475180 f   dbgrwdlg.obj
 0001:000743f0       ?mon_save@@YAXXZ           004753f0 f   dbgrwdlg.obj
 0001:00074570       ?mon_load@@YAXXZ           00475570 f   dbgrwdlg.obj
 0001:00074690       ?rdown@@YAXXZ              00475690 f   dbgreg.obj
 0001:000746b0       ?rup@@YAXXZ                004756b0 f   dbgreg.obj
 0001:000746d0       ?rright@@YAXXZ             004756d0 f   dbgreg.obj
 0001:000746f0       ?rleft@@YAXXZ              004756f0 f   dbgreg.obj
 0001:00074710       ?rdatajump@@YAXXZ          00475710 f   dbgreg.obj
 0001:00074760       ?rcodejump@@YAXXZ          00475760 f   dbgreg.obj
 0001:000747c0       ?showregs@@YAXXZ           004757c0 f   dbgreg.obj
 0001:00074b30       ?renter@@YAXXZ             00475b30 f   dbgreg.obj
 0001:00074d10       ?dispatch_regs@@YADXZ      00475d10 f   dbgreg.obj
 0001:00074d40       ?rCF@@YAXXZ                00475d40 f   dbgreg.obj
 0001:00074d50       ?rNF@@YAXXZ                00475d50 f   dbgreg.obj
 0001:00074d60       ?rPF@@YAXXZ                00475d60 f   dbgreg.obj
 0001:00074d70       ?rF3@@YAXXZ                00475d70 f   dbgreg.obj
 0001:00074d80       ?rHF@@YAXXZ                00475d80 f   dbgreg.obj
 0001:00074d90       ?rF5@@YAXXZ                00475d90 f   dbgreg.obj
 0001:00074da0       ?rZF@@YAXXZ                00475da0 f   dbgreg.obj
 0001:00074db0       ?rSF@@YAXXZ                00475db0 f   dbgreg.obj
 0001:00074dc0       ?r_2@@YAXXZ                00475dc0 f   dbgreg.obj
 0001:00074dd0       ?r_1@@YAXXZ                00475dd0 f   dbgreg.obj
 0001:00074de0       ?rm@@YAXXZ                 00475de0 f   dbgreg.obj
 0001:00074df0       ?rr@@YAXXZ                 00475df0 f   dbgreg.obj
 0001:00074e10       ?ri@@YAXXZ                 00475e10 f   dbgreg.obj
 0001:00074e30       ?riy@@YAXXZ                00475e30 f   dbgreg.obj
 0001:00074e50       ?rix@@YAXXZ                00475e50 f   dbgreg.obj
 0001:00074e70       ?rpc@@YAXXZ                00475e70 f   dbgreg.obj
 0001:00074e90       ?rsp@@YAXXZ                00475e90 f   dbgreg.obj
 0001:00074eb0       ?rhl@@YAXXZ                00475eb0 f   dbgreg.obj
 0001:00074ed0       ?rde@@YAXXZ                00475ed0 f   dbgreg.obj
 0001:00074ef0       ?rbc@@YAXXZ                00475ef0 f   dbgreg.obj
 0001:00074f10       ?rf@@YAXXZ                 00475f10 f   dbgreg.obj
 0001:00074f30       ?ra@@YAXXZ                 00475f30 f   dbgreg.obj
 0001:00074f50       ?menu_move@@YAXPAUMENUDEF@@H@Z 00475f50 f   dbgpaint.obj
 0001:00074f90       ?format_item@@YAXPADIPBDW4FLAGS@MENUITEM@@@Z 00475f90 f   dbgpaint.obj
 0001:00074ff0       ?fillattr@@YAXIIIE@Z       00475ff0 f   dbgpaint.obj
 0001:00075020       ?tprint_fg@@YAXIIPBDE@Z    00476020 f   dbgpaint.obj
 0001:00075060       ?tprint@@YAXIIPBDE@Z       00476060 f   dbgpaint.obj
 0001:000750a0       ?frame@@YAXIIIIE@Z         004760a0 f   dbgpaint.obj
 0001:000750f0       ?filledframe@@YAXIIIIE@Z   004760f0 f   dbgpaint.obj
 0001:00075180       ?paint_items@@YAXPAUMENUDEF@@@Z 00476180 f   dbgpaint.obj
 0001:000753b0       ?debugflip@@YAXXZ          004763b0 f   dbgpaint.obj
 0001:00075740       ?handle_menu@@YADPAUMENUDEF@@@Z 00476740 f   dbgpaint.obj
 0001:00075830       ?inputhex@@YAIIII_N@Z      00476830 f   dbgpaint.obj
 0001:00075b50       ?input2@@YAIIII@Z          00476b50 f   dbgpaint.obj
 0001:00075bb0       ?input4@@YAIIII@Z          00476bb0 f   dbgpaint.obj
 0001:00075c10       ?showdos@@YAXXZ            00476c10 f   dbgoth.obj
 0001:00075e00       ?showports@@YAXXZ          00476e00 f   dbgoth.obj
 0001:00076080       ?BankNames@@YAXHPAD@Z      00477080 f   dbgoth.obj
 0001:00076220       ?mon_switchay@@YAXXZ       00477220 f   dbgoth.obj
 0001:00076230       ?delta@z80dbg@@YA_JXZ      00477230 f   dbgoth.obj
 0001:00076250       ?showbanks@@YAXXZ          00477250 f   dbgoth.obj
 0001:000763a0       ?show_ay@@YAXXZ            004773a0 f   dbgoth.obj
 0001:00076510       ?showstack@@YAXXZ          00477510 f   dbgoth.obj
 0001:00076760       ?show_time@@YAXXZ          00477760 f   dbgoth.obj
 0001:00076850       ?showwatch@@YAXXZ          00477850 f   dbgoth.obj
 0001:00076a20       ?gsdlg@@YGHPAUHWND__@@IIJ@Z 00477a20 f   dbgoth.obj
 0001:00076cf0       ?mon_gsdialog@@YAXXZ       00477cf0 f   dbgoth.obj
 0001:00076d30       ?mon_setwatch@@YAXXZ       00477d30 f   dbgoth.obj
 0001:00076e20       ?mmodelog@@YAXXZ           00477e20 f   dbgmem.obj
 0001:00076e30       ?mmodephys@@YAXXZ          00477e30 f   dbgmem.obj
 0001:00076e40       ?mmodemem@@YAXXZ           00477e40 f   dbgmem.obj
 0001:00076e50       ?mswitch@@YAXXZ            00477e50 f   dbgmem.obj
 0001:00076e60       ?memadr@@YAII@Z            00477e60 f   dbgmem.obj
 0001:00076eb0       ?miy@@YAXXZ                00477eb0 f   dbgmem.obj
 0001:00076ed0       ?mix@@YAXXZ                00477ed0 f   dbgmem.obj
 0001:00076ef0       ?mhl@@YAXXZ                00477ef0 f   dbgmem.obj
 0001:00076f10       ?mde@@YAXXZ                00477f10 f   dbgmem.obj
 0001:00076f30       ?mbc@@YAXXZ                00477f30 f   dbgmem.obj
 0001:00076f50       ?mpc@@YAXXZ                00477f50 f   dbgmem.obj
 0001:00076f70       ?msp@@YAXXZ                00477f70 f   dbgmem.obj
 0001:00076f90       ?mright@@YAXXZ             00477f90 f   dbgmem.obj
 0001:00076ff0       ?mleft@@YAXXZ              00477ff0 f   dbgmem.obj
 0001:00077030       ?mdown@@YAXXZ              00478030 f   dbgmem.obj
 0001:00077080       ?mpgup@@YAXXZ              00478080 f   dbgmem.obj
 0001:000770b0       ?mpgdn@@YAXXZ              004780b0 f   dbgmem.obj
 0001:000770e0       ?mup@@YAXXZ                004780e0 f   dbgmem.obj
 0001:00077100       ?mendl@@YAXXZ              00478100 f   dbgmem.obj
 0001:00077130       ?mstl@@YAXXZ               00478130 f   dbgmem.obj
 0001:00077160       ?findsector@@YAXI@Z        00478160 f   dbgmem.obj
 0001:000771c0       ?mgoto@@YAXXZ              004781c0 f   dbgmem.obj
 0001:00077230       ?editam@@YAPAEI@Z          00478230 f   dbgmem.obj
 0001:000772b0       ?showmem@@YAXXZ            004782b0 f   dbgmem.obj
 0001:000778d0       ?editwm@@YAXIE@Z           004788d0 f   dbgmem.obj
 0001:00077980       ?mdiskgo@@YAXXZ            00478980 f   dbgmem.obj
 0001:00077ad0       ?mcode@@YAXXZ              00478ad0 f   dbgmem.obj
 0001:00077b00       ?mtext@@YAXXZ              00478b00 f   dbgmem.obj
 0001:00077b30       ?dispatch_mem@@YADXZ       00478b30 f   dbgmem.obj
 0001:00077c40       ?find_xas@MON_LABELS@@QAEXXZ 00478c40 f   dbglabls.obj
 0001:00077cd0       ?alasm_chain_len@MON_LABELS@@QAEIPAEIAAI@Z 00478cd0 f   dbglabls.obj
 0001:00077d70       ?find@MON_LABELS@@QAEPADPAE@Z 00478d70 f   dbglabls.obj
 0001:00077db0       ?labels_sort_func@@YAHPBX0@Z 00478db0 f   dbglabls.obj
 0001:00077dc0       ?add_name@MON_LABELS@@QAEIPAD@Z 00478dc0 f   dbglabls.obj
 0001:00077e40       ?stop_watching_labels@MON_LABELS@@QAEXXZ 00478e40 f   dbglabls.obj
 0001:00077e60       ?ShowLabels@@YAXXZ         00478e60 f   dbglabls.obj
 0001:00078020       ?find_alasm@MON_LABELS@@QAEXXZ 00479020 f   dbglabls.obj
 0001:000780e0       ?add@MON_LABELS@@QAEXPAEPAD@Z 004790e0 f   dbglabls.obj
 0001:00078150       ?sort@MON_LABELS@@QAEXXZ   00479150 f   dbglabls.obj
 0001:00078170       ?clear@MON_LABELS@@QAEXPAEI@Z 00479170 f   dbglabls.obj
 0001:00078220       ?start_watching_labels@MON_LABELS@@QAEXXZ 00479220 f   dbglabls.obj
 0001:00078250       ?LabelsDlg@@YGHPAUHWND__@@IIJ@Z 00479250 f   dbglabls.obj
 0001:00078470       ?import_xas@MON_LABELS@@QAEXXZ 00479470 f   dbglabls.obj
 0001:00078670       ?import_alasm@MON_LABELS@@QAEXIPAD@Z 00479670 f   dbglabls.obj
 0001:00078750       ?load@MON_LABELS@@QAEIPADPAEI@Z 00479750 f   dbglabls.obj
 0001:00078aa0       ?mon_show_labels@@YAXXZ    00479aa0 f   dbglabls.obj
 0001:00078ac0       ?load_labels@@YAXPADPAEI@Z 00479ac0 f   dbglabls.obj
 0001:00078ae0       ?import_file@MON_LABELS@@QAEXXZ 00479ae0 f   dbglabls.obj
 0001:00078b70       ?notify_user_labels@MON_LABELS@@QAEXXZ 00479b70 f   dbglabls.obj
 0001:00078bd0       ?import_menu@MON_LABELS@@QAEXXZ 00479bd0 f   dbglabls.obj
 0001:00078d60       ?mon_scrshot@@YAXXZ        00479d60 f   dbgcmd.obj
 0001:00078d80       ?mon_switch_dump@@YAXXZ    00479d80 f   dbgcmd.obj
 0001:00078dc0       ?mon_dump@@YAXXZ           00479dc0 f   dbgcmd.obj
 0001:00078de0       ?mon_nxt@@YAXXZ            00479de0 f   dbgcmd.obj
 0001:00078e20       ?mon_prv@@YAXXZ            00479e20 f   dbgcmd.obj
 0001:00078e60       ?mon_exitsub@@YAXXZ        00479e60 f   dbgcmd.obj
 0001:00078eb0       ?mon_emul@@YAXXZ           00479eb0 f   dbgcmd.obj
 0001:00078f40       ?mon_tool@@YAXXZ           00479f40 f   dbgcmd.obj
 0001:00079250       ?editbank@@YAXXZ           0047a250 f   dbgcmd.obj
 0001:000792c0       ?mon_scr@@YAXD@Z           0047a2c0 f   dbgcmd.obj
 0001:000793a0       ?mon_fill@@YAXXZ           0047a3a0 f   dbgcmd.obj
 0001:000796a0       ?mon_scray@@YAXXZ          0047a6a0 f   dbgcmd.obj
 0001:000796b0       ?mon_scr1@@YAXXZ           0047a6b0 f   dbgcmd.obj
 0001:000796c0       ?mon_scr0@@YAXXZ           0047a6c0 f   dbgcmd.obj
 0001:000796d0       ?find2dlg@@YAII@Z          0047a6d0 f   dbgcmd.obj
 0001:00079a10       ?find1dlg@@YAII@Z          0047aa10 f   dbgcmd.obj
 0001:00079c40       ?mon_switch_cpu@@YAXXZ     0047ac40 f   dbgcmd.obj
 0001:00079ca0       ?mon_setup_dlg@@YAXXZ      0047aca0 f   dbgcmd.obj
 0001:00079cc0       ?editextbank@@YAXXZ        0047acc0 f   dbgcmd.obj
 0001:00079d30       ?GetMemRamge@@YAHPADAAUMEM_RANGE@@@Z 0047ad30 f   dbgbpx.obj
 0001:00079e70       ?MoveBpxFromBoxToEdit@@YADPAUHWND__@@II@Z 0047ae70 f   dbgbpx.obj
 0001:00079f80       ?ClearListBox@@YAXPAUHWND__@@@Z 0047af80 f   dbgbpx.obj
 0001:00079fc0       ?SetBpxButtons@@YAXPAUHWND__@@@Z 0047afc0 f   dbgbpx.obj
 0001:0007a540       ?FillMemBox@@YAXPAUHWND__@@I@Z 0047b540 f   dbgbpx.obj
 0001:0007a6c0       ?FillBpxBox@@YAXPAUHWND__@@I@Z 0047b6c0 f   dbgbpx.obj
 0001:0007a7d0       ?script2text@@YAXPADPAI@Z  0047b7d0 f   dbgbpx.obj
 0001:0007ad70       ?calc@@YAIPBUZ80@@PAI@Z    0047bd70 f   dbgbpx.obj
 0001:0007b0b0       ?done_bpx@@YAXXZ           0047c0b0 f   dbgbpx.obj
 0001:0007b0c0       ?init_bpx@@YAXXZ           0047c0c0 f   dbgbpx.obj
 0001:0007b0d0       ?FillCondBox@@YAXPAUHWND__@@I@Z 0047c0d0 f   dbgbpx.obj
 0001:0007b180       ?toscript@@YAEPADPAI@Z     0047c180 f   dbgbpx.obj
 0001:0007b840       ?watchdlg@@YGHPAUHWND__@@IIJ@Z 0047c840 f   dbgbpx.obj
 0001:0007bab0       ?conddlg@@YGHPAUHWND__@@IIJ@Z 0047cab0 f   dbgbpx.obj
 0001:0007c0c0       ?mon_watchdialog@@YAXXZ    0047d0c0 f   dbgbpx.obj
 0001:0007c0e0       ?mon_bpdialog@@YAXXZ       0047d0e0 f   dbgbpx.obj
 0001:0007c100       ?loadzxkeys@@YAXPAUCONFIG@@@Z 0047d100 f   config.obj
 0001:0007c450       ?load_arch@@YAXPBD@Z       0047d450 f   config.obj
 0001:0007c540       ?load_ay_vols@@YAXXZ       0047d540 f   config.obj
 0001:0007c650       ?load_ay_stereo@@YAXXZ     0047d650 f   config.obj
 0001:0007c6f0       ?load_ula_preset@@YAXXZ    0047d6f0 f   config.obj
 0001:0007c7f0       ?add_presets@@YAXPBD0PAIPAPADPAE@Z 0047d7f0 f   config.obj
 0001:0007c990       ?addpath@@YAXPADPBD@Z      0047d990 f   config.obj
 0001:0007ca40       ?load_atariset@@YAXXZ      0047da40 f   config.obj
 0001:0007cb70       ?load_atm_font@@YAXXZ      0047db70 f   config.obj
 0001:0007cc70       ?loadkeys@@YAXPAUaction@@@Z 0047dc70 f   config.obj
 0001:0007cff0       ?load_romset@@YAXPAUCONFIG@@PBD@Z 0047dff0 f   config.obj
 0001:0007d100       ?save_nv@@YAXXZ            0047e100 f   config.obj
 0001:0007d1b0       ?load_rom@@YAIPBDPAEI@Z    0047e1b0 f   config.obj
 0001:0007d2f0       ?apply_memory@@YAXXZ       0047e2f0 f   config.obj
 0001:0007d760       ?load_config@@YAXPBD@Z     0047e760 f   config.obj
 0001:0007f780       ?applyconfig@@YAXXZ        00480780 f   config.obj
 0001:0007fa40       ?autoload@@YAXXZ           00480a40 f   config.obj
 0001:0007fba0       ?ShowResults@CHEATDLG@@QAEXXZ 00480ba0 f   cheat.obj
 0001:0007fe60       ?SetControls@CHEATDLG@@QAEXXZ 00480e60 f   cheat.obj
 0001:00080000       ?Search@CHEATDLG@@QAEXXZ   00481000 f   cheat.obj
 0001:000802e0       ?cheatdlg@@YGHPAUHWND__@@IIJ@Z 004812e0 f   cheat.obj
 0001:00080590       ?main_cheat@@YAXXZ         00481590 f   cheat.obj
 0001:00080610       ?atm450_z@@YAEI@Z          00481610 f   atm.obj
 0001:00080670       ?atm_readpal@@YAEXZ        00481670 f   atm.obj
 0001:00080680       ?atm_writepal@@YAXE@Z      00481680 f   atm.obj
 0001:000806d0       ?AtmApplySideEffectsWhenChangeVideomode@@YAXE@Z 004816d0 f   atm.obj
 0001:00080960       ?atm_memswap@@YAXXZ        00481960 f   atm.obj
 0001:00080a00       ?set_atm_aFE@@YAXE@Z       00481a00 f   atm.obj
 0001:00080a30       ?set_atm_FF77@@YAXIE@Z     00481a30 f   atm.obj
 0001:00080aa0       ?ConfirmExit@@YA_NXZ       00481aa0 f   emul.obj
 0001:00080ae0       ?filter@@YGJPAU_EXCEPTION_POINTERS@@@Z 00481ae0 f   emul.obj
 0001:00080b70       ?ConsoleHandler@@YGHK@Z    00481b70 f   emul.obj
 0001:00080bc0       ?showhelp@@YAXPBD@Z        00481bc0 f   emul.obj
 0001:00080c00       _main                      00481c00 f   emul.obj
 0001:00080d20       ?Rd@TZc@@QAEEK@Z           00481d20 f   zc.obj
 0001:00080d50       ?Wr@TZc@@QAEXKE@Z          00481d50 f   zc.obj
 0001:00080d80       ?Reset@TZc@@QAEXXZ         00481d80 f   zc.obj
 0001:00080da0       ?write_udi@FDD@@QAEHPAU_iobuf@@@Z 00481da0 f   wldr_udi.obj
 0001:00080f10       ?read_udi@FDD@@QAEHXZ      00481f10 f   wldr_udi.obj
 0001:000810a0       ?rend_atmframe_32d@@YAXPAEI@Z 004820a0 f   dxr_atmf.obj
 0001:00081210       ?rend_atmframe_32d1@@YAXPAEI@Z 00482210 f   dxr_atmf.obj
 0001:00081320       ?rend_atmframe_16d@@YAXPAEI@Z 00482320 f   dxr_atmf.obj
 0001:00081480       ?rend_atmframe_16d1@@YAXPAEI@Z 00482480 f   dxr_atmf.obj
 0001:00081590       ?rend_atmframe_8d@@YAXPAEI@Z 00482590 f   dxr_atmf.obj
 0001:000816d0       ?rend_atmframe_8d1@@YAXPAEI@Z 004826d0 f   dxr_atmf.obj
 0001:000817c0       ?rend_atmframe32@@YAXPAEI@Z 004827c0 f   dxr_atmf.obj
 0001:000818d0       ?rend_atmframe16@@YAXPAEI@Z 004828d0 f   dxr_atmf.obj
 0001:000819d0       ?rend_atmframe8@@YAXPAEI@Z 004829d0 f   dxr_atmf.obj
 0001:00081b40       ?rend_atm_1@@YAXPAEI@Z     00482b40 f   dxr_atm.obj
 0001:00081bf0       ?rend_atm_1_small@@YAXPAEI@Z 00482bf0 f   dxr_atm.obj
 0001:00081cc0       ?rend_atm_2@@YAXPAEI@Z     00482cc0 f   dxr_atm.obj
 0001:00081dc0       ?rend_atm_2_small@@YAXPAEI@Z 00482dc0 f   dxr_atm.obj
 0001:00081e90       ?write_pro@FDD@@QAEHPAU_iobuf@@@Z 00482e90 f   wldr_pro.obj
 0001:00081f40       ?format_pro@FDD@@QAEXXZ    00482f40 f   wldr_pro.obj
 0001:00082000       ?read_pro@FDD@@QAEHXZ      00483000 f   wldr_pro.obj
 0001:000820b0       ?write_isd@FDD@@QAEHPAU_iobuf@@@Z 004830b0 f   wldr_isd.obj
 0001:00082160       ?format_isd@FDD@@QAEXXZ    00483160 f   wldr_isd.obj
 0001:000821f0       ?read_isd@FDD@@QAEHXZ      004831f0 f   wldr_isd.obj
 0001:00082270       ?write_fdi@FDD@@QAEHPAU_iobuf@@@Z 00483270 f   wldr_fdi.obj
 0001:00082520       ?read_fdi@FDD@@QAEHXZ      00483520 f   wldr_fdi.obj
 0001:000826b0       ?update_overlay@@YAXXZ     004836b0 f   dxovr.obj
 0001:00082a80       ?wm@z80dbg@@YAXIE@Z        00483a80 f   z80.obj
 0001:00082b50       ?rm@z80dbg@@YAEI@Z         00483b50 f   z80.obj
 0001:00082be0       ?wm@z80fast@@YAXIE@Z       00483be0 f   z80.obj
 0001:00082c90       ?rm@z80fast@@YAEI@Z        00483c90 f   z80.obj
 0001:00082d00       ?reset@@YAXW4ROM_MODE@@@Z  00483d00 f   z80.obj
 0001:00083040       ?DbgWm@@YIXKE@Z            00484040 f   z80.obj
 0001:00083050       ?DbgRm@@YIEK@Z             00484050 f   z80.obj
 0001:00083060       ?Wm@@YIXKE@Z               00484060 f   z80.obj
 0001:00083070       ?Rm@@YIEK@Z                00484070 f   z80.obj
 0001:00083080       ?step@z80dbg@@YIXXZ        00484080 f   z80.obj
 0001:00083210       ?step@z80fast@@YIXXZ       00484210 f   z80.obj
 0001:00083340       ?z80loop@z80dbg@@YAXXZ     00484340 f   z80.obj
 0001:00083620       ?z80loop@z80fast@@YAXXZ    00484620 f   z80.obj
 0001:000838e0       ?out@@YAXIE@Z              004848e0 f   io.obj
 0001:00084730       ?in@@YAEI@Z                00485730 f   io.obj
 0001:00084740       __aulldiv                  00485740 f   LIBCMT:ulldiv.obj
 0001:000847b0       __allrem                   004857b0 f   LIBCMT:llrem.obj
 0001:00084862       __fpclear                  00485862 f   LIBCMT:_fpinit_.obj
 0001:00084863       __cfltcvt_init             00485863 f   LIBCMT:_fpinit_.obj
 0001:000848c3       ___setfflag                004858c3 f   LIBCMT:_fpinit_.obj
 0001:000848d8       __fpmath                   004858d8 f   LIBCMT:_fpinit_.obj
 0001:00084900       _pow                       00485900 f   LIBCMT:_pow_.obj
 0001:00084940       __CIpow                    00485940 f   LIBCMT:_pow_.obj
 0001:0008497b       __CIpow_default            0048597b f   LIBCMT:_pow_.obj
 0001:00084994       __pow_default              00485994     LIBCMT:_pow_.obj
 0001:00084b90       _sin                       00485b90 f   LIBCMT:_sin_.obj
 0001:00084bd0       __CIsin                    00485bd0 f   LIBCMT:_sin_.obj
 0001:00084c0b       __CIsin_default            00485c0b f   LIBCMT:_sin_.obj
 0001:00084c1f       __sin_default              00485c1f     LIBCMT:_sin_.obj
 0001:00084cc0       _log                       00485cc0 f   LIBCMT:_log_.obj
 0001:00084d00       __CIlog                    00485d00 f   LIBCMT:_log_.obj
 0001:00084d3b       __CIlog_default            00485d3b f   LIBCMT:_log_.obj
 0001:00084d4f       __log_default              00485d4f     LIBCMT:_log_.obj
 0001:00084e10       __ftol2_sse                00485e10 f   LIBCMT:ftol2.obj
 0001:00084e19       __ftol2_pentium4           00485e19 f   LIBCMT:ftol2.obj
 0001:00084e2c       __ftol2_sse_excpt          00485e2c f   LIBCMT:ftol2.obj
 0001:00084e46       __ftol2                    00485e46 f   LIBCMT:ftol2.obj
 0001:00084ec0       _floor                     00485ec0 f   LIBCMT:_floor_pentium4_.obj
 0001:00084f00       __floor_pentium4           00485f00 f   LIBCMT:_floor_pentium4_.obj
 0001:00084ff0       __alldiv                   00485ff0 f   LIBCMT:lldiv.obj
 0001:000850a0       _cos                       004860a0 f   LIBCMT:_cos_.obj
 0001:000850e0       __CIcos                    004860e0 f   LIBCMT:_cos_.obj
 0001:0008511b       __CIcos_default            0048611b f   LIBCMT:_cos_.obj
 0001:0008512f       __cos_default              0048612f     LIBCMT:_cos_.obj
 0001:000851d0       _atan                      004861d0 f   LIBCMT:_atan_.obj
 0001:00085210       __CIatan                   00486210 f   LIBCMT:_atan_.obj
 0001:0008524b       __CIatan_default           0048624b f   LIBCMT:_atan_.obj
 0001:0008525f       __atan_default             0048625f     LIBCMT:_atan_.obj
 0001:000852ea       __forcdecpt_l              004862ea f   LIBCMT:cvt.obj
 0001:0008535d       __cropzeros_l              0048635d f   LIBCMT:cvt.obj
 0001:000853df       __positive                 004863df f   LIBCMT:cvt.obj
 0001:000853fb       __fassign_l                004863fb f   LIBCMT:cvt.obj
 0001:0008543d       __fassign                  0048643d f   LIBCMT:cvt.obj
 0001:00085476       __forcdecpt                00486476 f   LIBCMT:cvt.obj
 0001:00085489       __cropzeros                00486489 f   LIBCMT:cvt.obj
 0001:0008560b       __cftoe_l                  0048660b f   LIBCMT:cvt.obj
 0001:000856db       __cftoe                    004866db f   LIBCMT:cvt.obj
 0001:000856fb       __cftoa_l                  004866fb f   LIBCMT:cvt.obj
 0001:00085a6e       __cftoa                    00486a6e f   LIBCMT:cvt.obj
 0001:00085b85       __cftof_l                  00486b85 f   LIBCMT:cvt.obj
 0001:00085c40       __cftof                    00486c40 f   LIBCMT:cvt.obj
 0001:00085c5d       __cftog_l                  00486c5d f   LIBCMT:cvt.obj
 0001:00085d57       __cftog                    00486d57 f   LIBCMT:cvt.obj
 0001:00085d77       __cfltcvt_l                00486d77 f   LIBCMT:cvt.obj
 0001:00085dff       __cfltcvt                  00486dff f   LIBCMT:cvt.obj
 0001:00085e22       __setdefaultprecision      00486e22 f   LIBCMT:fp8.obj
 0001:00085e4d       __ms_p5_test_fdiv          00486e4d f   LIBCMT:_testfdiv_.obj
 0001:00085e8b       __ms_p5_mp_test_fdiv       00486e8b f   LIBCMT:_testfdiv_.obj
 0001:00085eb4       __sse2_mathfcns_init       00486eb4 f   LIBCMT:_mathfcns_.obj
 0001:00085ec8       __set_SSE2_enable          00486ec8 f   LIBCMT:_mathfcns_.obj
 0001:00085ef0       __CIpow_pentium4           00486ef0 f   LIBCMT:_pow_pentium4_.obj
 0001:00085f09       __pow_pentium4             00486f09     LIBCMT:_pow_pentium4_.obj
 0001:00086a61       __fFEXP                    00487a61     LIBCMT:_87tran_.obj
 0001:00086ac8       __rtinfpopse               00487ac8     LIBCMT:_87tran_.obj
 0001:00086aca       __rtinfnpopse              00487aca     LIBCMT:_87tran_.obj
 0001:00086ada       __fFLN                     00487ada     LIBCMT:_87tran_.obj
 0001:00086b8f       __rtinfpop                 00487b8f     LIBCMT:_87tran_.obj
 0001:00086b91       __rtinfnpop                00487b91     LIBCMT:_87tran_.obj
 0001:00086bae       __ffexpm1                  00487bae     LIBCMT:_87tran_.obj
 0001:00086c60       __trandisp1                00487c60 f   LIBCMT:_87disp_.obj
 0001:00086cc7       __trandisp2                00487cc7 f   LIBCMT:_87disp_.obj
 0001:00086d53       __rttospopde               00487d53     LIBCMT:_87disp_.obj
 0001:00086d58       __rttospop                 00487d58     LIBCMT:_87disp_.obj
 0001:00086d5a       __rtnospop                 00487d5a     LIBCMT:_87disp_.obj
 0001:00086d5c       __rttosnpop                00487d5c     LIBCMT:_87disp_.obj
 0001:00086d5d       __rtnospopde               00487d5d     LIBCMT:_87disp_.obj
 0001:00086d64       __rtzeropop                00487d64     LIBCMT:_87disp_.obj
 0001:00086d66       __rtzeronpop               00487d66     LIBCMT:_87disp_.obj
 0001:00086d6b       __rtonepop                 00487d6b     LIBCMT:_87disp_.obj
 0001:00086d6d       __rtonenpop                00487d6d     LIBCMT:_87disp_.obj
 0001:00086d72       __tosnan1                  00487d72     LIBCMT:_87disp_.obj
 0001:00086d9d       __nosnan2                  00487d9d     LIBCMT:_87disp_.obj
 0001:00086d9f       __tosnan2                  00487d9f     LIBCMT:_87disp_.obj
 0001:00086dc7       __nan2                     00487dc7     LIBCMT:_87disp_.obj
 0001:00086e06       __rtindfpop                00487e06     LIBCMT:_87disp_.obj
 0001:00086e08       __rtindfnpop               00487e08     LIBCMT:_87disp_.obj
 0001:00086e19       __rttosnpopde              00487e19     LIBCMT:_87disp_.obj
 0001:00086e23       __rtchsifneg               00487e23     LIBCMT:_87disp_.obj
 0001:00086e30       __startTwoArgErrorHandling 00487e30 f   LIBCMT:_genexcep_.obj
 0001:00086e47       __startOneArgErrorHandling 00487e47 f   LIBCMT:_genexcep_.obj
 0001:00086e90       __twoToTOS                 00487e90 f   LIBCMT:_common_.obj
 0001:00086ea5       __load_CW                  00487ea5 f   LIBCMT:_common_.obj
 0001:00086ebc       __convertTOStoQNaN         00487ebc f   LIBCMT:_common_.obj
 0001:00086ed5       __fload_withFB             00487ed5 f   LIBCMT:_common_.obj
 0001:00086f18       __checkTOS_withFB          00487f18 f   LIBCMT:_common_.obj
 0001:00086f2e       __fast_exit                00487f2e f   LIBCMT:_common_.obj
 0001:00086f3b       __math_exit                00487f3b f   LIBCMT:_common_.obj
 0001:00086f65       __check_overflow_exit      00487f65 f   LIBCMT:_common_.obj
 0001:00086f79       __check_range_exit         00487f79 f   LIBCMT:_common_.obj
 0001:0008701c       __d_inttype                0048801c f   LIBCMT:_powhlp_.obj
 0001:00087082       __powhlp                   00488082 f   LIBCMT:_powhlp_.obj
 0001:000871d0       __CIsin_pentium4           004881d0 f   LIBCMT:_sin_pentium4_.obj
 0001:000871e8       __sin_pentium4             004881e8     LIBCMT:_sin_pentium4_.obj
 0001:000873a0       __CIlog_pentium4           004883a0 f   LIBCMT:_log_pentium4_.obj
 0001:000873b8       __log_pentium4             004883b8     LIBCMT:_log_pentium4_.obj
 0001:00087610       ___libm_setusermatherr     00488610 f   LIBCMT:_libm_error_.obj
 0001:0008763e       ___libm_error_support      0048863e f   LIBCMT:_libm_error_.obj
 0001:000878ee       __floor_default            004888ee f   LIBCMT:_floor_.obj
 0001:000879d0       __CIcos_pentium4           004889d0 f   LIBCMT:_cos_pentium4_.obj
 0001:000879e8       __cos_pentium4             004889e8     LIBCMT:_cos_pentium4_.obj
 0001:00087b80       __CIatan_pentium4          00488b80 f   LIBCMT:_atan_pentium4_.obj
 0001:00087b98       __atan_pentium4            00488b98     LIBCMT:_atan_pentium4_.obj
 0001:00087e6c       __atodbl_l                 00488e6c f   LIBCMT:atodbl.obj
 0001:00087f14       __atodbl                   00488f14 f   LIBCMT:atodbl.obj
 0001:00087f2b       __atoldbl_l                00488f2b f   LIBCMT:atodbl.obj
 0001:00087fd4       __atoldbl                  00488fd4 f   LIBCMT:atodbl.obj
 0001:00087feb       __atoflt_l                 00488feb f   LIBCMT:atodbl.obj
 0001:00088093       __atoflt                   00489093 f   LIBCMT:atodbl.obj
 0001:000880aa       __set_output_format        004890aa f   LIBCMT:outputformat.obj
 0001:000880e6       __get_output_format        004890e6 f   LIBCMT:outputformat.obj
 0001:000880ec       __fptostr                  004890ec f   LIBCMT:_fptostr.obj
 0001:000881ab       ___dtold                   004891ab f   LIBCMT:_cfout_.obj
 0001:00088268       __fltout2                  00489268 f   LIBCMT:_cfout_.obj
 0001:00088300       __alldvrm                  00489300 f   LIBCMT:lldvrm.obj
 0001:000883e0       __aullshr                  004893e0 f   LIBCMT:ullshr.obj
 0001:000883ff       __controlfp_s              004893ff f   LIBCMT:_contrlfp_.obj
 0001:00088470       _fdiv_main_routine         00489470 f   LIBCMT:_adj_fdiv_.obj
 0001:00088587       __adj_fdiv_r               00489587 f   LIBCMT:_adj_fdiv_.obj
 0001:00088a26       __fdivp_sti_st             00489a26 f   LIBCMT:_adj_fdiv_.obj
 0001:00088a39       __fdivrp_sti_st            00489a39 f   LIBCMT:_adj_fdiv_.obj
 0001:00088a4c       __adj_fdiv_m32             00489a4c f   LIBCMT:_adj_fdiv_.obj
 0001:00088a98       __adj_fdiv_m64             00489a98 f   LIBCMT:_adj_fdiv_.obj
 0001:00088ae4       __adj_fdiv_m16i            00489ae4 f   LIBCMT:_adj_fdiv_.obj
 0001:00088b18       __adj_fdiv_m32i            00489b18 f   LIBCMT:_adj_fdiv_.obj
 0001:00088b4c       __adj_fdivr_m32            00489b4c f   LIBCMT:_adj_fdiv_.obj
 0001:00088b98       __adj_fdivr_m64            00489b98 f   LIBCMT:_adj_fdiv_.obj
 0001:00088be4       __adj_fdivr_m16i           00489be4 f   LIBCMT:_adj_fdiv_.obj
 0001:00088c18       __adj_fdivr_m32i           00489c18 f   LIBCMT:_adj_fdiv_.obj
 0001:00088c4c       __safe_fdiv                00489c4c f   LIBCMT:_adj_fdiv_.obj
 0001:00088c61       __safe_fdivr               00489c61 f   LIBCMT:_adj_fdiv_.obj
 0001:00088c76       __fprem_common             00489c76 f   LIBCMT:_adj_fdiv_.obj
 0001:00088e7c       __adj_fprem                00489e7c f   LIBCMT:_adj_fdiv_.obj
 0001:00088f2e       __fprem1_common            00489f2e f   LIBCMT:_adj_fdiv_.obj
 0001:00089134       __adj_fprem1               0048a134 f   LIBCMT:_adj_fdiv_.obj
 0001:000891e9       __safe_fprem               0048a1e9 f   LIBCMT:_adj_fdiv_.obj
 0001:000891ef       __safe_fprem1              0048a1ef f   LIBCMT:_adj_fdiv_.obj
 0001:000891f5       __adj_fpatan               0048a1f5 f   LIBCMT:_adj_fdiv_.obj
 0001:000891f8       __adj_fptan                0048a1f8 f   LIBCMT:_adj_fdiv_.obj
 0001:000891fb       __87except                 0048a1fb f   LIBCMT:_87except_.obj
 0001:0008933a       __frnd                     0048a33a f   LIBCMT:_frnd_.obj
 0001:0008934e       __copysign                 0048a34e f   LIBCMT:_ieeemisc_.obj
 0001:00089376       __chgsign                  0048a376 f   LIBCMT:_ieeemisc_.obj
 0001:000893a3       __scalb                    0048a3a3 f   LIBCMT:_ieeemisc_.obj
 0001:000893bd       __logb                     0048a3bd f   LIBCMT:_ieeemisc_.obj
 0001:000894a6       __nextafter                0048a4a6 f   LIBCMT:_ieeemisc_.obj
 0001:0008974e       __finite                   0048a74e f   LIBCMT:_ieeemisc_.obj
 0001:0008976a       __isnan                    0048a76a f   LIBCMT:_ieeemisc_.obj
 0001:0008979e       __fpclass                  0048a79e f   LIBCMT:_ieeemisc_.obj
 0001:00089832       __set_exp                  0048a832 f   LIBCMT:_util_.obj
 0001:0008985e       __get_exp                  0048a85e f   LIBCMT:_util_.obj
 0001:00089876       __add_exp                  0048a876 f   LIBCMT:_util_.obj
 0001:000898a3       __set_bexp                 0048a8a3 f   LIBCMT:_util_.obj
 0001:000898ca       __sptype                   0048a8ca f   LIBCMT:_util_.obj
 0001:0008992a       __decomp                   0048a92a f   LIBCMT:_util_.obj
 0001:000899e3       __matherr                  0048a9e3 f   LIBCMT:_matherr_.obj
 0001:000899e6       __raise_exc_ex             0048a9e6 f   LIBCMT:_fpexcept_.obj
 0001:00089cc2       __raise_exc                0048acc2 f   LIBCMT:_fpexcept_.obj
 0001:00089ce5       __raise_excf               0048ace5 f   LIBCMT:_fpexcept_.obj
 0001:00089d08       __handle_exc               0048ad08 f   LIBCMT:_fpexcept_.obj
 0001:00089eea       __set_errno_from_matherr   0048aeea f   LIBCMT:_fpexcept_.obj
 0001:00089f3d       __errcode                  0048af3d f   LIBCMT:_fpexcept_.obj
 0001:00089f71       __umatherr                 0048af71 f   LIBCMT:_fpexcept_.obj
 0001:0008a011       __handle_qnan1             0048b011 f   LIBCMT:_fpexcept_.obj
 0001:0008a066       __handle_qnan2             0048b066 f   LIBCMT:_fpexcept_.obj
 0001:0008a0c7       __except1                  0048b0c7 f   LIBCMT:_fpexcept_.obj
 0001:0008a190       __except2                  0048b190 f   LIBCMT:_fpexcept_.obj
 0001:0008a268       __statfp                   0048b268 f   LIBCMT:_fpctrl_.obj
 0001:0008a278       __clrfp                    0048b278 f   LIBCMT:_fpctrl_.obj
 0001:0008a289       __ctrlfp                   0048b289 f   LIBCMT:_fpctrl_.obj
 0001:0008a2b2       __set_statfp               0048b2b2 f   LIBCMT:_fpctrl_.obj
 0001:0008a30a       ___get_fpsr_sse2           0048b30a f   LIBCMT:_fpctrl_.obj
 0001:0008a328       ___set_fpsr_sse2           0048b328 f   LIBCMT:_fpctrl_.obj
 0001:0008a39a       ___fclrf_sse2              0048b39a f   LIBCMT:_fpctrl_.obj
 0001:0008a3b7       ___statfp_sse2             0048b3b7 f   LIBCMT:_fpctrl_.obj
 0001:0008a3ca       ___clrfp_sse2              0048b3ca f   LIBCMT:_fpctrl_.obj
 0001:0008a3e2       ___ctrlfp_sse2             0048b3e2 f   LIBCMT:_fpctrl_.obj
 0001:0008a419       ___set_statfp_sse2         0048b419 f   LIBCMT:_fpctrl_.obj
 0001:0008a434       ___addl                    0048b434 f i LIBCMT:_intrncvt_.obj
 0001:0008a458       __ZeroTail                 0048b458 f i LIBCMT:_intrncvt_.obj
 0001:0008a4a1       __IncMan                   0048b4a1 f i LIBCMT:_intrncvt_.obj
 0001:0008a50e       __RoundMan                 0048b50e f i LIBCMT:_intrncvt_.obj
 0001:0008a5fe       __CopyMan                  0048b5fe f i LIBCMT:_intrncvt_.obj
 0001:0008a61d       __FillZeroMan              0048b61d f i LIBCMT:_intrncvt_.obj
 0001:0008a62e       __IsZeroMan                0048b62e f i LIBCMT:_intrncvt_.obj
 0001:0008a64d       __ShrMan                   0048b64d f i LIBCMT:_intrncvt_.obj
 0001:0008a6e7       __ld12cvt                  0048b6e7 f i LIBCMT:_intrncvt_.obj
 0001:0008ac12       __ld12tod                  0048bc12 f   LIBCMT:_intrncvt_.obj
 0001:0008b156       __ld12tof                  0048c156 f   LIBCMT:_intrncvt_.obj
 0001:0008b69a       __ld12told                 0048c69a f   LIBCMT:_intrncvt_.obj
 0001:0008b761       ___shl_12                  0048c761 f i LIBCMT:_strgtold_.obj
 0001:0008b794       ___shr_12                  0048c794 f i LIBCMT:_strgtold_.obj
 0001:0008b7c6       ___ld12mul                 0048c7c6 f i LIBCMT:_strgtold_.obj
 0001:0008ba41       ___multtenpow12            0048ca41 f i LIBCMT:_strgtold_.obj
 0001:0008bd46       ___strgtold12_l            0048cd46 f   LIBCMT:_strgtold_.obj
 0001:0008c43e       ___STRINGTOLD_L            0048d43e f   LIBCMT:_strgtold_.obj
 0001:0008c499       ___add_12                  0048d499 f i LIBCMT:_x10fout_.obj
 0001:0008c50a       _$I10_OUTPUT               0048d50a f   LIBCMT:_x10fout_.obj
 0001:0008ce2e       __set_controlfp            0048de2e f   LIBCMT:_ieee87_.obj
 0001:0008d1a2       __statusfp                 0048e1a2 f   LIBCMT:_ieee87_.obj
 0001:0008d234       __fpreset                  0048e234 f   LIBCMT:_ieee87_.obj
 0001:0008d46d       __statusfp2                0048e46d f   LIBCMT:_ieee87_.obj
 0001:0008d4c7       __clearfp                  0048e4c7 f   LIBCMT:_ieee87_.obj
 0001:0008d5a0       ___control87_2             0048e5a0 f   LIBCMT:_ieee87_.obj
 0001:0008d8b4       __control87                0048e8b4 f i LIBCMT:_ieee87_.obj
 0001:0008dbc3       __controlfp                0048ebc3 f   LIBCMT:_ieee87_.obj
 0001:0008ded5       _ldexp                     0048eed5 f   LIBCMT:_ldexp_.obj
 0001:0008e087       ___mtold12                 0048f087 f   LIBCMT:_mantold_.obj
 0001:0008e256       _RaiseException@16         0048f256 f   kernel32:KERNEL32.dll
 0002:00000000       __imp__InitCommonControls@0 00490000     comctl32:COMCTL32.dll
 0002:00000004       __imp__PropertySheetA@4    00490004     comctl32:COMCTL32.dll
 0002:00000008       \177COMCTL32_NULL_THUNK_DATA 00490008     comctl32:COMCTL32.dll
 0002:0000000c       __imp__CommDlgExtendedError@0 0049000c     comdlg32:COMDLG32.dll
 0002:00000010       __imp__GetSaveFileNameA@4  00490010     comdlg32:COMDLG32.dll
 0002:00000014       __imp__GetOpenFileNameA@4  00490014     comdlg32:COMDLG32.dll
 0002:00000018       \177COMDLG32_NULL_THUNK_DATA 00490018     comdlg32:COMDLG32.dll
 0002:0000001c       __imp__DirectDrawCreate@12 0049001c     ddraw:DDRAW.dll
 0002:00000020       \177DDRAW_NULL_THUNK_DATA  00490020     ddraw:DDRAW.dll
 0002:00000024       __imp__DirectInputCreateA@16 00490024     dinput:DINPUT.dll
 0002:00000028       \177DINPUT_NULL_THUNK_DATA 00490028     dinput:DINPUT.dll
 0002:0000002c       __imp__DirectSoundCreate@12 0049002c     dsound:DSOUND.dll
 0002:00000030       \177DSOUND_NULL_THUNK_DATA 00490030     dsound:DSOUND.dll
 0002:00000034       __imp__RealizePalette@4    00490034     gdi32:GDI32.dll
 0002:00000038       __imp__SelectPalette@12    00490038     gdi32:GDI32.dll
 0002:0000003c       __imp__CreatePalette@4     0049003c     gdi32:GDI32.dll
 0002:00000040       __imp__GetSystemPaletteEntries@16 00490040     gdi32:GDI32.dll
 0002:00000044       __imp__CreateSolidBrush@4  00490044     gdi32:GDI32.dll
 0002:00000048       __imp__DeleteDC@4          00490048     gdi32:GDI32.dll
 0002:0000004c       __imp__BitBlt@36           0049004c     gdi32:GDI32.dll
 0002:00000050       __imp__SelectObject@8      00490050     gdi32:GDI32.dll
 0002:00000054       __imp__CreateCompatibleDC@4 00490054     gdi32:GDI32.dll
 0002:00000058       __imp__CreateCompatibleBitmap@12 00490058     gdi32:GDI32.dll
 0002:0000005c       __imp__DeleteObject@4      0049005c     gdi32:GDI32.dll
 0002:00000060       __imp__SetDIBitsToDevice@48 00490060     gdi32:GDI32.dll
 0002:00000064       __imp__GetStockObject@4    00490064     gdi32:GDI32.dll
 0002:00000068       \177GDI32_NULL_THUNK_DATA  00490068     gdi32:GDI32.dll
 0002:0000006c       __imp__WriteConsoleA@20    0049006c     kernel32:KERNEL32.dll
 0002:00000070       __imp__GetSystemTimeAsFileTime@4 00490070     kernel32:KERNEL32.dll
 0002:00000074       __imp__GetCurrentProcessId@0 00490074     kernel32:KERNEL32.dll
 0002:00000078       __imp__GetEnvironmentStringsW@0 00490078     kernel32:KERNEL32.dll
 0002:0000007c       __imp__FreeEnvironmentStringsW@4 0049007c     kernel32:KERNEL32.dll
 0002:00000080       __imp__GetEnvironmentStrings@0 00490080     kernel32:KERNEL32.dll
 0002:00000084       __imp__FreeEnvironmentStringsA@4 00490084     kernel32:KERNEL32.dll
 0002:00000088       __imp__InitializeCriticalSectionAndSpinCount@8 00490088     kernel32:KERNEL32.dll
 0002:0000008c       __imp__InterlockedExchange@8 0049008c     kernel32:KERNEL32.dll
 0002:00000090       __imp__LCMapStringW@24     00490090     kernel32:KERNEL32.dll
 0002:00000094       __imp__LCMapStringA@24     00490094     kernel32:KERNEL32.dll
 0002:00000098       __imp__GetStartupInfoA@4   00490098     kernel32:KERNEL32.dll
 0002:0000009c       __imp__SetHandleCount@4    0049009c     kernel32:KERNEL32.dll
 0002:000000a0       __imp__SetStdHandle@8      004900a0     kernel32:KERNEL32.dll
 0002:000000a4       __imp__IsValidCodePage@4   004900a4     kernel32:KERNEL32.dll
 0002:000000a8       __imp__GetOEMCP@0          004900a8     kernel32:KERNEL32.dll
 0002:000000ac       __imp__GetACP@0            004900ac     kernel32:KERNEL32.dll
 0002:000000b0       __imp__GetCPInfo@8         004900b0     kernel32:KERNEL32.dll
 0002:000000b4       __imp__GetConsoleMode@8    004900b4     kernel32:KERNEL32.dll
 0002:000000b8       __imp__GetConsoleOutputCP@0 004900b8     kernel32:KERNEL32.dll
 0002:000000bc       __imp__RtlUnwind@16        004900bc     kernel32:KERNEL32.dll
 0002:000000c0       __imp__FatalAppExitA@8     004900c0     kernel32:KERNEL32.dll
 0002:000000c4       __imp__HeapDestroy@4       004900c4     kernel32:KERNEL32.dll
 0002:000000c8       __imp__HeapSize@12         004900c8     kernel32:KERNEL32.dll
 0002:000000cc       __imp__InterlockedDecrement@4 004900cc     kernel32:KERNEL32.dll
 0002:000000d0       __imp__SetLastError@4      004900d0     kernel32:KERNEL32.dll
 0002:000000d4       __imp__InterlockedIncrement@4 004900d4     kernel32:KERNEL32.dll
 0002:000000d8       __imp__CompareStringW@24   004900d8     kernel32:KERNEL32.dll
 0002:000000dc       __imp__TlsSetValue@8       004900dc     kernel32:KERNEL32.dll
 0002:000000e0       __imp__TlsAlloc@0          004900e0     kernel32:KERNEL32.dll
 0002:000000e4       __imp__TlsGetValue@4       004900e4     kernel32:KERNEL32.dll
 0002:000000e8       __imp__LoadLibraryW@4      004900e8     kernel32:KERNEL32.dll
 0002:000000ec       __imp__IsDebuggerPresent@0 004900ec     kernel32:KERNEL32.dll
 0002:000000f0       __imp__UnhandledExceptionFilter@4 004900f0     kernel32:KERNEL32.dll
 0002:000000f4       __imp__TerminateProcess@8  004900f4     kernel32:KERNEL32.dll
 0002:000000f8       __imp__GetCommandLineA@0   004900f8     kernel32:KERNEL32.dll
 0002:000000fc       __imp__CreateThread@24     004900fc     kernel32:KERNEL32.dll
 0002:00000100       __imp__ExitThread@4        00490100     kernel32:KERNEL32.dll
 0002:00000104       __imp__ExitProcess@4       00490104     kernel32:KERNEL32.dll
 0002:00000108       __imp__GetStringTypeA@20   00490108     kernel32:KERNEL32.dll
 0002:0000010c       __imp__GetStringTypeW@16   0049010c     kernel32:KERNEL32.dll
 0002:00000110       __imp__GetTimeFormatA@24   00490110     kernel32:KERNEL32.dll
 0002:00000114       __imp__GetDateFormatA@24   00490114     kernel32:KERNEL32.dll
 0002:00000118       __imp__GetUserDefaultLCID@0 00490118     kernel32:KERNEL32.dll
 0002:0000011c       __imp__GetLocaleInfoA@16   0049011c     kernel32:KERNEL32.dll
 0002:00000120       __imp__EnumSystemLocalesA@8 00490120     kernel32:KERNEL32.dll
 0002:00000124       __imp__IsValidLocale@8     00490124     kernel32:KERNEL32.dll
 0002:00000128       __imp__GetLocaleInfoW@16   00490128     kernel32:KERNEL32.dll
 0002:0000012c       __imp__SetEndOfFile@4      0049012c     kernel32:KERNEL32.dll
 0002:00000130       __imp__GetProcessHeap@0    00490130     kernel32:KERNEL32.dll
 0002:00000134       __imp__GetTimeZoneInformation@4 00490134     kernel32:KERNEL32.dll
 0002:00000138       __imp__GetConsoleCP@0      00490138     kernel32:KERNEL32.dll
 0002:0000013c       __imp__CompareStringA@24   0049013c     kernel32:KERNEL32.dll
 0002:00000140       __imp__GetModuleHandleW@4  00490140     kernel32:KERNEL32.dll
 0002:00000144       __imp__HeapAlloc@12        00490144     kernel32:KERNEL32.dll
 0002:00000148       __imp__HeapReAlloc@16      00490148     kernel32:KERNEL32.dll
 0002:0000014c       __imp__HeapFree@12         0049014c     kernel32:KERNEL32.dll
 0002:00000150       __imp__GetModuleFileNameW@12 00490150     kernel32:KERNEL32.dll
 0002:00000154       __imp__GetFileType@4       00490154     kernel32:KERNEL32.dll
 0002:00000158       __imp__WriteConsoleW@20    00490158     kernel32:KERNEL32.dll
 0002:0000015c       __imp__OutputDebugStringA@4 0049015c     kernel32:KERNEL32.dll
 0002:00000160       __imp__OutputDebugStringW@4 00490160     kernel32:KERNEL32.dll
 0002:00000164       __imp__VirtualAlloc@16     00490164     kernel32:KERNEL32.dll
 0002:00000168       __imp__VirtualFree@12      00490168     kernel32:KERNEL32.dll
 0002:0000016c       __imp__SetEvent@4          0049016c     kernel32:KERNEL32.dll
 0002:00000170       __imp__LeaveCriticalSection@4 00490170     kernel32:KERNEL32.dll
 0002:00000174       __imp__ReadConsoleInputA@16 00490174     kernel32:KERNEL32.dll
 0002:00000178       __imp__SetConsoleMode@8    00490178     kernel32:KERNEL32.dll
 0002:0000017c       __imp__PeekConsoleInputA@16 0049017c     kernel32:KERNEL32.dll
 0002:00000180       __imp__GetNumberOfConsoleInputEvents@8 00490180     kernel32:KERNEL32.dll
 0002:00000184       __imp__TlsFree@4           00490184     kernel32:KERNEL32.dll
 0002:00000188       __imp__SetEnvironmentVariableA@8 00490188     kernel32:KERNEL32.dll
 0002:0000018c       __imp__HeapCreate@12       0049018c     kernel32:KERNEL32.dll
 0002:00000190       __imp__EnterCriticalSection@4 00490190     kernel32:KERNEL32.dll
 0002:00000194       __imp__DeleteCriticalSection@4 00490194     kernel32:KERNEL32.dll
 0002:00000198       __imp__InitializeCriticalSection@4 00490198     kernel32:KERNEL32.dll
 0002:0000019c       __imp__FormatMessageA@28   0049019c     kernel32:KERNEL32.dll
 0002:000001a0       __imp__GetVersion@0        004901a0     kernel32:KERNEL32.dll
 0002:000001a4       __imp__GetConsoleScreenBufferInfo@8 004901a4     kernel32:KERNEL32.dll
 0002:000001a8       __imp__GetStdHandle@4      004901a8     kernel32:KERNEL32.dll
 0002:000001ac       __imp__SetThreadAffinityMask@8 004901ac     kernel32:KERNEL32.dll
 0002:000001b0       __imp__GetCurrentThread@0  004901b0     kernel32:KERNEL32.dll
 0002:000001b4       __imp__SetConsoleCtrlHandler@8 004901b4     kernel32:KERNEL32.dll
 0002:000001b8       __imp__SetUnhandledExceptionFilter@4 004901b8     kernel32:KERNEL32.dll
 0002:000001bc       __imp__SetErrorMode@4      004901bc     kernel32:KERNEL32.dll
 0002:000001c0       __imp__GetPrivateProfileStringA@24 004901c0     kernel32:KERNEL32.dll
 0002:000001c4       __imp__GetModuleFileNameA@12 004901c4     kernel32:KERNEL32.dll
 0002:000001c8       __imp__GetPrivateProfileSectionA@16 004901c8     kernel32:KERNEL32.dll
 0002:000001cc       __imp__GetFileAttributesA@4 004901cc     kernel32:KERNEL32.dll
 0002:000001d0       __imp__GetPrivateProfileIntA@16 004901d0     kernel32:KERNEL32.dll
 0002:000001d4       __imp__FreeConsole@0       004901d4     kernel32:KERNEL32.dll
 0002:000001d8       __imp__GetCurrentDirectoryA@8 004901d8     kernel32:KERNEL32.dll
 0002:000001dc       __imp__SetCurrentDirectoryA@4 004901dc     kernel32:KERNEL32.dll
 0002:000001e0       __imp__Sleep@4             004901e0     kernel32:KERNEL32.dll
 0002:000001e4       __imp__CloseHandle@4       004901e4     kernel32:KERNEL32.dll
 0002:000001e8       __imp__WaitForSingleObject@8 004901e8     kernel32:KERNEL32.dll
 0002:000001ec       __imp__FindFirstChangeNotificationA@12 004901ec     kernel32:KERNEL32.dll
 0002:000001f0       __imp__FindNextChangeNotification@4 004901f0     kernel32:KERNEL32.dll
 0002:000001f4       __imp__Beep@8              004901f4     kernel32:KERNEL32.dll
 0002:000001f8       __imp__GetCurrentThreadId@0 004901f8     kernel32:KERNEL32.dll
 0002:000001fc       __imp__SetPriorityClass@8  004901fc     kernel32:KERNEL32.dll
 0002:00000200       __imp__GetCurrentProcess@0 00490200     kernel32:KERNEL32.dll
 0002:00000204       __imp__LoadLibraryA@4      00490204     kernel32:KERNEL32.dll
 0002:00000208       __imp__GetProcAddress@8    00490208     kernel32:KERNEL32.dll
 0002:0000020c       __imp__GetModuleHandleA@4  0049020c     kernel32:KERNEL32.dll
 0002:00000210       __imp__FreeLibrary@4       00490210     kernel32:KERNEL32.dll
 0002:00000214       __imp__GetPrivateProfileSectionNamesA@12 00490214     kernel32:KERNEL32.dll
 0002:00000218       __imp__CreateFileA@28      00490218     kernel32:KERNEL32.dll
 0002:0000021c       __imp__GetCommProperties@8 0049021c     kernel32:KERNEL32.dll
 0002:00000220       __imp__WideCharToMultiByte@32 00490220     kernel32:KERNEL32.dll
 0002:00000224       __imp__FlushFileBuffers@4  00490224     kernel32:KERNEL32.dll
 0002:00000228       __imp__CreateEventA@16     00490228     kernel32:KERNEL32.dll
 0002:0000022c       __imp__ResetEvent@4        0049022c     kernel32:KERNEL32.dll
 0002:00000230       __imp__GetLastError@0      00490230     kernel32:KERNEL32.dll
 0002:00000234       __imp__FindFirstVolumeA@8  00490234     kernel32:KERNEL32.dll
 0002:00000238       __imp__FindNextVolumeA@12  00490238     kernel32:KERNEL32.dll
 0002:0000023c       __imp__DeviceIoControl@32  0049023c     kernel32:KERNEL32.dll
 0002:00000240       __imp__FindVolumeClose@4   00490240     kernel32:KERNEL32.dll
 0002:00000244       __imp__SetFilePointer@16   00490244     kernel32:KERNEL32.dll
 0002:00000248       __imp__ReadFile@20         00490248     kernel32:KERNEL32.dll
 0002:0000024c       __imp__WriteFile@20        0049024c     kernel32:KERNEL32.dll
 0002:00000250       __imp__GetTempPathA@8      00490250     kernel32:KERNEL32.dll
 0002:00000254       __imp__MultiByteToWideChar@24 00490254     kernel32:KERNEL32.dll
 0002:00000258       __imp__AreFileApisANSI@0   00490258     kernel32:KERNEL32.dll
 0002:0000025c       __imp__DeleteFileA@4       0049025c     kernel32:KERNEL32.dll
 0002:00000260       __imp__GetFullPathNameA@16 00490260     kernel32:KERNEL32.dll
 0002:00000264       __imp__SetConsoleTitleA@4  00490264     kernel32:KERNEL32.dll
 0002:00000268       __imp__FlushConsoleInputBuffer@4 00490268     kernel32:KERNEL32.dll
 0002:0000026c       __imp__GlobalLock@4        0049026c     kernel32:KERNEL32.dll
 0002:00000270       __imp__GlobalUnlock@4      00490270     kernel32:KERNEL32.dll
 0002:00000274       __imp__GetLocalTime@4      00490274     kernel32:KERNEL32.dll
 0002:00000278       __imp__DefineDosDeviceA@12 00490278     kernel32:KERNEL32.dll
 0002:0000027c       __imp__SetCommTimeouts@8   0049027c     kernel32:KERNEL32.dll
 0002:00000280       __imp__GetCommState@8      00490280     kernel32:KERNEL32.dll
 0002:00000284       __imp__SetCommState@8      00490284     kernel32:KERNEL32.dll
 0002:00000288       __imp__EscapeCommFunction@8 00490288     kernel32:KERNEL32.dll
 0002:0000028c       __imp__GetCommModemStatus@8 0049028c     kernel32:KERNEL32.dll
 0002:00000290       __imp__CreateProcessA@40   00490290     kernel32:KERNEL32.dll
 0002:00000294       __imp__GetTickCount@0      00490294     kernel32:KERNEL32.dll
 0002:00000298       __imp__CreateDirectoryA@8  00490298     kernel32:KERNEL32.dll
 0002:0000029c       __imp__GetExitCodeProcess@8 0049029c     kernel32:KERNEL32.dll
 0002:000002a0       __imp__FindFirstFileA@8    004902a0     kernel32:KERNEL32.dll
 0002:000002a4       __imp__FindNextFileA@8     004902a4     kernel32:KERNEL32.dll
 0002:000002a8       __imp__FindClose@4         004902a8     kernel32:KERNEL32.dll
 0002:000002ac       __imp__RemoveDirectoryA@4  004902ac     kernel32:KERNEL32.dll
 0002:000002b0       __imp__QueryPerformanceFrequency@4 004902b0     kernel32:KERNEL32.dll
 0002:000002b4       __imp__QueryPerformanceCounter@4 004902b4     kernel32:KERNEL32.dll
 0002:000002b8       __imp__SetConsoleTextAttribute@8 004902b8     kernel32:KERNEL32.dll
 0002:000002bc       __imp__RaiseException@16   004902bc     kernel32:KERNEL32.dll
 0002:000002c0       \177KERNEL32_NULL_THUNK_DATA 004902c0     kernel32:KERNEL32.dll
 0002:000002c4       __imp__SetupDiDestroyDeviceInfoList@4 004902c4     setupapi:SETUPAPI.dll
 0002:000002c8       __imp__SetupDiEnumDeviceInterfaces@20 004902c8     setupapi:SETUPAPI.dll
 0002:000002cc       __imp__SetupDiGetClassDevsA@16 004902cc     setupapi:SETUPAPI.dll
 0002:000002d0       \177SETUPAPI_NULL_THUNK_DATA 004902d0     setupapi:SETUPAPI.dll
 0002:000002d4       __imp__DragQueryFileA@16   004902d4     shell32:SHELL32.dll
 0002:000002d8       __imp__DragAcceptFiles@8   004902d8     shell32:SHELL32.dll
 0002:000002dc       __imp__DragFinish@4        004902dc     shell32:SHELL32.dll
 0002:000002e0       \177SHELL32_NULL_THUNK_DATA 004902e0     shell32:SHELL32.dll
 0002:000002e4       __imp__EnableWindow@8      004902e4     user32:USER32.dll
 0002:000002e8       __imp__ShowWindow@8        004902e8     user32:USER32.dll
 0002:000002ec       __imp__SendMessageA@16     004902ec     user32:USER32.dll
 0002:000002f0       __imp__GetDlgItemTextA@16  004902f0     user32:USER32.dll
 0002:000002f4       __imp__MessageBoxA@16      004902f4     user32:USER32.dll
 0002:000002f8       __imp__MessageBoxW@16      004902f8     user32:USER32.dll
 0002:000002fc       __imp__GetDlgItem@8        004902fc     user32:USER32.dll
 0002:00000300       __imp__AdjustWindowRect@12 00490300     user32:USER32.dll
 0002:00000304       __imp__DispatchMessageA@4  00490304     user32:USER32.dll
 0002:00000308       __imp__PtInRect@12         00490308     user32:USER32.dll
 0002:0000030c       __imp__MapWindowPoints@16  0049030c     user32:USER32.dll
 0002:00000310       __imp__PeekMessageA@20     00490310     user32:USER32.dll
 0002:00000314       __imp__GetParent@4         00490314     user32:USER32.dll
 0002:00000318       __imp__CloseClipboard@0    00490318     user32:USER32.dll
 0002:0000031c       __imp__GetClipboardData@4  0049031c     user32:USER32.dll
 0002:00000320       __imp__OpenClipboard@4     00490320     user32:USER32.dll
 0002:00000324       __imp__GetWindowTextA@12   00490324     user32:USER32.dll
 0002:00000328       __imp__EndPaint@8          00490328     user32:USER32.dll
 0002:0000032c       __imp__BeginPaint@8        0049032c     user32:USER32.dll
 0002:00000330       __imp__SetWindowPos@28     00490330     user32:USER32.dll
 0002:00000334       __imp__GetSystemMetrics@4  00490334     user32:USER32.dll
 0002:00000338       __imp__DestroyWindow@4     00490338     user32:USER32.dll
 0002:0000033c       __imp__ReleaseDC@8         0049033c     user32:USER32.dll
 0002:00000340       __imp__GetSystemMenu@8     00490340     user32:USER32.dll
 0002:00000344       __imp__GetDC@4             00490344     user32:USER32.dll
 0002:00000348       __imp__CreateWindowExA@48  00490348     user32:USER32.dll
 0002:0000034c       __imp__SystemParametersInfoA@16 0049034c     user32:USER32.dll
 0002:00000350       __imp__RegisterClassA@4    00490350     user32:USER32.dll
 0002:00000354       __imp__LoadCursorA@8       00490354     user32:USER32.dll
 0002:00000358       __imp__LoadIconA@8         00490358     user32:USER32.dll
 0002:0000035c       __imp__SetWindowTextA@8    0049035c     user32:USER32.dll
 0002:00000360       __imp__MoveWindow@24       00490360     user32:USER32.dll
 0002:00000364       __imp__CharToOemA@8        00490364     user32:USER32.dll
 0002:00000368       __imp__SetWindowLongA@12   00490368     user32:USER32.dll
 0002:0000036c       __imp__GetWindowRect@8     0049036c     user32:USER32.dll
 0002:00000370       __imp__GetWindowLongA@8    00490370     user32:USER32.dll
 0002:00000374       __imp__DefWindowProcA@16   00490374     user32:USER32.dll
 0002:00000378       __imp__FillRect@12         00490378     user32:USER32.dll
 0002:0000037c       __imp__SetCursor@4         0049037c     user32:USER32.dll
 0002:00000380       __imp__ClipCursor@4        00490380     user32:USER32.dll
 0002:00000384       __imp__ClientToScreen@8    00490384     user32:USER32.dll
 0002:00000388       __imp__GetClientRect@8     00490388     user32:USER32.dll
 0002:0000038c       __imp__ShowCursor@4        0049038c     user32:USER32.dll
 0002:00000390       __imp__IsRectEmpty@4       00490390     user32:USER32.dll
 0002:00000394       __imp__DestroyMenu@4       00490394     user32:USER32.dll
 0002:00000398       __imp__TrackPopupMenu@28   00490398     user32:USER32.dll
 0002:0000039c       __imp__AppendMenuA@16      0049039c     user32:USER32.dll
 0002:000003a0       __imp__CreatePopupMenu@0   004903a0     user32:USER32.dll
 0002:000003a4       __imp__PostThreadMessageA@16 004903a4     user32:USER32.dll
 0002:000003a8       __imp__CharToOemBuffA@12   004903a8     user32:USER32.dll
 0002:000003ac       __imp__ToAscii@20          004903ac     user32:USER32.dll
 0002:000003b0       __imp__GetKeyboardState@4  004903b0     user32:USER32.dll
 0002:000003b4       __imp__GetForegroundWindow@0 004903b4     user32:USER32.dll
 0002:000003b8       __imp__SetFocus@4          004903b8     user32:USER32.dll
 0002:000003bc       __imp__SetDlgItemTextA@12  004903bc     user32:USER32.dll
 0002:000003c0       __imp__CheckDlgButton@12   004903c0     user32:USER32.dll
 0002:000003c4       __imp__IsDlgButtonChecked@8 004903c4     user32:USER32.dll
 0002:000003c8       __imp__GetFocus@0          004903c8     user32:USER32.dll
 0002:000003cc       __imp__DialogBoxParamA@20  004903cc     user32:USER32.dll
 0002:000003d0       __imp__EndDialog@8         004903d0     user32:USER32.dll
 0002:000003d4       __imp__SendDlgItemMessageA@20 004903d4     user32:USER32.dll
 0002:000003d8       \177USER32_NULL_THUNK_DATA 004903d8     user32:USER32.dll
 0002:000003dc       __imp__waveOutUnprepareHeader@12 004903dc     winmm:WINMM.dll
 0002:000003e0       __imp__waveOutPrepareHeader@12 004903e0     winmm:WINMM.dll
 0002:000003e4       __imp__waveOutWrite@12     004903e4     winmm:WINMM.dll
 0002:000003e8       __imp__waveOutOpen@24      004903e8     winmm:WINMM.dll
 0002:000003ec       __imp__waveOutReset@4      004903ec     winmm:WINMM.dll
 0002:000003f0       __imp__waveOutClose@4      004903f0     winmm:WINMM.dll
 0002:000003f4       __imp__timeBeginPeriod@4   004903f4     winmm:WINMM.dll
 0002:000003f8       __imp__timeEndPeriod@4     004903f8     winmm:WINMM.dll
 0002:000003fc       \177WINMM_NULL_THUNK_DATA  004903fc     winmm:WINMM.dll
 0002:00000400       ___xc_a                    00490400     LIBCMT:crt0init.obj
 0002:00000434       ___xc_z                    00490434     LIBCMT:crt0init.obj
 0002:00000438       ___xi_a                    00490438     LIBCMT:crt0init.obj
 0002:00000454       ___xi_z                    00490454     LIBCMT:crt0init.obj
 0002:00000458       ___xp_a                    00490458     LIBCMT:crt0init.obj
 0002:00000464       ___xp_z                    00490464     LIBCMT:crt0init.obj
 0002:00000468       ___xt_a                    00490468     LIBCMT:crt0init.obj
 0002:0000046c       ___xt_z                    0049046c     LIBCMT:crt0init.obj
 0002:0000048c       _GUID_NULL                 0049048c     uuid:cguid_i.obj
 0002:0000049c       _CATID_MARSHALER           0049049c     uuid:cguid_i.obj
 0002:000004ac       _IID_IRpcChannel           004904ac     uuid:cguid_i.obj
 0002:000004bc       _IID_IRpcStub              004904bc     uuid:cguid_i.obj
 0002:000004cc       _IID_IStubManager          004904cc     uuid:cguid_i.obj
 0002:000004dc       _IID_IRpcProxy             004904dc     uuid:cguid_i.obj
 0002:000004ec       _IID_IProxyManager         004904ec     uuid:cguid_i.obj
 0002:000004fc       _IID_IPSFactory            004904fc     uuid:cguid_i.obj
 0002:0000050c       _IID_IInternalMoniker      0049050c     uuid:cguid_i.obj
 0002:0000051c       _IID_IDfReserved1          0049051c     uuid:cguid_i.obj
 0002:0000052c       _IID_IDfReserved2          0049052c     uuid:cguid_i.obj
 0002:0000053c       _IID_IDfReserved3          0049053c     uuid:cguid_i.obj
 0002:0000054c       _CLSID_StdMarshal          0049054c     uuid:cguid_i.obj
 0002:0000055c       _IID_IStub                 0049055c     uuid:cguid_i.obj
 0002:0000056c       _IID_IProxy                0049056c     uuid:cguid_i.obj
 0002:0000057c       _IID_IEnumGeneric          0049057c     uuid:cguid_i.obj
 0002:0000058c       _IID_IEnumHolder           0049058c     uuid:cguid_i.obj
 0002:0000059c       _IID_IEnumCallback         0049059c     uuid:cguid_i.obj
 0002:000005ac       _IID_IOleManager           004905ac     uuid:cguid_i.obj
 0002:000005bc       _IID_IOlePresObj           004905bc     uuid:cguid_i.obj
 0002:000005cc       _IID_IDebug                004905cc     uuid:cguid_i.obj
 0002:000005dc       _IID_IDebugStream          004905dc     uuid:cguid_i.obj
 0002:000005ec       _CLSID_PSGenObject         004905ec     uuid:cguid_i.obj
 0002:000005fc       _CLSID_PSClientSite        004905fc     uuid:cguid_i.obj
 0002:0000060c       _CLSID_PSClassObject       0049060c     uuid:cguid_i.obj
 0002:0000061c       _CLSID_PSInPlaceActive     0049061c     uuid:cguid_i.obj
 0002:0000062c       _CLSID_PSInPlaceFrame      0049062c     uuid:cguid_i.obj
 0002:0000063c       _CLSID_PSDragDrop          0049063c     uuid:cguid_i.obj
 0002:0000064c       _CLSID_PSBindCtx           0049064c     uuid:cguid_i.obj
 0002:0000065c       _CLSID_PSEnumerators       0049065c     uuid:cguid_i.obj
 0002:0000066c       _CLSID_StaticMetafile      0049066c     uuid:cguid_i.obj
 0002:0000067c       _CLSID_StaticDib           0049067c     uuid:cguid_i.obj
 0002:0000068c       _CLSID_Picture_Metafile    0049068c     uuid:cguid_i.obj
 0002:0000069c       _CLSID_Picture_EnhMetafile 0049069c     uuid:cguid_i.obj
 0002:000006ac       _CLSID_Picture_Dib         004906ac     uuid:cguid_i.obj
 0002:000006bc       _CLSID_DCOMAccessControl   004906bc     uuid:cguid_i.obj
 0002:000006cc       _CLSID_StdGlobalInterfaceTable 004906cc     uuid:cguid_i.obj
 0002:000006dc       _CLSID_ManualResetEvent    004906dc     uuid:cguid_i.obj
 0002:000006ec       _CLSID_StdEvent            004906ec     uuid:cguid_i.obj
 0002:000006fc       _CLSID_SynchronizeContainer 004906fc     uuid:cguid_i.obj
 0002:0000070c       _CLSID_ComBinding          0049070c     uuid:cguid_i.obj
 0002:0000071c       _CLSID_StdAsyncActManager  0049071c     uuid:cguid_i.obj
 0002:0000072c       _CLSID_InProcFreeMarshaler 0049072c     uuid:cguid_i.obj
 0002:0000073c       _CLSID_RemoteUnknownPSFactory 0049073c     uuid:cguid_i.obj
 0002:0000074c       _IID_IRichEditOle          0049074c     uuid:cguid_i.obj
 0002:0000075c       _IID_IRichEditOleCallback  0049075c     uuid:cguid_i.obj
 0002:0000076c       _CLSID_AllClasses          0049076c     uuid:cguid_i.obj
 0002:0000077c       _CLSID_LocalMachineClasses 0049077c     uuid:cguid_i.obj
 0002:0000078c       _CLSID_CurrentUserClasses  0049078c     uuid:cguid_i.obj
 0002:0000079c       _CLSID_AddrControl         0049079c     uuid:cguid_i.obj
 0002:000007ac       _CLSID_GlobalOptions       004907ac     uuid:cguid_i.obj
 0002:000007bc       _CLSID_SurrogateManager    004907bc     uuid:cguid_i.obj
 0002:000007cc       _CLSID_ContextSwitcher     004907cc     uuid:cguid_i.obj
 0002:000007dc       _IID_IPropertyFrame        004907dc     uuid:cguid_i.obj
 0002:000007ec       _CLSID_CFontPropPage       004907ec     uuid:cguid_i.obj
 0002:000007fc       _CLSID_CColorPropPage      004907fc     uuid:cguid_i.obj
 0002:0000080c       _CLSID_CPicturePropPage    0049080c     uuid:cguid_i.obj
 0002:0000081c       _CLSID_StockFontPage       0049081c     uuid:cguid_i.obj
 0002:0000082c       _CLSID_StockColorPage      0049082c     uuid:cguid_i.obj
 0002:0000083c       _CLSID_StockPicturePage    0049083c     uuid:cguid_i.obj
 0002:0000084c       _CLSID_PersistPropset      0049084c     uuid:cguid_i.obj
 0002:0000085c       _CLSID_ConvertVBX          0049085c     uuid:cguid_i.obj
 0002:0000086c       _CLSID_StdFont             0049086c     uuid:cguid_i.obj
 0002:0000087c       _CLSID_StdPicture          0049087c     uuid:cguid_i.obj
 0002:0000088c       _GUID_HIMETRIC             0049088c     uuid:cguid_i.obj
 0002:0000089c       _GUID_COLOR                0049089c     uuid:cguid_i.obj
 0002:000008ac       _GUID_XPOSPIXEL            004908ac     uuid:cguid_i.obj
 0002:000008bc       _GUID_YPOSPIXEL            004908bc     uuid:cguid_i.obj
 0002:000008cc       _GUID_XSIZEPIXEL           004908cc     uuid:cguid_i.obj
 0002:000008dc       _GUID_YSIZEPIXEL           004908dc     uuid:cguid_i.obj
 0002:000008ec       _GUID_XPOS                 004908ec     uuid:cguid_i.obj
 0002:000008fc       _GUID_YPOS                 004908fc     uuid:cguid_i.obj
 0002:0000090c       _GUID_XSIZE                0049090c     uuid:cguid_i.obj
 0002:0000091c       _GUID_YSIZE                0049091c     uuid:cguid_i.obj
 0002:0000092c       _GUID_TRISTATE             0049092c     uuid:cguid_i.obj
 0002:0000093c       _GUID_OPTIONVALUEEXCLUSIVE 0049093c     uuid:cguid_i.obj
 0002:0000094c       _GUID_CHECKVALUEEXCLUSIVE  0049094c     uuid:cguid_i.obj
 0002:0000095c       _GUID_FONTNAME             0049095c     uuid:cguid_i.obj
 0002:0000096c       _GUID_FONTSIZE             0049096c     uuid:cguid_i.obj
 0002:0000097c       _GUID_FONTBOLD             0049097c     uuid:cguid_i.obj
 0002:0000098c       _GUID_FONTITALIC           0049098c     uuid:cguid_i.obj
 0002:0000099c       _GUID_FONTUNDERSCORE       0049099c     uuid:cguid_i.obj
 0002:000009ac       _GUID_FONTSTRIKETHROUGH    004909ac     uuid:cguid_i.obj
 0002:000009bc       _GUID_HANDLE               004909bc     uuid:cguid_i.obj
 0002:000009cc       _IID_StdOle                004909cc     uuid:cguid_i.obj
 0002:000009dc       _IID_ICursor               004909dc     uuid:cguid_i.obj
 0002:000009ec       _IID_ICursorMove           004909ec     uuid:cguid_i.obj
 0002:000009fc       _IID_ICursorScroll         004909fc     uuid:cguid_i.obj
 0002:00000a0c       _IID_ICursorUpdateARow     00490a0c     uuid:cguid_i.obj
 0002:00000a1c       _IID_INotifyDBEvents       00490a1c     uuid:cguid_i.obj
 0002:00000a2c       _IID_ICursorFind           00490a2c     uuid:cguid_i.obj
 0002:00000a3c       _IID_IEntryID              00490a3c     uuid:cguid_i.obj
 0002:00000a4c       __GUID_NAMEONLY            00490a4c     uuid:cguid_i.obj
 0002:00000a5c       __DBBMKGUID                00490a5c     uuid:cguid_i.obj
 0002:00000a6c       __DBCIDGUID                00490a6c     uuid:cguid_i.obj
 0002:00000a7c       _IID_IBoundObject          00490a7c     uuid:cguid_i.obj
 0002:00000a8c       _IID_IBoundObjectSite      00490a8c     uuid:cguid_i.obj
 0002:00000a9c       _CLSID_GblComponentCategoriesMgr 00490a9c     uuid:cguid_i.obj
 0002:00000aac       _CLSID_ThumbnailFCNHandler 00490aac     uuid:cguid_i.obj
 0002:00000abc       _CLSID_ThumbnailUpdater    00490abc     uuid:cguid_i.obj
 0002:00000acc       _GUID_DEVCLASS_1394        00490acc     uuid:cguid_i.obj
 0002:00000adc       _GUID_DEVCLASS_1394DEBUG   00490adc     uuid:cguid_i.obj
 0002:00000aec       _GUID_DEVCLASS_61883       00490aec     uuid:cguid_i.obj
 0002:00000afc       _GUID_DEVCLASS_ADAPTER     00490afc     uuid:cguid_i.obj
 0002:00000b0c       _GUID_DEVCLASS_APMSUPPORT  00490b0c     uuid:cguid_i.obj
 0002:00000b1c       _GUID_DEVCLASS_AVC         00490b1c     uuid:cguid_i.obj
 0002:00000b2c       _GUID_DEVCLASS_BATTERY     00490b2c     uuid:cguid_i.obj
 0002:00000b3c       _GUID_DEVCLASS_BIOMETRIC   00490b3c     uuid:cguid_i.obj
 0002:00000b4c       _GUID_DEVCLASS_BLUETOOTH   00490b4c     uuid:cguid_i.obj
 0002:00000b5c       _GUID_DEVCLASS_CDROM       00490b5c     uuid:cguid_i.obj
 0002:00000b6c       _GUID_DEVCLASS_COMPUTER    00490b6c     uuid:cguid_i.obj
 0002:00000b7c       _GUID_DEVCLASS_DECODER     00490b7c     uuid:cguid_i.obj
 0002:00000b8c       _GUID_DEVCLASS_DISKDRIVE   00490b8c     uuid:cguid_i.obj
 0002:00000b9c       _GUID_DEVCLASS_DISPLAY     00490b9c     uuid:cguid_i.obj
 0002:00000bac       _GUID_DEVCLASS_DOT4        00490bac     uuid:cguid_i.obj
 0002:00000bbc       _GUID_DEVCLASS_DOT4PRINT   00490bbc     uuid:cguid_i.obj
 0002:00000bcc       _GUID_DEVCLASS_ENUM1394    00490bcc     uuid:cguid_i.obj
 0002:00000bdc       _GUID_DEVCLASS_FDC         00490bdc     uuid:cguid_i.obj
 0002:00000bec       _GUID_DEVCLASS_FLOPPYDISK  00490bec     uuid:cguid_i.obj
 0002:00000bfc       _GUID_DEVCLASS_GPS         00490bfc     uuid:cguid_i.obj
 0002:00000c0c       _GUID_DEVCLASS_HDC         00490c0c     uuid:cguid_i.obj
 0002:00000c1c       _GUID_DEVCLASS_HIDCLASS    00490c1c     uuid:cguid_i.obj
 0002:00000c2c       _GUID_DEVCLASS_IMAGE       00490c2c     uuid:cguid_i.obj
 0002:00000c3c       _GUID_DEVCLASS_INFINIBAND  00490c3c     uuid:cguid_i.obj
 0002:00000c4c       _GUID_DEVCLASS_INFRARED    00490c4c     uuid:cguid_i.obj
 0002:00000c5c       _GUID_DEVCLASS_KEYBOARD    00490c5c     uuid:cguid_i.obj
 0002:00000c6c       _GUID_DEVCLASS_LEGACYDRIVER 00490c6c     uuid:cguid_i.obj
 0002:00000c7c       _GUID_DEVCLASS_MEDIA       00490c7c     uuid:cguid_i.obj
 0002:00000c8c       _GUID_DEVCLASS_MEDIUM_CHANGER 00490c8c     uuid:cguid_i.obj
 0002:00000c9c       _GUID_DEVCLASS_MODEM       00490c9c     uuid:cguid_i.obj
 0002:00000cac       _GUID_DEVCLASS_MONITOR     00490cac     uuid:cguid_i.obj
 0002:00000cbc       _GUID_DEVCLASS_MOUSE       00490cbc     uuid:cguid_i.obj
 0002:00000ccc       _GUID_DEVCLASS_MTD         00490ccc     uuid:cguid_i.obj
 0002:00000cdc       _GUID_DEVCLASS_MULTIFUNCTION 00490cdc     uuid:cguid_i.obj
 0002:00000cec       _GUID_DEVCLASS_MULTIPORTSERIAL 00490cec     uuid:cguid_i.obj
 0002:00000cfc       _GUID_DEVCLASS_NET         00490cfc     uuid:cguid_i.obj
 0002:00000d0c       _GUID_DEVCLASS_NETCLIENT   00490d0c     uuid:cguid_i.obj
 0002:00000d1c       _GUID_DEVCLASS_NETSERVICE  00490d1c     uuid:cguid_i.obj
 0002:00000d2c       _GUID_DEVCLASS_NETTRANS    00490d2c     uuid:cguid_i.obj
 0002:00000d3c       _GUID_DEVCLASS_NODRIVER    00490d3c     uuid:cguid_i.obj
 0002:00000d4c       _GUID_DEVCLASS_PCMCIA      00490d4c     uuid:cguid_i.obj
 0002:00000d5c       _GUID_DEVCLASS_PNPPRINTERS 00490d5c     uuid:cguid_i.obj
 0002:00000d6c       _GUID_DEVCLASS_PORTS       00490d6c     uuid:cguid_i.obj
 0002:00000d7c       _GUID_DEVCLASS_PRINTER     00490d7c     uuid:cguid_i.obj
 0002:00000d8c       _GUID_DEVCLASS_PRINTERUPGRADE 00490d8c     uuid:cguid_i.obj
 0002:00000d9c       _GUID_DEVCLASS_PROCESSOR   00490d9c     uuid:cguid_i.obj
 0002:00000dac       _GUID_DEVCLASS_SBP2        00490dac     uuid:cguid_i.obj
 0002:00000dbc       _GUID_DEVCLASS_SCSIADAPTER 00490dbc     uuid:cguid_i.obj
 0002:00000dcc       _GUID_DEVCLASS_SECURITYACCELERATOR 00490dcc     uuid:cguid_i.obj
 0002:00000ddc       _GUID_DEVCLASS_SIDESHOW    00490ddc     uuid:cguid_i.obj
 0002:00000dec       _GUID_DEVCLASS_SMARTCARDREADER 00490dec     uuid:cguid_i.obj
 0002:00000dfc       _GUID_DEVCLASS_SOUND       00490dfc     uuid:cguid_i.obj
 0002:00000e0c       _GUID_DEVCLASS_SYSTEM      00490e0c     uuid:cguid_i.obj
 0002:00000e1c       _GUID_DEVCLASS_TAPEDRIVE   00490e1c     uuid:cguid_i.obj
 0002:00000e2c       _GUID_DEVCLASS_UNKNOWN     00490e2c     uuid:cguid_i.obj
 0002:00000e3c       _GUID_DEVCLASS_USB         00490e3c     uuid:cguid_i.obj
 0002:00000e4c       _GUID_DEVCLASS_VOLUME      00490e4c     uuid:cguid_i.obj
 0002:00000e5c       _GUID_DEVCLASS_VOLUMESNAPSHOT 00490e5c     uuid:cguid_i.obj
 0002:00000e6c       _GUID_DEVCLASS_WCEUSBS     00490e6c     uuid:cguid_i.obj
 0002:00000e7c       _GUID_DEVCLASS_WPD         00490e7c     uuid:cguid_i.obj
 0002:00000e8c       _GUID_DEVCLASS_FSFILTER_ACTIVITYMONITOR 00490e8c     uuid:cguid_i.obj
 0002:00000e9c       _GUID_DEVCLASS_FSFILTER_UNDELETE 00490e9c     uuid:cguid_i.obj
 0002:00000eac       _GUID_DEVCLASS_FSFILTER_ANTIVIRUS 00490eac     uuid:cguid_i.obj
 0002:00000ebc       _GUID_DEVCLASS_FSFILTER_REPLICATION 00490ebc     uuid:cguid_i.obj
 0002:00000ecc       _GUID_DEVCLASS_FSFILTER_CONTINUOUSBACKUP 00490ecc     uuid:cguid_i.obj
 0002:00000edc       _GUID_DEVCLASS_FSFILTER_CONTENTSCREENER 00490edc     uuid:cguid_i.obj
 0002:00000eec       _GUID_DEVCLASS_FSFILTER_QUOTAMANAGEMENT 00490eec     uuid:cguid_i.obj
 0002:00000efc       _GUID_DEVCLASS_FSFILTER_SYSTEMRECOVERY 00490efc     uuid:cguid_i.obj
 0002:00000f0c       _GUID_DEVCLASS_FSFILTER_CFSMETADATASERVER 00490f0c     uuid:cguid_i.obj
 0002:00000f1c       _GUID_DEVCLASS_FSFILTER_HSM 00490f1c     uuid:cguid_i.obj
 0002:00000f2c       _GUID_DEVCLASS_FSFILTER_COMPRESSION 00490f2c     uuid:cguid_i.obj
 0002:00000f3c       _GUID_DEVCLASS_FSFILTER_ENCRYPTION 00490f3c     uuid:cguid_i.obj
 0002:00000f4c       _GUID_DEVCLASS_FSFILTER_PHYSICALQUOTAMANAGEMENT 00490f4c     uuid:cguid_i.obj
 0002:00000f5c       _GUID_DEVCLASS_FSFILTER_OPENFILEBACKUP 00490f5c     uuid:cguid_i.obj
 0002:00000f6c       _GUID_DEVCLASS_FSFILTER_SECURITYENHANCER 00490f6c     uuid:cguid_i.obj
 0002:00000f7c       _GUID_DEVCLASS_FSFILTER_COPYPROTECTION 00490f7c     uuid:cguid_i.obj
 0002:00000f8c       _GUID_DEVCLASS_FSFILTER_SYSTEM 00490f8c     uuid:cguid_i.obj
 0002:00000f9c       _GUID_DEVCLASS_FSFILTER_INFRASTRUCTURE 00490f9c     uuid:cguid_i.obj
 0002:00000fac       _GUID_DEVINTERFACE_DISK    00490fac     uuid:cguid_i.obj
 0002:00000fbc       _GUID_DEVINTERFACE_CDROM   00490fbc     uuid:cguid_i.obj
 0002:00000fcc       _GUID_DEVINTERFACE_PARTITION 00490fcc     uuid:cguid_i.obj
 0002:00000fdc       _GUID_DEVINTERFACE_TAPE    00490fdc     uuid:cguid_i.obj
 0002:00000fec       _GUID_DEVINTERFACE_WRITEONCEDISK 00490fec     uuid:cguid_i.obj
 0002:00000ffc       _GUID_DEVINTERFACE_VOLUME  00490ffc     uuid:cguid_i.obj
 0002:0000100c       _GUID_DEVINTERFACE_MEDIUMCHANGER 0049100c     uuid:cguid_i.obj
 0002:0000101c       _GUID_DEVINTERFACE_FLOPPY  0049101c     uuid:cguid_i.obj
 0002:0000102c       _GUID_DEVINTERFACE_CDCHANGER 0049102c     uuid:cguid_i.obj
 0002:0000103c       _GUID_DEVINTERFACE_STORAGEPORT 0049103c     uuid:cguid_i.obj
 0002:0000104c       _GUID_DEVINTERFACE_COMPORT 0049104c     uuid:cguid_i.obj
 0002:0000105c       _GUID_DEVINTERFACE_SERENUM_BUS_ENUMERATOR 0049105c     uuid:cguid_i.obj
 0002:0000106c       _c_dfDIJoystick            0049106c     dinput:dilib3.obj
 0002:00001084       _c_dfDIKeyboard            00491084     dinput:dilib2.obj
 0002:0000109c       _c_dfDIMouse               0049109c     dinput:dilib1.obj
 0002:000010b4       _GUID_MAX_POWER_SAVINGS    004910b4     dxguid:dxguid.obj
 0002:000010c4       _GUID_MIN_POWER_SAVINGS    004910c4     dxguid:dxguid.obj
 0002:000010d4       _GUID_TYPICAL_POWER_SAVINGS 004910d4     dxguid:dxguid.obj
 0002:000010e4       _NO_SUBGROUP_GUID          004910e4     dxguid:dxguid.obj
 0002:000010f4       _ALL_POWERSCHEMES_GUID     004910f4     dxguid:dxguid.obj
 0002:00001104       _GUID_POWERSCHEME_PERSONALITY 00491104     dxguid:dxguid.obj
 0002:00001114       _GUID_ACTIVE_POWERSCHEME   00491114     dxguid:dxguid.obj
 0002:00001124       _GUID_VIDEO_SUBGROUP       00491124     dxguid:dxguid.obj
 0002:00001134       _GUID_VIDEO_POWERDOWN_TIMEOUT 00491134     dxguid:dxguid.obj
 0002:00001144       _GUID_VIDEO_ANNOYANCE_TIMEOUT 00491144     dxguid:dxguid.obj
 0002:00001154       _GUID_VIDEO_ADAPTIVE_PERCENT_INCREASE 00491154     dxguid:dxguid.obj
 0002:00001164       _GUID_VIDEO_DIM_TIMEOUT    00491164     dxguid:dxguid.obj
 0002:00001174       _GUID_VIDEO_ADAPTIVE_POWERDOWN 00491174     dxguid:dxguid.obj
 0002:00001184       _GUID_MONITOR_POWER_ON     00491184     dxguid:dxguid.obj
 0002:00001194       _GUID_DEVICE_POWER_POLICY_VIDEO_BRIGHTNESS 00491194     dxguid:dxguid.obj
 0002:000011a4       _GUID_DEVICE_POWER_POLICY_VIDEO_DIM_BRIGHTNESS 004911a4     dxguid:dxguid.obj
 0002:000011b4       _GUID_VIDEO_CURRENT_MONITOR_BRIGHTNESS 004911b4     dxguid:dxguid.obj
 0002:000011c4       _GUID_VIDEO_ADAPTIVE_DISPLAY_BRIGHTNESS 004911c4     dxguid:dxguid.obj
 0002:000011d4       _GUID_SESSION_DISPLAY_STATE 004911d4     dxguid:dxguid.obj
 0002:000011e4       _GUID_CONSOLE_DISPLAY_STATE 004911e4     dxguid:dxguid.obj
 0002:000011f4       _GUID_ALLOW_DISPLAY_REQUIRED 004911f4     dxguid:dxguid.obj
 0002:00001204       _GUID_DISK_SUBGROUP        00491204     dxguid:dxguid.obj
 0002:00001214       _GUID_DISK_POWERDOWN_TIMEOUT 00491214     dxguid:dxguid.obj
 0002:00001224       _GUID_DISK_BURST_IGNORE_THRESHOLD 00491224     dxguid:dxguid.obj
 0002:00001234       _GUID_DISK_ADAPTIVE_POWERDOWN 00491234     dxguid:dxguid.obj
 0002:00001244       _GUID_SLEEP_SUBGROUP       00491244     dxguid:dxguid.obj
 0002:00001254       _GUID_SLEEP_IDLE_THRESHOLD 00491254     dxguid:dxguid.obj
 0002:00001264       _GUID_STANDBY_TIMEOUT      00491264     dxguid:dxguid.obj
 0002:00001274       _GUID_UNATTEND_SLEEP_TIMEOUT 00491274     dxguid:dxguid.obj
 0002:00001284       _GUID_HIBERNATE_TIMEOUT    00491284     dxguid:dxguid.obj
 0002:00001294       _GUID_HIBERNATE_FASTS4_POLICY 00491294     dxguid:dxguid.obj
 0002:000012a4       _GUID_CRITICAL_POWER_TRANSITION 004912a4     dxguid:dxguid.obj
 0002:000012b4       _GUID_SYSTEM_AWAYMODE      004912b4     dxguid:dxguid.obj
 0002:000012c4       _GUID_ALLOW_AWAYMODE       004912c4     dxguid:dxguid.obj
 0002:000012d4       _GUID_ALLOW_STANDBY_STATES 004912d4     dxguid:dxguid.obj
 0002:000012e4       _GUID_ALLOW_RTC_WAKE       004912e4     dxguid:dxguid.obj
 0002:000012f4       _GUID_ALLOW_SYSTEM_REQUIRED 004912f4     dxguid:dxguid.obj
 0002:00001304       _GUID_SYSTEM_BUTTON_SUBGROUP 00491304     dxguid:dxguid.obj
 0002:00001314       _GUID_POWERBUTTON_ACTION   00491314     dxguid:dxguid.obj
 0002:00001324       _GUID_POWERBUTTON_ACTION_FLAGS 00491324     dxguid:dxguid.obj
 0002:00001334       _GUID_SLEEPBUTTON_ACTION   00491334     dxguid:dxguid.obj
 0002:00001344       _GUID_SLEEPBUTTON_ACTION_FLAGS 00491344     dxguid:dxguid.obj
 0002:00001354       _GUID_USERINTERFACEBUTTON_ACTION 00491354     dxguid:dxguid.obj
 0002:00001364       _GUID_LIDCLOSE_ACTION      00491364     dxguid:dxguid.obj
 0002:00001374       _GUID_LIDCLOSE_ACTION_FLAGS 00491374     dxguid:dxguid.obj
 0002:00001384       _GUID_LIDOPEN_POWERSTATE   00491384     dxguid:dxguid.obj
 0002:00001394       _GUID_BATTERY_SUBGROUP     00491394     dxguid:dxguid.obj
 0002:000013a4       _GUID_BATTERY_DISCHARGE_ACTION_0 004913a4     dxguid:dxguid.obj
 0002:000013b4       _GUID_BATTERY_DISCHARGE_LEVEL_0 004913b4     dxguid:dxguid.obj
 0002:000013c4       _GUID_BATTERY_DISCHARGE_FLAGS_0 004913c4     dxguid:dxguid.obj
 0002:000013d4       _GUID_BATTERY_DISCHARGE_ACTION_1 004913d4     dxguid:dxguid.obj
 0002:000013e4       _GUID_BATTERY_DISCHARGE_LEVEL_1 004913e4     dxguid:dxguid.obj
 0002:000013f4       _GUID_BATTERY_DISCHARGE_FLAGS_1 004913f4     dxguid:dxguid.obj
 0002:00001404       _GUID_BATTERY_DISCHARGE_ACTION_2 00491404     dxguid:dxguid.obj
 0002:00001414       _GUID_BATTERY_DISCHARGE_LEVEL_2 00491414     dxguid:dxguid.obj
 0002:00001424       _GUID_BATTERY_DISCHARGE_FLAGS_2 00491424     dxguid:dxguid.obj
 0002:00001434       _GUID_BATTERY_DISCHARGE_ACTION_3 00491434     dxguid:dxguid.obj
 0002:00001444       _GUID_BATTERY_DISCHARGE_LEVEL_3 00491444     dxguid:dxguid.obj
 0002:00001454       _GUID_BATTERY_DISCHARGE_FLAGS_3 00491454     dxguid:dxguid.obj
 0002:00001464       _GUID_PROCESSOR_SETTINGS_SUBGROUP 00491464     dxguid:dxguid.obj
 0002:00001474       _GUID_PROCESSOR_THROTTLE_POLICY 00491474     dxguid:dxguid.obj
 0002:00001484       _GUID_PROCESSOR_THROTTLE_MAXIMUM 00491484     dxguid:dxguid.obj
 0002:00001494       _GUID_PROCESSOR_THROTTLE_MINIMUM 00491494     dxguid:dxguid.obj
 0002:000014a4       _GUID_PROCESSOR_ALLOW_THROTTLING 004914a4     dxguid:dxguid.obj
 0002:000014b4       _GUID_PROCESSOR_IDLESTATE_POLICY 004914b4     dxguid:dxguid.obj
 0002:000014c4       _GUID_PROCESSOR_PERFSTATE_POLICY 004914c4     dxguid:dxguid.obj
 0002:000014d4       _GUID_PROCESSOR_PERF_INCREASE_THRESHOLD 004914d4     dxguid:dxguid.obj
 0002:000014e4       _GUID_PROCESSOR_PERF_DECREASE_THRESHOLD 004914e4     dxguid:dxguid.obj
 0002:000014f4       _GUID_PROCESSOR_PERF_INCREASE_POLICY 004914f4     dxguid:dxguid.obj
 0002:00001504       _GUID_PROCESSOR_PERF_DECREASE_POLICY 00491504     dxguid:dxguid.obj
 0002:00001514       _GUID_PROCESSOR_PERF_INCREASE_TIME 00491514     dxguid:dxguid.obj
 0002:00001524       _GUID_PROCESSOR_PERF_DECREASE_TIME 00491524     dxguid:dxguid.obj
 0002:00001534       _GUID_PROCESSOR_PERF_TIME_CHECK 00491534     dxguid:dxguid.obj
 0002:00001544       _GUID_PROCESSOR_PERF_BOOST_POLICY 00491544     dxguid:dxguid.obj
 0002:00001554       _GUID_PROCESSOR_IDLE_ALLOW_SCALING 00491554     dxguid:dxguid.obj
 0002:00001564       _GUID_PROCESSOR_IDLE_DISABLE 00491564     dxguid:dxguid.obj
 0002:00001574       _GUID_PROCESSOR_IDLE_TIME_CHECK 00491574     dxguid:dxguid.obj
 0002:00001584       _GUID_PROCESSOR_IDLE_DEMOTE_THRESHOLD 00491584     dxguid:dxguid.obj
 0002:00001594       _GUID_PROCESSOR_IDLE_PROMOTE_THRESHOLD 00491594     dxguid:dxguid.obj
 0002:000015a4       _GUID_PROCESSOR_CORE_PARKING_INCREASE_THRESHOLD 004915a4     dxguid:dxguid.obj
 0002:000015b4       _GUID_PROCESSOR_CORE_PARKING_DECREASE_THRESHOLD 004915b4     dxguid:dxguid.obj
 0002:000015c4       _GUID_PROCESSOR_CORE_PARKING_INCREASE_POLICY 004915c4     dxguid:dxguid.obj
 0002:000015d4       _GUID_PROCESSOR_CORE_PARKING_DECREASE_POLICY 004915d4     dxguid:dxguid.obj
 0002:000015e4       _GUID_PROCESSOR_CORE_PARKING_MAX_CORES 004915e4     dxguid:dxguid.obj
 0002:000015f4       _GUID_PROCESSOR_CORE_PARKING_MIN_CORES 004915f4     dxguid:dxguid.obj
 0002:00001604       _GUID_PROCESSOR_CORE_PARKING_INCREASE_TIME 00491604     dxguid:dxguid.obj
 0002:00001614       _GUID_PROCESSOR_CORE_PARKING_DECREASE_TIME 00491614     dxguid:dxguid.obj
 0002:00001624       _GUID_PROCESSOR_CORE_PARKING_AFFINITY_HISTORY_DECREASE_FACTOR 00491624     dxguid:dxguid.obj
 0002:00001634       _GUID_PROCESSOR_CORE_PARKING_AFFINITY_HISTORY_THRESHOLD 00491634     dxguid:dxguid.obj
 0002:00001644       _GUID_PROCESSOR_CORE_PARKING_AFFINITY_WEIGHTING 00491644     dxguid:dxguid.obj
 0002:00001654       _GUID_PROCESSOR_CORE_PARKING_OVER_UTILIZATION_HISTORY_DECREASE_FACTOR 00491654     dxguid:dxguid.obj
 0002:00001664       _GUID_PROCESSOR_CORE_PARKING_OVER_UTILIZATION_HISTORY_THRESHOLD 00491664     dxguid:dxguid.obj
 0002:00001674       _GUID_PROCESSOR_CORE_PARKING_OVER_UTILIZATION_WEIGHTING 00491674     dxguid:dxguid.obj
 0002:00001684       _GUID_PROCESSOR_CORE_PARKING_OVER_UTILIZATION_THRESHOLD 00491684     dxguid:dxguid.obj
 0002:00001694       _GUID_PROCESSOR_PARKING_CORE_OVERRIDE 00491694     dxguid:dxguid.obj
 0002:000016a4       _GUID_PROCESSOR_PARKING_PERF_STATE 004916a4     dxguid:dxguid.obj
 0002:000016b4       _GUID_PROCESSOR_PERF_HISTORY 004916b4     dxguid:dxguid.obj
 0002:000016c4       _GUID_SYSTEM_COOLING_POLICY 004916c4     dxguid:dxguid.obj
 0002:000016d4       _GUID_LOCK_CONSOLE_ON_WAKE 004916d4     dxguid:dxguid.obj
 0002:000016e4       _GUID_DEVICE_IDLE_POLICY   004916e4     dxguid:dxguid.obj
 0002:000016f4       _GUID_ACDC_POWER_SOURCE    004916f4     dxguid:dxguid.obj
 0002:00001704       _GUID_LIDSWITCH_STATE_CHANGE 00491704     dxguid:dxguid.obj
 0002:00001714       _GUID_BATTERY_PERCENTAGE_REMAINING 00491714     dxguid:dxguid.obj
 0002:00001724       _GUID_IDLE_BACKGROUND_TASK 00491724     dxguid:dxguid.obj
 0002:00001734       _GUID_BACKGROUND_TASK_NOTIFICATION 00491734     dxguid:dxguid.obj
 0002:00001744       _GUID_APPLAUNCH_BUTTON     00491744     dxguid:dxguid.obj
 0002:00001754       _GUID_PCIEXPRESS_SETTINGS_SUBGROUP 00491754     dxguid:dxguid.obj
 0002:00001764       _GUID_PCIEXPRESS_ASPM_POLICY 00491764     dxguid:dxguid.obj
 0002:00001774       _GUID_ENABLE_SWITCH_FORCED_SHUTDOWN 00491774     dxguid:dxguid.obj
 0002:00001784       _PPM_PERFSTATE_CHANGE_GUID 00491784     dxguid:dxguid.obj
 0002:00001794       _PPM_PERFSTATE_DOMAIN_CHANGE_GUID 00491794     dxguid:dxguid.obj
 0002:000017a4       _PPM_IDLESTATE_CHANGE_GUID 004917a4     dxguid:dxguid.obj
 0002:000017b4       _PPM_PERFSTATES_DATA_GUID  004917b4     dxguid:dxguid.obj
 0002:000017c4       _PPM_IDLESTATES_DATA_GUID  004917c4     dxguid:dxguid.obj
 0002:000017d4       _PPM_IDLE_ACCOUNTING_GUID  004917d4     dxguid:dxguid.obj
 0002:000017e4       _PPM_IDLE_ACCOUNTING_EX_GUID 004917e4     dxguid:dxguid.obj
 0002:000017f4       _PPM_THERMALCONSTRAINT_GUID 004917f4     dxguid:dxguid.obj
 0002:00001804       _PPM_PERFMON_PERFSTATE_GUID 00491804     dxguid:dxguid.obj
 0002:00001814       _PPM_THERMAL_POLICY_CHANGE_GUID 00491814     dxguid:dxguid.obj
 0002:00001824       _NETWORK_MANAGER_FIRST_IP_ADDRESS_ARRIVAL_GUID 00491824     dxguid:dxguid.obj
 0002:00001834       _NETWORK_MANAGER_LAST_IP_ADDRESS_REMOVAL_GUID 00491834     dxguid:dxguid.obj
 0002:00001844       _DOMAIN_JOIN_GUID          00491844     dxguid:dxguid.obj
 0002:00001854       _DOMAIN_LEAVE_GUID         00491854     dxguid:dxguid.obj
 0002:00001864       _FIREWALL_PORT_OPEN_GUID   00491864     dxguid:dxguid.obj
 0002:00001874       _FIREWALL_PORT_CLOSE_GUID  00491874     dxguid:dxguid.obj
 0002:00001884       _MACHINE_POLICY_PRESENT_GUID 00491884     dxguid:dxguid.obj
 0002:00001894       _USER_POLICY_PRESENT_GUID  00491894     dxguid:dxguid.obj
 0002:000018a4       _CLSID_DirectDraw          004918a4     dxguid:dxguid.obj
 0002:000018b4       _CLSID_DirectDraw7         004918b4     dxguid:dxguid.obj
 0002:000018c4       _CLSID_DirectDrawClipper   004918c4     dxguid:dxguid.obj
 0002:000018d4       _IID_IDirectDraw           004918d4     dxguid:dxguid.obj
 0002:000018e4       _IID_IDirectDraw2          004918e4     dxguid:dxguid.obj
 0002:000018f4       _IID_IDirectDraw4          004918f4     dxguid:dxguid.obj
 0002:00001904       _IID_IDirectDraw7          00491904     dxguid:dxguid.obj
 0002:00001914       _IID_IDirectDrawSurface    00491914     dxguid:dxguid.obj
 0002:00001924       _IID_IDirectDrawSurface2   00491924     dxguid:dxguid.obj
 0002:00001934       _IID_IDirectDrawSurface3   00491934     dxguid:dxguid.obj
 0002:00001944       _IID_IDirectDrawSurface4   00491944     dxguid:dxguid.obj
 0002:00001954       _IID_IDirectDrawSurface7   00491954     dxguid:dxguid.obj
 0002:00001964       _IID_IDirectDrawSurfaceNew 00491964     dxguid:dxguid.obj
 0002:00001974       _CLSID_DirectDrawFactory2  00491974     dxguid:dxguid.obj
 0002:00001984       _IID_IDirectDrawFactory2   00491984     dxguid:dxguid.obj
 0002:00001994       _GUID_DirectDrawSurfaceStream 00491994     dxguid:dxguid.obj
 0002:000019a4       _GUID_DirectDrawPaletteStream 004919a4     dxguid:dxguid.obj
 0002:000019b4       _IID_IDirectDrawOptSurface 004919b4     dxguid:dxguid.obj
 0002:000019c4       _IID_IDirectDrawPalette2   004919c4     dxguid:dxguid.obj
 0002:000019d4       _IID_IDirectDrawPalette    004919d4     dxguid:dxguid.obj
 0002:000019e4       _IID_IDirectDrawClipper    004919e4     dxguid:dxguid.obj
 0002:000019f4       _IID_IDirectDrawColorControl 004919f4     dxguid:dxguid.obj
 0002:00001a04       _IID_IDirectDrawGammaControl 00491a04     dxguid:dxguid.obj
 0002:00001a14       _GUID_MiscellaneousCallbacks 00491a14     dxguid:dxguid.obj
 0002:00001a24       _GUID_VideoPortCallbacks   00491a24     dxguid:dxguid.obj
 0002:00001a34       _GUID_ColorControlCallbacks 00491a34     dxguid:dxguid.obj
 0002:00001a44       _GUID_VideoPortCaps        00491a44     dxguid:dxguid.obj
 0002:00001a54       _GUID_D3DCallbacks2        00491a54     dxguid:dxguid.obj
 0002:00001a64       _GUID_D3DCallbacks3        00491a64     dxguid:dxguid.obj
 0002:00001a74       _GUID_NonLocalVidMemCaps   00491a74     dxguid:dxguid.obj
 0002:00001a84       _GUID_KernelCallbacks      00491a84     dxguid:dxguid.obj
 0002:00001a94       _GUID_KernelCaps           00491a94     dxguid:dxguid.obj
 0002:00001aa4       _GUID_D3DExtendedCaps      00491aa4     dxguid:dxguid.obj
 0002:00001ab4       _GUID_ZPixelFormats        00491ab4     dxguid:dxguid.obj
 0002:00001ac4       _GUID_DDMoreSurfaceCaps    00491ac4     dxguid:dxguid.obj
 0002:00001ad4       _GUID_DDStereoMode         00491ad4     dxguid:dxguid.obj
 0002:00001ae4       _GUID_OptSurfaceKmodeInfo  00491ae4     dxguid:dxguid.obj
 0002:00001af4       _GUID_OptSurfaceUmodeInfo  00491af4     dxguid:dxguid.obj
 0002:00001b04       _GUID_UserModeDriverInfo   00491b04     dxguid:dxguid.obj
 0002:00001b14       _GUID_UserModeDriverPassword 00491b14     dxguid:dxguid.obj
 0002:00001b24       _GUID_D3DParseUnknownCommandCallback 00491b24     dxguid:dxguid.obj
 0002:00001b34       _GUID_MotionCompCallbacks  00491b34     dxguid:dxguid.obj
 0002:00001b44       _GUID_NTCallbacks          00491b44     dxguid:dxguid.obj
 0002:00001b54       _GUID_Miscellaneous2Callbacks 00491b54     dxguid:dxguid.obj
 0002:00001b64       _GUID_DDMoreCaps           00491b64     dxguid:dxguid.obj
 0002:00001b74       _IID_IDDVideoPortContainer 00491b74     dxguid:dxguid.obj
 0002:00001b84       _IID_IDirectDrawVideoPort  00491b84     dxguid:dxguid.obj
 0002:00001b94       _IID_IDirectDrawVideoPortNotify 00491b94     dxguid:dxguid.obj
 0002:00001ba4       _DDVPTYPE_E_HREFH_VREFH    00491ba4     dxguid:dxguid.obj
 0002:00001bb4       _DDVPTYPE_E_HREFH_VREFL    00491bb4     dxguid:dxguid.obj
 0002:00001bc4       _DDVPTYPE_E_HREFL_VREFH    00491bc4     dxguid:dxguid.obj
 0002:00001bd4       _DDVPTYPE_E_HREFL_VREFL    00491bd4     dxguid:dxguid.obj
 0002:00001be4       _DDVPTYPE_CCIR656          00491be4     dxguid:dxguid.obj
 0002:00001bf4       _DDVPTYPE_BROOKTREE        00491bf4     dxguid:dxguid.obj
 0002:00001c04       _DDVPTYPE_PHILIPS          00491c04     dxguid:dxguid.obj
 0002:00001c14       _TID_D3DRMInfo             00491c14     dxguid:dxguid.obj
 0002:00001c24       _TID_D3DRMMesh             00491c24     dxguid:dxguid.obj
 0002:00001c34       _TID_D3DRMVector           00491c34     dxguid:dxguid.obj
 0002:00001c44       _TID_D3DRMMeshFace         00491c44     dxguid:dxguid.obj
 0002:00001c54       _TID_D3DRMMaterial         00491c54     dxguid:dxguid.obj
 0002:00001c64       _TID_D3DRMMaterialArray    00491c64     dxguid:dxguid.obj
 0002:00001c74       _TID_D3DRMFrame            00491c74     dxguid:dxguid.obj
 0002:00001c84       _TID_D3DRMFrameTransformMatrix 00491c84     dxguid:dxguid.obj
 0002:00001c94       _TID_D3DRMMeshMaterialList 00491c94     dxguid:dxguid.obj
 0002:00001ca4       _TID_D3DRMMeshTextureCoords 00491ca4     dxguid:dxguid.obj
 0002:00001cb4       _TID_D3DRMMeshNormals      00491cb4     dxguid:dxguid.obj
 0002:00001cc4       _TID_D3DRMCoords2d         00491cc4     dxguid:dxguid.obj
 0002:00001cd4       _TID_D3DRMMatrix4x4        00491cd4     dxguid:dxguid.obj
 0002:00001ce4       _TID_D3DRMAnimation        00491ce4     dxguid:dxguid.obj
 0002:00001cf4       _TID_D3DRMAnimationSet     00491cf4     dxguid:dxguid.obj
 0002:00001d04       _TID_D3DRMAnimationKey     00491d04     dxguid:dxguid.obj
 0002:00001d14       _TID_D3DRMFloatKeys        00491d14     dxguid:dxguid.obj
 0002:00001d24       _TID_D3DRMMaterialAmbientColor 00491d24     dxguid:dxguid.obj
 0002:00001d34       _TID_D3DRMMaterialDiffuseColor 00491d34     dxguid:dxguid.obj
 0002:00001d44       _TID_D3DRMMaterialSpecularColor 00491d44     dxguid:dxguid.obj
 0002:00001d54       _TID_D3DRMMaterialEmissiveColor 00491d54     dxguid:dxguid.obj
 0002:00001d64       _TID_D3DRMMaterialPower    00491d64     dxguid:dxguid.obj
 0002:00001d74       _TID_D3DRMColorRGBA        00491d74     dxguid:dxguid.obj
 0002:00001d84       _TID_D3DRMColorRGB         00491d84     dxguid:dxguid.obj
 0002:00001d94       _TID_D3DRMGuid             00491d94     dxguid:dxguid.obj
 0002:00001da4       _TID_D3DRMTextureFilename  00491da4     dxguid:dxguid.obj
 0002:00001db4       _TID_D3DRMTextureReference 00491db4     dxguid:dxguid.obj
 0002:00001dc4       _TID_D3DRMIndexedColor     00491dc4     dxguid:dxguid.obj
 0002:00001dd4       _TID_D3DRMMeshVertexColors 00491dd4     dxguid:dxguid.obj
 0002:00001de4       _TID_D3DRMMaterialWrap     00491de4     dxguid:dxguid.obj
 0002:00001df4       _TID_D3DRMBoolean          00491df4     dxguid:dxguid.obj
 0002:00001e04       _TID_D3DRMMeshFaceWraps    00491e04     dxguid:dxguid.obj
 0002:00001e14       _TID_D3DRMBoolean2d        00491e14     dxguid:dxguid.obj
 0002:00001e24       _TID_D3DRMTimedFloatKeys   00491e24     dxguid:dxguid.obj
 0002:00001e34       _TID_D3DRMAnimationOptions 00491e34     dxguid:dxguid.obj
 0002:00001e44       _TID_D3DRMFramePosition    00491e44     dxguid:dxguid.obj
 0002:00001e54       _TID_D3DRMFrameVelocity    00491e54     dxguid:dxguid.obj
 0002:00001e64       _TID_D3DRMFrameRotation    00491e64     dxguid:dxguid.obj
 0002:00001e74       _TID_D3DRMLight            00491e74     dxguid:dxguid.obj
 0002:00001e84       _TID_D3DRMCamera           00491e84     dxguid:dxguid.obj
 0002:00001e94       _TID_D3DRMAppData          00491e94     dxguid:dxguid.obj
 0002:00001ea4       _TID_D3DRMLightUmbra       00491ea4     dxguid:dxguid.obj
 0002:00001eb4       _TID_D3DRMLightRange       00491eb4     dxguid:dxguid.obj
 0002:00001ec4       _TID_D3DRMLightPenumbra    00491ec4     dxguid:dxguid.obj
 0002:00001ed4       _TID_D3DRMLightAttenuation 00491ed4     dxguid:dxguid.obj
 0002:00001ee4       _TID_D3DRMInlineData       00491ee4     dxguid:dxguid.obj
 0002:00001ef4       _TID_D3DRMUrl              00491ef4     dxguid:dxguid.obj
 0002:00001f04       _TID_D3DRMProgressiveMesh  00491f04     dxguid:dxguid.obj
 0002:00001f14       _TID_D3DRMExternalVisual   00491f14     dxguid:dxguid.obj
 0002:00001f24       _TID_D3DRMStringProperty   00491f24     dxguid:dxguid.obj
 0002:00001f34       _TID_D3DRMPropertyBag      00491f34     dxguid:dxguid.obj
 0002:00001f44       _TID_D3DRMRightHanded      00491f44     dxguid:dxguid.obj
 0002:00001f54       _CLSID_CDirectXFile        00491f54     dxguid:dxguid.obj
 0002:00001f64       _IID_IDirectXFile          00491f64     dxguid:dxguid.obj
 0002:00001f74       _IID_IDirectXFileEnumObject 00491f74     dxguid:dxguid.obj
 0002:00001f84       _IID_IDirectXFileSaveObject 00491f84     dxguid:dxguid.obj
 0002:00001f94       _IID_IDirectXFileObject    00491f94     dxguid:dxguid.obj
 0002:00001fa4       _IID_IDirectXFileData      00491fa4     dxguid:dxguid.obj
 0002:00001fb4       _IID_IDirectXFileDataReference 00491fb4     dxguid:dxguid.obj
 0002:00001fc4       _IID_IDirectXFileBinary    00491fc4     dxguid:dxguid.obj
 0002:00001fd4       _TID_DXFILEHeader          00491fd4     dxguid:dxguid.obj
 0002:00001fe4       _CLSID_DirectInput         00491fe4     dxguid:dxguid.obj
 0002:00001ff4       _CLSID_DirectInputDevice   00491ff4     dxguid:dxguid.obj
 0002:00002004       _CLSID_DirectInput8        00492004     dxguid:dxguid.obj
 0002:00002014       _CLSID_DirectInputDevice8  00492014     dxguid:dxguid.obj
 0002:00002024       _IID_IDirectInputA         00492024     dxguid:dxguid.obj
 0002:00002034       _IID_IDirectInputW         00492034     dxguid:dxguid.obj
 0002:00002044       _IID_IDirectInput2A        00492044     dxguid:dxguid.obj
 0002:00002054       _IID_IDirectInput2W        00492054     dxguid:dxguid.obj
 0002:00002064       _IID_IDirectInput7A        00492064     dxguid:dxguid.obj
 0002:00002074       _IID_IDirectInput7W        00492074     dxguid:dxguid.obj
 0002:00002084       _IID_IDirectInput8A        00492084     dxguid:dxguid.obj
 0002:00002094       _IID_IDirectInput8W        00492094     dxguid:dxguid.obj
 0002:000020a4       _IID_IDirectInputDeviceA   004920a4     dxguid:dxguid.obj
 0002:000020b4       _IID_IDirectInputDeviceW   004920b4     dxguid:dxguid.obj
 0002:000020c4       _IID_IDirectInputDevice2A  004920c4     dxguid:dxguid.obj
 0002:000020d4       _IID_IDirectInputDevice2W  004920d4     dxguid:dxguid.obj
 0002:000020e4       _IID_IDirectInputDevice7A  004920e4     dxguid:dxguid.obj
 0002:000020f4       _IID_IDirectInputDevice7W  004920f4     dxguid:dxguid.obj
 0002:00002104       _IID_IDirectInputDevice8A  00492104     dxguid:dxguid.obj
 0002:00002114       _IID_IDirectInputDevice8W  00492114     dxguid:dxguid.obj
 0002:00002124       _IID_IDirectInputEffect    00492124     dxguid:dxguid.obj
 0002:00002134       _GUID_XAxis                00492134     dxguid:dxguid.obj
 0002:00002144       _GUID_YAxis                00492144     dxguid:dxguid.obj
 0002:00002154       _GUID_ZAxis                00492154     dxguid:dxguid.obj
 0002:00002164       _GUID_RxAxis               00492164     dxguid:dxguid.obj
 0002:00002174       _GUID_RyAxis               00492174     dxguid:dxguid.obj
 0002:00002184       _GUID_RzAxis               00492184     dxguid:dxguid.obj
 0002:00002194       _GUID_Slider               00492194     dxguid:dxguid.obj
 0002:000021a4       _GUID_Button               004921a4     dxguid:dxguid.obj
 0002:000021b4       _GUID_Key                  004921b4     dxguid:dxguid.obj
 0002:000021c4       _GUID_POV                  004921c4     dxguid:dxguid.obj
 0002:000021d4       _GUID_Unknown              004921d4     dxguid:dxguid.obj
 0002:000021e4       _GUID_SysMouse             004921e4     dxguid:dxguid.obj
 0002:000021f4       _GUID_SysKeyboard          004921f4     dxguid:dxguid.obj
 0002:00002204       _GUID_Joystick             00492204     dxguid:dxguid.obj
 0002:00002214       _GUID_SysMouseEm           00492214     dxguid:dxguid.obj
 0002:00002224       _GUID_SysMouseEm2          00492224     dxguid:dxguid.obj
 0002:00002234       _GUID_SysKeyboardEm        00492234     dxguid:dxguid.obj
 0002:00002244       _GUID_SysKeyboardEm2       00492244     dxguid:dxguid.obj
 0002:00002254       _GUID_ConstantForce        00492254     dxguid:dxguid.obj
 0002:00002264       _GUID_RampForce            00492264     dxguid:dxguid.obj
 0002:00002274       _GUID_Square               00492274     dxguid:dxguid.obj
 0002:00002284       _GUID_Sine                 00492284     dxguid:dxguid.obj
 0002:00002294       _GUID_Triangle             00492294     dxguid:dxguid.obj
 0002:000022a4       _GUID_SawtoothUp           004922a4     dxguid:dxguid.obj
 0002:000022b4       _GUID_SawtoothDown         004922b4     dxguid:dxguid.obj
 0002:000022c4       _GUID_Spring               004922c4     dxguid:dxguid.obj
 0002:000022d4       _GUID_Damper               004922d4     dxguid:dxguid.obj
 0002:000022e4       _GUID_Inertia              004922e4     dxguid:dxguid.obj
 0002:000022f4       _GUID_Friction             004922f4     dxguid:dxguid.obj
 0002:00002304       _GUID_CustomForce          00492304     dxguid:dxguid.obj
 0002:00002314       _IID_IDirectInputEffectDriver 00492314     dxguid:dxguid.obj
 0002:00002324       _IID_IDirectInputJoyConfig 00492324     dxguid:dxguid.obj
 0002:00002334       _IID_IDirectInputPIDDriver 00492334     dxguid:dxguid.obj
 0002:00002344       _IID_IDirectInputJoyConfig8 00492344     dxguid:dxguid.obj
 0002:00002354       _GUID_KeyboardClass        00492354     dxguid:dxguid.obj
 0002:00002364       _GUID_MediaClass           00492364     dxguid:dxguid.obj
 0002:00002374       _GUID_MouseClass           00492374     dxguid:dxguid.obj
 0002:00002384       _GUID_HIDClass             00492384     dxguid:dxguid.obj
 0002:00002394       _CLSID_DirectSound         00492394     dxguid:dxguid.obj
 0002:000023a4       _CLSID_DirectSound8        004923a4     dxguid:dxguid.obj
 0002:000023b4       _CLSID_DirectSoundCapture  004923b4     dxguid:dxguid.obj
 0002:000023c4       _CLSID_DirectSoundCapture8 004923c4     dxguid:dxguid.obj
 0002:000023d4       _CLSID_DirectSoundFullDuplex 004923d4     dxguid:dxguid.obj
 0002:000023e4       _DSDEVID_DefaultPlayback   004923e4     dxguid:dxguid.obj
 0002:000023f4       _DSDEVID_DefaultCapture    004923f4     dxguid:dxguid.obj
 0002:00002404       _DSDEVID_DefaultVoicePlayback 00492404     dxguid:dxguid.obj
 0002:00002414       _DSDEVID_DefaultVoiceCapture 00492414     dxguid:dxguid.obj
 0002:00002424       _IID_IReferenceClock       00492424     dxguid:dxguid.obj
 0002:00002434       _IID_IDirectSound          00492434     dxguid:dxguid.obj
 0002:00002444       _IID_IDirectSound8         00492444     dxguid:dxguid.obj
 0002:00002454       _IID_IDirectSoundBuffer    00492454     dxguid:dxguid.obj
 0002:00002464       _IID_IDirectSoundBuffer8   00492464     dxguid:dxguid.obj
 0002:00002474       _GUID_All_Objects          00492474     dxguid:dxguid.obj
 0002:00002484       _IID_IDirectSound3DListener 00492484     dxguid:dxguid.obj
 0002:00002494       _IID_IDirectSound3DBuffer  00492494     dxguid:dxguid.obj
 0002:000024a4       _IID_IDirectSoundCapture   004924a4     dxguid:dxguid.obj
 0002:000024b4       _IID_IDirectSoundCaptureBuffer 004924b4     dxguid:dxguid.obj
 0002:000024c4       _IID_IDirectSoundCaptureBuffer8 004924c4     dxguid:dxguid.obj
 0002:000024d4       _IID_IDirectSoundNotify    004924d4     dxguid:dxguid.obj
 0002:000024e4       _IID_IKsPropertySet        004924e4     dxguid:dxguid.obj
 0002:000024f4       _IID_IDirectSoundFXGargle  004924f4     dxguid:dxguid.obj
 0002:00002504       _IID_IDirectSoundFXChorus  00492504     dxguid:dxguid.obj
 0002:00002514       _IID_IDirectSoundFXFlanger 00492514     dxguid:dxguid.obj
 0002:00002524       _IID_IDirectSoundFXEcho    00492524     dxguid:dxguid.obj
 0002:00002534       _IID_IDirectSoundFXDistortion 00492534     dxguid:dxguid.obj
 0002:00002544       _IID_IDirectSoundFXCompressor 00492544     dxguid:dxguid.obj
 0002:00002554       _IID_IDirectSoundFXParamEq 00492554     dxguid:dxguid.obj
 0002:00002564       _IID_IDirectSoundFXI3DL2Reverb 00492564     dxguid:dxguid.obj
 0002:00002574       _IID_IDirectSoundFXWavesReverb 00492574     dxguid:dxguid.obj
 0002:00002584       _IID_IDirectSoundCaptureFXAec 00492584     dxguid:dxguid.obj
 0002:00002594       _IID_IDirectSoundCaptureFXNoiseSuppress 00492594     dxguid:dxguid.obj
 0002:000025a4       _IID_IDirectSoundFullDuplex 004925a4     dxguid:dxguid.obj
 0002:000025b4       _DS3DALG_NO_VIRTUALIZATION 004925b4     dxguid:dxguid.obj
 0002:000025c4       _DS3DALG_HRTF_FULL         004925c4     dxguid:dxguid.obj
 0002:000025d4       _DS3DALG_HRTF_LIGHT        004925d4     dxguid:dxguid.obj
 0002:000025e4       _GUID_DSFX_STANDARD_GARGLE 004925e4     dxguid:dxguid.obj
 0002:000025f4       _GUID_DSFX_STANDARD_CHORUS 004925f4     dxguid:dxguid.obj
 0002:00002604       _GUID_DSFX_STANDARD_FLANGER 00492604     dxguid:dxguid.obj
 0002:00002614       _GUID_DSFX_STANDARD_ECHO   00492614     dxguid:dxguid.obj
 0002:00002624       _GUID_DSFX_STANDARD_DISTORTION 00492624     dxguid:dxguid.obj
 0002:00002634       _GUID_DSFX_STANDARD_COMPRESSOR 00492634     dxguid:dxguid.obj
 0002:00002644       _GUID_DSFX_STANDARD_PARAMEQ 00492644     dxguid:dxguid.obj
 0002:00002654       _GUID_DSFX_STANDARD_I3DL2REVERB 00492654     dxguid:dxguid.obj
 0002:00002664       _GUID_DSFX_WAVES_REVERB    00492664     dxguid:dxguid.obj
 0002:00002674       _GUID_DSCFX_CLASS_AEC      00492674     dxguid:dxguid.obj
 0002:00002684       _GUID_DSCFX_MS_AEC         00492684     dxguid:dxguid.obj
 0002:00002694       _GUID_DSCFX_SYSTEM_AEC     00492694     dxguid:dxguid.obj
 0002:000026a4       _GUID_DSCFX_CLASS_NS       004926a4     dxguid:dxguid.obj
 0002:000026b4       _GUID_DSCFX_MS_NS          004926b4     dxguid:dxguid.obj
 0002:000026c4       _GUID_DSCFX_SYSTEM_NS      004926c4     dxguid:dxguid.obj
 0002:000026d4       _CLSID_DxDiagProvider      004926d4     dxguid:dxguid.obj
 0002:000026e4       _IID_IDxDiagProvider       004926e4     dxguid:dxguid.obj
 0002:000026f4       _IID_IDxDiagContainer      004926f4     dxguid:dxguid.obj
 0002:00002704       ??_C@_0BD@LPNICIME@DMUS_S_DOWN_OCTAVE?$AA@ 00492704     dxerr8:dxerr8.obj
 0002:00002718       ??_C@_0BH@FNODNEAH@DMUS_S_NOBUFFERCONTROL?$AA@ 00492718     dxerr8:dxerr8.obj
 0002:00002730       ??_C@_0BJ@IHINBNLH@DMUS_S_GARBAGE_COLLECTED?$AA@ 00492730     dxerr8:dxerr8.obj
 0002:0000274c       ??_C@_07NBCGADJA@Unknown?$AA@ 0049274c     dxerr8:dxerr8.obj
 0002:00002754       ??_C@_0BB@MGKFCACM@DMUS_S_UP_OCTAVE?$AA@ 00492754     dxerr8:dxerr8.obj
 0002:00002768       ??_C@_0L@NNNOGBKL@DMUS_S_END?$AA@ 00492768     dxerr8:dxerr8.obj
 0002:00002774       ??_C@_0BI@NMGBNNIP@DMUS_S_STRING_TRUNCATED?$AA@ 00492774     dxerr8:dxerr8.obj
 0002:0000278c       ??_C@_0BB@MCCNJHCC@DMUS_S_LAST_TOOL?$AA@ 0049278c     dxerr8:dxerr8.obj
 0002:000027a0       ??_C@_0BC@LONJEINH@DMUS_S_OVER_CHORD?$AA@ 004927a0     dxerr8:dxerr8.obj
 0002:000027b4       ??_C@_0M@JAHKOHIB@DMUS_S_FREE?$AA@ 004927b4     dxerr8:dxerr8.obj
 0002:000027c0       ??_C@_0BD@JGPHAIAK@DMUS_S_PARTIALLOAD?$AA@ 004927c0     dxerr8:dxerr8.obj
 0002:000027d4       ??_C@_0BH@IGELEIII@DMUS_S_PARTIALDOWNLOAD?$AA@ 004927d4     dxerr8:dxerr8.obj
 0002:000027ec       ??_C@_0P@KIIEDJKE@DMUS_S_REQUEUE?$AA@ 004927ec     dxerr8:dxerr8.obj
 0002:000027fc       ??_C@_0O@EIAKKDMP@DS_INCOMPLETE?$AA@ 004927fc     dxerr8:dxerr8.obj
 0002:0000280c       ??_C@_0O@LHGABCAF@DV_FULLDUPLEX?$AA@ 0049280c     dxerr8:dxerr8.obj
 0002:0000281c       ??_C@_0O@FKJDAEFJ@DV_HALFDUPLEX?$AA@ 0049281c     dxerr8:dxerr8.obj
 0002:0000282c       ??_C@_0L@BDBMAOOE@DV_PENDING?$AA@ 0049282c     dxerr8:dxerr8.obj
 0002:00002838       ??_C@_0BF@FPKGLJFC@DS_NO_VIRTUALIZATION?$AA@ 00492838     dxerr8:dxerr8.obj
 0002:00002850       ??_C@_0BH@PNHNMKDE@VFW_S_DVD_NOT_ACCURATE?$AA@ 00492850     dxerr8:dxerr8.obj
 0002:00002868       ??_C@_0BD@IJNLBJPC@VFW_S_NOPREVIEWPIN?$AA@ 00492868     dxerr8:dxerr8.obj
 0002:0000287c       ??_C@_0BN@PGBCJHOL@VFW_S_DVD_NON_ONE_SEQUENTIAL?$AA@ 0049287c     dxerr8:dxerr8.obj
 0002:0000289c       ??_C@_0CJ@ICAPHCNK@VFW_S_DVD_CHANNEL_CONTENTS_NOT_A@ 0049289c     dxerr8:dxerr8.obj
 0002:000028c8       ??_C@_0BD@PDOJBBAK@VFW_S_NO_STOP_TIME?$AA@ 004928c8     dxerr8:dxerr8.obj
 0002:000028dc       ??_C@_0BA@OPNPNBPH@VFW_S_ESTIMATED?$AA@ 004928dc     dxerr8:dxerr8.obj
 0002:000028ec       ??_C@_0P@JAOBCGFI@VFW_S_RESERVED?$AA@ 004928ec     dxerr8:dxerr8.obj
 0002:000028fc       ??_C@_0BB@KOLEIGMN@VFW_S_STREAM_OFF?$AA@ 004928fc     dxerr8:dxerr8.obj
 0002:00002910       ??_C@_0P@PLPJKDIN@VFW_S_CANT_CUE?$AA@ 00492910     dxerr8:dxerr8.obj
 0002:00002920       ??_C@_0L@ODJAOMGF@VFW_S_RPZA?$AA@ 00492920     dxerr8:dxerr8.obj
 0002:0000292c       ??_C@_0BK@MJFGKMPI@VFW_S_RESOURCE_NOT_NEEDED?$AA@ 0049292c     dxerr8:dxerr8.obj
 0002:00002948       ??_C@_0BJ@ENMAMHIG@VFW_S_MEDIA_TYPE_IGNORED?$AA@ 00492948     dxerr8:dxerr8.obj
 0002:00002964       ??_C@_0BJ@JHKGLDFI@VFW_S_VIDEO_NOT_RENDERED?$AA@ 00492964     dxerr8:dxerr8.obj
 0002:00002980       ??_C@_0BJ@FLKCPFMD@VFW_S_AUDIO_NOT_RENDERED?$AA@ 00492980     dxerr8:dxerr8.obj
 0002:0000299c       ??_C@_0BL@EMJCALGE@VFW_S_CONNECTIONS_DEFERRED?$AA@ 0049299c     dxerr8:dxerr8.obj
 0002:000029b8       ??_C@_0BF@KKAOBKEG@VFW_S_DUPLICATE_NAME?$AA@ 004929b8     dxerr8:dxerr8.obj
 0002:000029d0       ??_C@_0BJ@CLNBGKKL@VFW_S_STATE_INTERMEDIATE?$AA@ 004929d0     dxerr8:dxerr8.obj
 0002:000029ec       ??_C@_0BF@OFOMPAMJ@VFW_S_PARTIAL_RENDER?$AA@ 004929ec     dxerr8:dxerr8.obj
 0002:00002a04       ??_C@_0BI@JMPENICD@VFW_S_SOME_DATA_IGNORED?$AA@ 00492a04     dxerr8:dxerr8.obj
 0002:00002a1c       ??_C@_0BE@NHDFDKAC@VFW_S_NO_MORE_ITEMS?$AA@ 00492a1c     dxerr8:dxerr8.obj
 0002:00002a30       ??_C@_0BE@MEDMEGJL@ERROR_INVALID_BLOCK?$AA@ 00492a30     dxerr8:dxerr8.obj
 0002:00002a44       ??_C@_0BG@PPEEIFCE@ERROR_BAD_ENVIRONMENT?$AA@ 00492a44     dxerr8:dxerr8.obj
 0002:00002a5c       ??_C@_0BB@GLNJNPBJ@ERROR_BAD_FORMAT?$AA@ 00492a5c     dxerr8:dxerr8.obj
 0002:00002a70       ??_C@_0BC@GJIJMKLH@ERROR_OUTOFMEMORY?$AA@ 00492a70     dxerr8:dxerr8.obj
 0002:00002a84       ??_C@_0BI@DDJDPHHD@ERROR_NOT_ENOUGH_MEMORY?$AA@ 00492a84     dxerr8:dxerr8.obj
 0002:00002a9c       ??_C@_0BF@LEKBGAHP@ERROR_PATH_NOT_FOUND?$AA@ 00492a9c     dxerr8:dxerr8.obj
 0002:00002ab4       ??_C@_0BK@BHKKKJME@ERROR_TOO_MANY_OPEN_FILES?$AA@ 00492ab4     dxerr8:dxerr8.obj
 0002:00002ad0       ??_C@_0BE@PONDHKAH@ERROR_ACCESS_DENIED?$AA@ 00492ad0     dxerr8:dxerr8.obj
 0002:00002ae4       ??_C@_0BF@FHABIGNG@ERROR_INVALID_HANDLE?$AA@ 00492ae4     dxerr8:dxerr8.obj
 0002:00002afc       ??_C@_0BF@JBMLEBKN@ERROR_FILE_NOT_FOUND?$AA@ 00492afc     dxerr8:dxerr8.obj
 0002:00002b14       ??_C@_07BKENBJEJ@S_FALSE?$AA@ 00492b14     dxerr8:dxerr8.obj
 0002:00002b1c       ??_C@_04LNELPODO@S_OK?$AA@ 00492b1c     dxerr8:dxerr8.obj
 0002:00002b24       ??_C@_0CA@FAFCGLAE@DMUS_E_INVALID_CONTAINER_OBJECT?$AA@ 00492b24     dxerr8:dxerr8.obj
 0002:00002b44       ??_C@_0CC@NEEJAHCC@DMUS_E_AUDIOPATH_NOGLOBALFXBUFFE@ 00492b44     dxerr8:dxerr8.obj
 0002:00002b68       ??_C@_0BE@JOAJPCEO@DMUS_E_INVALIDCHUNK?$AA@ 00492b68     dxerr8:dxerr8.obj
 0002:00002b7c       ??_C@_0BE@DLJGKPFC@DMUS_E_NO_AUDIOPATH?$AA@ 00492b7c     dxerr8:dxerr8.obj
 0002:00002b90       ??_C@_0BI@FGCLNBGP@DMUS_E_AUDIOPATH_NOPORT?$AA@ 00492b90     dxerr8:dxerr8.obj
 0002:00002ba8       ??_C@_0BK@NABBLBLA@DMUS_E_AUDIOPATH_NOBUFFER?$AA@ 00492ba8     dxerr8:dxerr8.obj
 0002:00002bc4       ??_C@_0BK@MFBNGKPH@DMUS_E_AUDIOPATH_INACTIVE?$AA@ 00492bc4     dxerr8:dxerr8.obj
 0002:00002be0       ??_C@_0BL@LLEIEOMG@DMUS_E_NO_AUDIOPATH_CONFIG?$AA@ 00492be0     dxerr8:dxerr8.obj
 0002:00002bfc       ??_C@_0BJ@KEAEMBJG@DMUS_E_AUDIOPATHS_IN_USE?$AA@ 00492bfc     dxerr8:dxerr8.obj
 0002:00002c18       ??_C@_0BM@LPHOEGGK@DMUS_E_AUDIOPATHS_NOT_VALID?$AA@ 00492c18     dxerr8:dxerr8.obj
 0002:00002c34       ??_C@_0CG@BJCFLAKB@DMUS_E_AUDIOVBSCRIPT_OPERATIONFA@ 00492c34     dxerr8:dxerr8.obj
 0002:00002c5c       ??_C@_0CC@CEBIKLKB@DMUS_E_AUDIOVBSCRIPT_RUNTIMEERRO@ 00492c5c     dxerr8:dxerr8.obj
 0002:00002c80       ??_C@_0CB@GHIDFGPC@DMUS_E_AUDIOVBSCRIPT_SYNTAXERROR@ 00492c80     dxerr8:dxerr8.obj
 0002:00002ca4       ??_C@_0CB@PLGNDAKI@DMUS_E_INVALID_PARAMCONTROLTRACK@ 00492ca4     dxerr8:dxerr8.obj
 0002:00002cc8       ??_C@_0BL@KDOMHMI@DMUS_E_INVALID_LYRICSTRACK?$AA@ 00492cc8     dxerr8:dxerr8.obj
 0002:00002ce4       ??_C@_0CD@DCEGKDEC@DMUS_E_INVALID_SEGMENTTRIGGERTRA@ 00492ce4     dxerr8:dxerr8.obj
 0002:00002d08       ??_C@_0CC@JEOCEH@DMUS_E_SCRIPT_VALUE_NOT_SUPPORTE@ 00492d08     dxerr8:dxerr8.obj
 0002:00002d2c       ??_C@_0BO@GHOLKAIE@DMUS_E_SCRIPT_NOT_A_REFERENCE?$AA@ 00492d2c     dxerr8:dxerr8.obj
 0002:00002d4c       ??_C@_0BP@NMIAKMCM@DMUS_E_SCRIPT_CONTENT_READONLY?$AA@ 00492d4c     dxerr8:dxerr8.obj
 0002:00002d6c       ??_C@_0CA@LBHNGADB@DMUS_E_SCRIPT_ROUTINE_NOT_FOUND?$AA@ 00492d6c     dxerr8:dxerr8.obj
 0002:00002d8c       ??_C@_0CB@PINFFIBC@DMUS_E_SCRIPT_VARIABLE_NOT_FOUND@ 00492d8c     dxerr8:dxerr8.obj
 0002:00002db0       ??_C@_0BL@PHICBEM@DMUS_E_INVALID_SCRIPTTRACK?$AA@ 00492db0     dxerr8:dxerr8.obj
 0002:00002dcc       ??_C@_0BL@MGMHJCEP@DMUS_E_SCRIPT_INVALID_FILE?$AA@ 00492dcc     dxerr8:dxerr8.obj
 0002:00002de8       ??_C@_0BP@GBCHNCIO@DMUS_E_SCRIPT_LOADSCRIPT_ERROR?$AA@ 00492de8     dxerr8:dxerr8.obj
 0002:00002e08       ??_C@_0CA@FEIJFGCA@DMUS_E_SCRIPT_CANTLOAD_OLEAUT32?$AA@ 00492e08     dxerr8:dxerr8.obj
 0002:00002e28       ??_C@_0BO@ECNKEPAA@DMUS_E_SCRIPT_ERROR_IN_SCRIPT?$AA@ 00492e28     dxerr8:dxerr8.obj
 0002:00002e48       ??_C@_0CC@EIPLLIKL@DMUS_E_SCRIPT_UNSUPPORTED_VARTYP@ 00492e48     dxerr8:dxerr8.obj
 0002:00002e6c       ??_C@_0CE@EDPOPNFB@DMUS_E_SCRIPT_LANGUAGE_INCOMPATI@ 00492e6c     dxerr8:dxerr8.obj
 0002:00002e90       ??_C@_0BC@HCDMBBHM@DMUS_E_NOT_LOADED?$AA@ 00492e90     dxerr8:dxerr8.obj
 0002:00002ea4       ??_C@_0BK@NFDAGFLP@DMUS_E_DESCEND_CHUNK_FAIL?$AA@ 00492ea4     dxerr8:dxerr8.obj
 0002:00002ec0       ??_C@_0BG@FIHDPJEJ@DMUS_E_CANNOT_CONVERT?$AA@ 00492ec0     dxerr8:dxerr8.obj
 0002:00002ed8       ??_C@_0BI@GLLOIFNL@DMUS_E_CANNOT_OPEN_PORT?$AA@ 00492ed8     dxerr8:dxerr8.obj
 0002:00002ef0       ??_C@_0BD@PHGHCNPA@DMUS_E_CANNOT_FREE?$AA@ 00492ef0     dxerr8:dxerr8.obj
 0002:00002f04       ??_C@_0BE@DCHFOLO@DMUS_E_ALREADY_SENT?$AA@ 00492f04     dxerr8:dxerr8.obj
 0002:00002f18       ??_C@_0BJ@PNHNCBDB@DMUS_E_LOADER_NOFILENAME?$AA@ 00492f18     dxerr8:dxerr8.obj
 0002:00002f34       ??_C@_0BD@MDGNMDO@DMUS_E_INVALIDFILE?$AA@ 00492f34     dxerr8:dxerr8.obj
 0002:00002f48       ??_C@_0BG@JIAHCIAB@DMUS_E_ALREADY_EXISTS?$AA@ 00492f48     dxerr8:dxerr8.obj
 0002:00002f60       ??_C@_0BE@HEMJPPHG@DMUS_E_OUT_OF_RANGE?$AA@ 00492f60     dxerr8:dxerr8.obj
 0002:00002f74       ??_C@_0BL@NFDCILII@DMUS_E_SEGMENT_INIT_FAILED?$AA@ 00492f74     dxerr8:dxerr8.obj
 0002:00002f90       ??_C@_0BN@ELJJNIJC@DMUS_E_LOADER_OBJECTNOTFOUND?$AA@ 00492f90     dxerr8:dxerr8.obj
 0002:00002fb0       ??_C@_0BI@CNCKMLIJ@DMUS_E_LOADER_NOCLASSID?$AA@ 00492fb0     dxerr8:dxerr8.obj
 0002:00002fc8       ??_C@_0BG@DKEAGBHO@DMUS_E_LOADER_BADPATH?$AA@ 00492fc8     dxerr8:dxerr8.obj
 0002:00002fe0       ??_C@_0BJ@KIMIDGDN@DMUS_E_LOADER_FAILEDOPEN?$AA@ 00492fe0     dxerr8:dxerr8.obj
 0002:00002ffc       ??_C@_0CB@NLDFBEOE@DMUS_E_LOADER_FORMATNOTSUPPORTED@ 00492ffc     dxerr8:dxerr8.obj
 0002:00003020       ??_C@_0BL@JBOCJDOK@DMUS_E_LOADER_FAILEDCREATE?$AA@ 00493020     dxerr8:dxerr8.obj
 0002:0000303c       ??_C@_0BH@DGGNMLHF@DMUS_E_NO_MASTER_CLOCK?$AA@ 0049303c     dxerr8:dxerr8.obj
 0002:00003054       ??_C@_0CC@LMIKKBKI@DMUS_E_TRACK_NO_CLOCKTIME_SUPPOR@ 00493054     dxerr8:dxerr8.obj
 0002:00003078       ??_C@_0BH@OPDDPMEC@DMUS_E_TRACK_NOT_FOUND?$AA@ 00493078     dxerr8:dxerr8.obj
 0002:00003090       ??_C@_0BB@IEEJBLOH@DMUS_E_TIME_PAST?$AA@ 00493090     dxerr8:dxerr8.obj
 0002:000030a4       ??_C@_0BI@LGKAFGGB@DMUS_E_TYPE_UNSUPPORTED?$AA@ 004930a4     dxerr8:dxerr8.obj
 0002:000030bc       ??_C@_0BF@NGGCHOML@DMUS_E_TYPE_DISABLED?$AA@ 004930bc     dxerr8:dxerr8.obj
 0002:000030d4       ??_C@_0BA@CKOCBAIH@DMUS_E_NOT_INIT?$AA@ 004930d4     dxerr8:dxerr8.obj
 0002:000030e4       ??_C@_0BJ@CGFLIGMN@DMUS_E_ALL_TRACKS_FAILED?$AA@ 004930e4     dxerr8:dxerr8.obj
 0002:00003100       ??_C@_0BI@HMFNNFJO@DMUS_E_ALL_TOOLS_FAILED?$AA@ 00493100     dxerr8:dxerr8.obj
 0002:00003118       ??_C@_0BI@DBGMHJFE@DMUS_E_INVALID_TOOL_HDR?$AA@ 00493118     dxerr8:dxerr8.obj
 0002:00003130       ??_C@_0BJ@ECANGKNK@DMUS_E_INVALID_TRACK_HDR?$AA@ 00493130     dxerr8:dxerr8.obj
 0002:0000314c       ??_C@_0BN@GIOFOFHL@DMUS_E_TOOL_HDR_NOT_FIRST_CK?$AA@ 0049314c     dxerr8:dxerr8.obj
 0002:0000316c       ??_C@_0BO@EMHFCABJ@DMUS_E_TRACK_HDR_NOT_FIRST_CK?$AA@ 0049316c     dxerr8:dxerr8.obj
 0002:0000318c       ??_C@_0BE@PIEOPEAI@DMUS_E_INVALID_BAND?$AA@ 0049318c     dxerr8:dxerr8.obj
 0002:000031a0       ??_C@_0BG@PJINGJL@DMUS_E_ALREADY_INITED?$AA@ 004931a0     dxerr8:dxerr8.obj
 0002:000031b8       ??_C@_0BK@LADONFGF@DMUS_E_UNSUPPORTED_STREAM?$AA@ 004931b8     dxerr8:dxerr8.obj
 0002:000031d4       ??_C@_0BF@MFKHCHGL@DMUS_E_INVALID_EVENT?$AA@ 004931d4     dxerr8:dxerr8.obj
 0002:000031ec       ??_C@_0BK@JCFAFFJO@DMUS_E_DSOUND_ALREADY_SET?$AA@ 004931ec     dxerr8:dxerr8.obj
 0002:00003208       ??_C@_0BF@GFIKBHKJ@DMUS_E_SYNTHINACTIVE?$AA@ 00493208     dxerr8:dxerr8.obj
 0002:00003220       ??_C@_0BO@CDMMMIGN@DMUS_E_WAVEFORMATNOTSUPPORTED?$AA@ 00493220     dxerr8:dxerr8.obj
 0002:00003240       ??_C@_0BF@OICCKIPF@DMUS_E_INVALIDBUFFER?$AA@ 00493240     dxerr8:dxerr8.obj
 0002:00003258       ??_C@_0BJ@DAFGPCDM@DMUS_E_ALREADY_ACTIVATED?$AA@ 00493258     dxerr8:dxerr8.obj
 0002:00003274       ??_C@_0BG@FKNBCLCG@DMUS_E_DSOUND_NOT_SET?$AA@ 00493274     dxerr8:dxerr8.obj
 0002:0000328c       ??_C@_0BH@IONJNCON@DMUS_E_PORT_NOT_RENDER?$AA@ 0049328c     dxerr8:dxerr8.obj
 0002:000032a4       ??_C@_0BI@BOEAEKAH@DMUS_E_PORT_NOT_CAPTURE?$AA@ 004932a4     dxerr8:dxerr8.obj
 0002:000032bc       ??_C@_0BD@GLDGKFLH@DMUS_E_BUFFER_FULL?$AA@ 004932bc     dxerr8:dxerr8.obj
 0002:000032d0       ??_C@_0BE@OAOJECJF@DMUS_E_BUFFER_EMPTY?$AA@ 004932d0     dxerr8:dxerr8.obj
 0002:000032e4       ??_C@_0BH@PJGOMHNE@DMUS_E_DMUSIC_RELEASED?$AA@ 004932e4     dxerr8:dxerr8.obj
 0002:000032fc       ??_C@_0BC@OOJCFPLM@DMUS_E_CANNOTREAD?$AA@ 004932fc     dxerr8:dxerr8.obj
 0002:00003310       ??_C@_0BD@BOMLFMKI@DMUS_E_SYNTHACTIVE?$AA@ 00493310     dxerr8:dxerr8.obj
 0002:00003324       ??_C@_0BK@JOLEODJ@DMUS_E_SYNTHNOTCONFIGURED?$AA@ 00493324     dxerr8:dxerr8.obj
 0002:00003340       ??_C@_0BF@BPBGCLIE@DMUS_E_ALREADYCLOSED?$AA@ 00493340     dxerr8:dxerr8.obj
 0002:00003358       ??_C@_0BD@IPOPBPAD@DMUS_E_ALREADYOPEN?$AA@ 00493358     dxerr8:dxerr8.obj
 0002:0000336c       ??_C@_0BD@EOPIBKEG@DMUS_E_NOSYNTHSINK?$AA@ 0049336c     dxerr8:dxerr8.obj
 0002:00003380       ??_C@_0BH@GDHCMOBL@DMUS_E_UNKNOWNDOWNLOAD?$AA@ 00493380     dxerr8:dxerr8.obj
 0002:00003398       ??_C@_0BG@PFNNKKKD@DMUS_E_BADOFFSETTABLE?$AA@ 00493398     dxerr8:dxerr8.obj
 0002:000033b0       ??_C@_0P@KODPDEHF@DMUS_E_BADWAVE?$AA@ 004933b0     dxerr8:dxerr8.obj
 0002:000033c0       ??_C@_0O@ECMHDBDM@DMUS_E_NOTPCM?$AA@ 004933c0     dxerr8:dxerr8.obj
 0002:000033d0       ??_C@_0BG@LKFIOFPL@DMUS_E_NOARTICULATION?$AA@ 004933d0     dxerr8:dxerr8.obj
 0002:000033e8       ??_C@_0BD@EKFCNMK@DMUS_E_BADWAVELINK?$AA@ 004933e8     dxerr8:dxerr8.obj
 0002:000033fc       ??_C@_0BF@MDJOLHKE@DMUS_E_BADINSTRUMENT?$AA@ 004933fc     dxerr8:dxerr8.obj
 0002:00003414       ??_C@_0BH@CMFGEHBA@DMUS_E_BADARTICULATION?$AA@ 00493414     dxerr8:dxerr8.obj
 0002:0000342c       ??_C@_0P@IICMLKKO@DMUS_E_NOTMONO?$AA@ 0049342c     dxerr8:dxerr8.obj
 0002:0000343c       ??_C@_0BH@CLGILIGJ@DMUS_E_GET_UNSUPPORTED?$AA@ 0049343c     dxerr8:dxerr8.obj
 0002:00003454       ??_C@_0BH@BJHOMKHA@DMUS_E_SET_UNSUPPORTED?$AA@ 00493454     dxerr8:dxerr8.obj
 0002:0000346c       ??_C@_0BI@MDPBCOBA@DMUS_E_UNKNOWN_PROPERTY?$AA@ 0049346c     dxerr8:dxerr8.obj
 0002:00003484       ??_C@_0BK@LLDGODE@DMUS_E_ALREADY_DOWNLOADED?$AA@ 00493484     dxerr8:dxerr8.obj
 0002:000034a0       ??_C@_0BO@IMDIAEBE@DMUS_E_NOT_DOWNLOADED_TO_PORT?$AA@ 004934a0     dxerr8:dxerr8.obj
 0002:000034c0       ??_C@_0BK@BBDKEOON@DMUS_E_INVALID_DOWNLOADID?$AA@ 004934c0     dxerr8:dxerr8.obj
 0002:000034dc       ??_C@_0BF@HLHMPIJE@DMUS_E_CHUNKNOTFOUND?$AA@ 004934dc     dxerr8:dxerr8.obj
 0002:000034f4       ??_C@_0BD@BEKIIHAG@DMUS_E_CANNOTWRITE?$AA@ 004934f4     dxerr8:dxerr8.obj
 0002:00003508       ??_C@_0BC@FDGDMCBP@DMUS_E_CANNOTSEEK?$AA@ 00493508     dxerr8:dxerr8.obj
 0002:0000351c       ??_C@_0BE@INBCEHPP@DMUS_E_INVALIDPATCH?$AA@ 0049351c     dxerr8:dxerr8.obj
 0002:00003530       ??_C@_0BC@DKNEMJLL@DMUS_E_INVALIDPOS?$AA@ 00493530     dxerr8:dxerr8.obj
 0002:00003544       ??_C@_0BF@NGGAADHB@DSERR_OBJECTNOTFOUND?$AA@ 00493544     dxerr8:dxerr8.obj
 0002:0000355c       ??_C@_0BG@PGJFDGMH@DMUS_E_ALREADY_LOADED?$AA@ 0049355c     dxerr8:dxerr8.obj
 0002:00003574       ??_C@_0BF@DNCKLJCL@DMUS_E_INVALIDOFFSET?$AA@ 00493574     dxerr8:dxerr8.obj
 0002:0000358c       ??_C@_0BC@OMMPPNCJ@DMUS_E_NOTADLSCOL?$AA@ 0049358c     dxerr8:dxerr8.obj
 0002:000035a0       ??_C@_0BK@HLNNADGD@DMUS_E_BUFFERNOTAVAILABLE?$AA@ 004935a0     dxerr8:dxerr8.obj
 0002:000035bc       ??_C@_0BE@FHNEBLJO@DMUS_E_BUFFERNOTSET?$AA@ 004935bc     dxerr8:dxerr8.obj
 0002:000035d0       ??_C@_0BK@GGFANPBE@DMUS_E_INSUFFICIENTBUFFER?$AA@ 004935d0     dxerr8:dxerr8.obj
 0002:000035ec       ??_C@_0BF@GNFOPDNI@DMUS_E_DEVICE_IN_USE?$AA@ 004935ec     dxerr8:dxerr8.obj
 0002:00003604       ??_C@_0BC@KICIODPC@DMUS_E_PORTS_OPEN?$AA@ 00493604     dxerr8:dxerr8.obj
 0002:00003618       ??_C@_0BF@OGAIBIKN@DMUS_E_DRIVER_FAILED?$AA@ 00493618     dxerr8:dxerr8.obj
 0002:00003630       ??_C@_0BI@DBNEKAEK@DSERR_BADSENDBUFFERGUID?$AA@ 00493630     dxerr8:dxerr8.obj
 0002:00003648       ??_C@_0BF@EAFEGIOD@DSERR_BUFFERTOOSMALL?$AA@ 00493648     dxerr8:dxerr8.obj
 0002:00003660       ??_C@_0BD@JAFCIKKP@DSERR_DS8_REQUIRED?$AA@ 00493660     dxerr8:dxerr8.obj
 0002:00003674       ??_C@_0P@BOLIMOKF@DSERR_SENDLOOP?$AA@ 00493674     dxerr8:dxerr8.obj
 0002:00003684       ??_C@_0BE@BMJCAPGM@DSERR_UNINITIALIZED?$AA@ 00493684     dxerr8:dxerr8.obj
 0002:00003698       ??_C@_0P@HJFILJLC@DSERR_NODRIVER?$AA@ 00493698     dxerr8:dxerr8.obj
 0002:000036a8       ??_C@_0BJ@PODLOCNP@DSERR_ALREADYINITIALIZED?$AA@ 004936a8     dxerr8:dxerr8.obj
 0002:000036c4       ??_C@_0BB@MLKAOHBD@DSERR_BUFFERLOST?$AA@ 004936c4     dxerr8:dxerr8.obj
 0002:000036d8       ??_C@_0BG@JFJBCEJM@DSERR_OTHERAPPHASPRIO?$AA@ 004936d8     dxerr8:dxerr8.obj
 0002:000036f0       ??_C@_0BA@ECKDOBJD@DSERR_BADFORMAT?$AA@ 004936f0     dxerr8:dxerr8.obj
 0002:00003700       ??_C@_0BF@KBGGCPDE@DSERR_CONTROLUNAVAIL?$AA@ 00493700     dxerr8:dxerr8.obj
 0002:00003718       ??_C@_0BC@NMCDDLDP@DSERR_INVALIDCALL?$AA@ 00493718     dxerr8:dxerr8.obj
 0002:0000372c       ??_C@_0BG@FGFOLLAI@DSERR_PRIOLEVELNEEDED?$AA@ 0049372c     dxerr8:dxerr8.obj
 0002:00003744       ??_C@_0BA@COPOGMBA@DSERR_ALLOCATED?$AA@ 00493744     dxerr8:dxerr8.obj
 0002:00003754       ??_C@_0BH@OLPAEDNL@D3DXERR_CANNOTATTRSORT?$AA@ 00493754     dxerr8:dxerr8.obj
 0002:0000376c       ??_C@_0BN@OFGKBIOG@D3DXERR_SKINNINGNOTSUPPORTED?$AA@ 0049376c     dxerr8:dxerr8.obj
 0002:0000378c       ??_C@_0BK@BEMAPGE@D3DXERR_TOOMANYINFLUENCES?$AA@ 0049378c     dxerr8:dxerr8.obj
 0002:000037a8       ??_C@_0BE@PJFJKLII@D3DXERR_INVALIDDATA?$AA@ 004937a8     dxerr8:dxerr8.obj
 0002:000037bc       ??_C@_0BE@KPKGPDGC@D3DXERR_INVALIDMESH?$AA@ 004937bc     dxerr8:dxerr8.obj
 0002:000037d0       ??_C@_0BD@NKNFKHMN@D3DERR_INVALIDCALL?$AA@ 004937d0     dxerr8:dxerr8.obj
 0002:000037e4       ??_C@_0BJ@PINKIGDN@D3DERR_DRIVERINVALIDCALL?$AA@ 004937e4     dxerr8:dxerr8.obj
 0002:00003800       ??_C@_0CA@LBFOOIIL@D3DXERR_CANNOTMODIFYINDEXBUFFER?$AA@ 00493800     dxerr8:dxerr8.obj
 0002:00003820       ??_C@_0BF@IKIMMOMN@D3DERR_INVALIDDEVICE?$AA@ 00493820     dxerr8:dxerr8.obj
 0002:00003838       ??_C@_0BA@EMFIIMDH@D3DERR_MOREDATA?$AA@ 00493838     dxerr8:dxerr8.obj
 0002:00003848       ??_C@_0BC@EMHBBGDJ@D3DERR_DEVICELOST?$AA@ 00493848     dxerr8:dxerr8.obj
 0002:0000385c       ??_C@_0BG@ODHIPO@D3DERR_DEVICENOTRESET?$AA@ 0049385c     dxerr8:dxerr8.obj
 0002:00003874       ??_C@_0BE@EMOOFEGA@D3DERR_NOTAVAILABLE?$AA@ 00493874     dxerr8:dxerr8.obj
 0002:00003888       ??_C@_0BA@FEPMNEFM@D3DERR_NOTFOUND?$AA@ 00493888     dxerr8:dxerr8.obj
 0002:00003898       ??_C@_0BL@NGLDGHAB@D3DERR_DRIVERINTERNALERROR?$AA@ 00493898     dxerr8:dxerr8.obj
 0002:000038b4       ??_C@_0CB@FNAABFGA@D3DERR_CONFLICTINGTEXTUREPALETTE@ 004938b4     dxerr8:dxerr8.obj
 0002:000038d8       ??_C@_0CA@FJBFGLDN@D3DERR_UNSUPPORTEDTEXTUREFILTER?$AA@ 004938d8     dxerr8:dxerr8.obj
 0002:000038f8       ??_C@_0BO@EMDMGLEF@D3DERR_CONFLICTINGRENDERSTATE?$AA@ 004938f8     dxerr8:dxerr8.obj
 0002:00003918       ??_C@_0BO@MOJGBOAN@D3DERR_UNSUPPORTEDFACTORVALUE?$AA@ 00493918     dxerr8:dxerr8.obj
 0002:00003938       ??_C@_0CA@CFPOKCEH@D3DERR_CONFLICTINGTEXTUREFILTER?$AA@ 00493938     dxerr8:dxerr8.obj
 0002:00003958       ??_C@_0BJ@INFNOJNF@D3DERR_TOOMANYOPERATIONS?$AA@ 00493958     dxerr8:dxerr8.obj
 0002:00003974       ??_C@_0BL@BJOJBFEN@D3DERR_UNSUPPORTEDALPHAARG?$AA@ 00493974     dxerr8:dxerr8.obj
 0002:00003990       ??_C@_0CB@JPKBHPNI@D3DERR_UNSUPPORTEDALPHAOPERATION@ 00493990     dxerr8:dxerr8.obj
 0002:000039b4       ??_C@_0BL@CDKLBBHI@D3DERR_UNSUPPORTEDCOLORARG?$AA@ 004939b4     dxerr8:dxerr8.obj
 0002:000039d0       ??_C@_0CB@CGHHLPPG@D3DERR_UNSUPPORTEDCOLOROPERATION@ 004939d0     dxerr8:dxerr8.obj
 0002:000039f4       ??_C@_0BK@BPHFHCLE@D3DERR_WRONGTEXTUREFORMAT?$AA@ 004939f4     dxerr8:dxerr8.obj
 0002:00003a10       ??_C@_0BF@LKDNLDCD@DXFILEERR_NOINTERNET?$AA@ 00493a10     dxerr8:dxerr8.obj
 0002:00003a28       ??_C@_0BH@DJCMIELE@DXFILEERR_BADCACHEFILE?$AA@ 00493a28     dxerr8:dxerr8.obj
 0002:00003a40       ??_C@_0BF@NFDJIKKM@DXFILEERR_NOMOREDATA?$AA@ 00493a40     dxerr8:dxerr8.obj
 0002:00003a58       ??_C@_0BO@KCFFMMAH@DXFILEERR_NOMORESTREAMHANDLES?$AA@ 00493a58     dxerr8:dxerr8.obj
 0002:00003a78       ??_C@_0BI@FJCNLPGO@DXFILEERR_BADINTRINSICS?$AA@ 00493a78     dxerr8:dxerr8.obj
 0002:00003a90       ??_C@_0BI@JNFHOANA@DXFILEERR_NOMOREOBJECTS?$AA@ 00493a90     dxerr8:dxerr8.obj
 0002:00003aa8       ??_C@_0BI@FDKJFPKD@DXFILEERR_INTERNALERROR?$AA@ 00493aa8     dxerr8:dxerr8.obj
 0002:00003ac0       ??_C@_0BL@MOIGKKOH@DXFILEERR_BADDATAREFERENCE?$AA@ 00493ac0     dxerr8:dxerr8.obj
 0002:00003adc       ??_C@_0BH@EJKCFLIL@DXFILEERR_BADARRAYSIZE?$AA@ 00493adc     dxerr8:dxerr8.obj
 0002:00003af4       ??_C@_0BF@NCALJDIE@DXFILEERR_NOTEMPLATE?$AA@ 00493af4     dxerr8:dxerr8.obj
 0002:00003b0c       ??_C@_0BF@BBPEMJAG@DXFILEERR_PARSEERROR?$AA@ 00493b0c     dxerr8:dxerr8.obj
 0002:00003b24       ??_C@_0BC@MPHKGJOB@DXFILEERR_BADFILE?$AA@ 00493b24     dxerr8:dxerr8.obj
 0002:00003b38       ??_C@_0CB@BGBKDDHG@DXFILEERR_BADFILECOMPRESSIONTYPE@ 00493b38     dxerr8:dxerr8.obj
 0002:00003b5c       ??_C@_0BL@BBBJNMCP@DXFILEERR_BADFILEFLOATSIZE?$AA@ 00493b5c     dxerr8:dxerr8.obj
 0002:00003b78       ??_C@_0BJ@FPMPPGLG@DXFILEERR_BADFILEVERSION?$AA@ 00493b78     dxerr8:dxerr8.obj
 0002:00003b94       ??_C@_0BG@GNOKCEHM@DXFILEERR_BADFILETYPE?$AA@ 00493b94     dxerr8:dxerr8.obj
 0002:00003bac       ??_C@_0BG@PGFFOJH@DXFILEERR_BADRESOURCE?$AA@ 00493bac     dxerr8:dxerr8.obj
 0002:00003bc4       ??_C@_0BG@MMPOGPLJ@DXFILEERR_URLNOTFOUND?$AA@ 00493bc4     dxerr8:dxerr8.obj
 0002:00003bdc       ??_C@_0BL@IDLPKGHF@DXFILEERR_RESOURCENOTFOUND?$AA@ 00493bdc     dxerr8:dxerr8.obj
 0002:00003bf8       ??_C@_0BH@OLPIDICN@DXFILEERR_FILENOTFOUND?$AA@ 00493bf8     dxerr8:dxerr8.obj
 0002:00003c10       ??_C@_0BF@GGGCBGIO@DXFILEERR_NOTDONEYET?$AA@ 00493c10     dxerr8:dxerr8.obj
 0002:00003c28       ??_C@_0BD@HJLDFNDK@DXFILEERR_NOTFOUND?$AA@ 00493c28     dxerr8:dxerr8.obj
 0002:00003c3c       ??_C@_0BD@NEOEIOFP@DXFILEERR_BADALLOC?$AA@ 00493c3c     dxerr8:dxerr8.obj
 0002:00003c50       ??_C@_0BK@JIBNKPHL@DXFILEERR_BADSTREAMHANDLE?$AA@ 00493c50     dxerr8:dxerr8.obj
 0002:00003c6c       ??_C@_0BC@JAHPKAII@DXFILEERR_BADTYPE?$AA@ 00493c6c     dxerr8:dxerr8.obj
 0002:00003c80       ??_C@_0BD@HFEMPJON@DXFILEERR_BADVALUE?$AA@ 00493c80     dxerr8:dxerr8.obj
 0002:00003c94       ??_C@_0BE@KPBPDPFC@DXFILEERR_BADOBJECT?$AA@ 00493c94     dxerr8:dxerr8.obj
 0002:00003ca8       ??_C@_0BN@KNLDEANB@DDERR_DEVICEDOESNTOWNSURFACE?$AA@ 00493ca8     dxerr8:dxerr8.obj
 0002:00003cc8       ??_C@_0BG@FKDJDMHA@DDERR_NODRIVERSUPPORT?$AA@ 00493cc8     dxerr8:dxerr8.obj
 0002:00003ce0       ??_C@_0BL@EFEBFOMC@DDERR_NOMONITORINFORMATION?$AA@ 00493ce0     dxerr8:dxerr8.obj
 0002:00003cfc       ??_C@_0BF@DPOKKEIF@DDERR_VIDEONOTACTIVE?$AA@ 00493cfc     dxerr8:dxerr8.obj
 0002:00003d14       ??_C@_0BI@MNADDBAC@DDERR_D3DNOTINITIALIZED?$AA@ 00493d14     dxerr8:dxerr8.obj
 0002:00003d2c       ??_C@_0O@DBFLIBLJ@DDERR_NEWMODE?$AA@ 00493d2c     dxerr8:dxerr8.obj
 0002:00003d3c       ??_C@_0BD@NFBNMILD@DDERR_TESTFINISHED?$AA@ 00493d3c     dxerr8:dxerr8.obj
 0002:00003d50       ??_C@_0O@DIBHCCKN@DDERR_EXPIRED?$AA@ 00493d50     dxerr8:dxerr8.obj
 0002:00003d60       ??_C@_0P@BACCKLEO@DDERR_MOREDATA?$AA@ 00493d60     dxerr8:dxerr8.obj
 0002:00003d70       ??_C@_0BE@ELKGHCMM@DDERR_NOTPAGELOCKED?$AA@ 00493d70     dxerr8:dxerr8.obj
 0002:00003d84       ??_C@_0BF@MPOCMAGG@DDERR_CANTPAGEUNLOCK?$AA@ 00493d84     dxerr8:dxerr8.obj
 0002:00003d9c       ??_C@_0BD@GIBKCHPD@DDERR_CANTPAGELOCK?$AA@ 00493d9c     dxerr8:dxerr8.obj
 0002:00003db0       ??_C@_0BH@NGNFGAPP@DDERR_NONONLOCALVIDMEM?$AA@ 00493db0     dxerr8:dxerr8.obj
 0002:00003dc8       ??_C@_0BH@BBAKKFGG@DDERR_DCALREADYCREATED?$AA@ 00493dc8     dxerr8:dxerr8.obj
 0002:00003de0       ??_C@_0BK@DGLNEGDN@DDERR_NOTONMIPMAPSUBLEVEL?$AA@ 00493de0     dxerr8:dxerr8.obj
 0002:00003dfc       ??_C@_0BE@NFJHIIEO@DDERR_NOFOCUSWINDOW?$AA@ 00493dfc     dxerr8:dxerr8.obj
 0002:00003e10       ??_C@_0BA@IAHGDMOK@DDERR_NOTLOADED?$AA@ 00493e10     dxerr8:dxerr8.obj
 0002:00003e20       ??_C@_0BD@DJOGAOFP@DDERR_NOOPTIMIZEHW?$AA@ 00493e20     dxerr8:dxerr8.obj
 0002:00003e34       ??_C@_0BJ@HPBNNCIB@DDERR_INVALIDSURFACETYPE?$AA@ 00493e34     dxerr8:dxerr8.obj
 0002:00003e50       ??_C@_0BB@LNEPLBGC@DDERR_NOMIPMAPHW?$AA@ 00493e50     dxerr8:dxerr8.obj
 0002:00003e64       ??_C@_0BG@GJEKJFBD@DDERR_UNSUPPORTEDMODE?$AA@ 00493e64     dxerr8:dxerr8.obj
 0002:00003e7c       ??_C@_0BE@FGMGOELL@DDERR_NOTPALETTIZED?$AA@ 00493e7c     dxerr8:dxerr8.obj
 0002:00003e90       ??_C@_0BI@NLHHKHEN@DDERR_IMPLICITLYCREATED?$AA@ 00493e90     dxerr8:dxerr8.obj
 0002:00003ea8       ??_C@_0BA@FGHHLMKB@DDERR_WRONGMODE?$AA@ 00493ea8     dxerr8:dxerr8.obj
 0002:00003eb8       ??_C@_0L@CHFPOEHC@DDERR_NODC?$AA@ 00493eb8     dxerr8:dxerr8.obj
 0002:00003ec4       ??_C@_0BD@PBNGJMBK@DDERR_CANTCREATEDC?$AA@ 00493ec4     dxerr8:dxerr8.obj
 0002:00003ed8       ??_C@_0BA@KCNFHPNM@DDERR_NOTLOCKED?$AA@ 00493ed8     dxerr8:dxerr8.obj
 0002:00003ee8       ??_C@_0BE@LNBDBNLL@DDERR_CANTDUPLICATE?$AA@ 00493ee8     dxerr8:dxerr8.obj
 0002:00003efc       ??_C@_0BD@FOFDLEGO@DDERR_NOTFLIPPABLE?$AA@ 00493efc     dxerr8:dxerr8.obj
 0002:00003f10       ??_C@_0BO@GMCKLDPA@DDERR_EXCLUSIVEMODEALREADYSET?$AA@ 00493f10     dxerr8:dxerr8.obj
 0002:00003f30       ??_C@_0BJ@LGNAEONK@DDERR_NOTAOVERLAYSURFACE?$AA@ 00493f30     dxerr8:dxerr8.obj
 0002:00003f4c       ??_C@_0BG@OMJGFIHE@DDERR_INVALIDPOSITION?$AA@ 00493f4c     dxerr8:dxerr8.obj
 0002:00003f64       ??_C@_0BE@JKKEKLOE@DDERR_NOOVERLAYDEST?$AA@ 00493f64     dxerr8:dxerr8.obj
 0002:00003f78       ??_C@_0BI@CLLMFLGN@DDERR_OVERLAYNOTVISIBLE?$AA@ 00493f78     dxerr8:dxerr8.obj
 0002:00003f90       ??_C@_0BB@BPILLDBG@DDERR_NODDROPSHW?$AA@ 00493f90     dxerr8:dxerr8.obj
 0002:00003fa4       ??_C@_0O@NKGDNEG@DDERR_NOBLTHW?$AA@ 00493fa4     dxerr8:dxerr8.obj
 0002:00003fb4       ??_C@_0BG@HLNKGEOE@DDERR_BLTFASTCANTCLIP?$AA@ 00493fb4     dxerr8:dxerr8.obj
 0002:00003fcc       ??_C@_0BC@GEADEPGN@DDERR_NOPALETTEHW?$AA@ 00493fcc     dxerr8:dxerr8.obj
 0002:00003fe0       ??_C@_0BI@KBKHCNLK@DDERR_NOPALETTEATTACHED?$AA@ 00493fe0     dxerr8:dxerr8.obj
 0002:00003ff8       ??_C@_0BF@LGLNHCHJ@DDERR_HWNDALREADYSET?$AA@ 00493ff8     dxerr8:dxerr8.obj
 0002:00004010       ??_C@_0BF@MAFLBECE@DDERR_HWNDSUBCLASSED?$AA@ 00494010     dxerr8:dxerr8.obj
 0002:00004028       ??_C@_0N@EOPEBNEI@DDERR_NOHWND?$AA@ 00494028     dxerr8:dxerr8.obj
 0002:00004038       ??_C@_0BI@BGMBBEJL@DDERR_NOCLIPPERATTACHED?$AA@ 00494038     dxerr8:dxerr8.obj
 0002:00004050       ??_C@_0BJ@BOEHMDDM@DDERR_CLIPPERISUSINGHWND?$AA@ 00494050     dxerr8:dxerr8.obj
 0002:0000406c       ??_C@_0BF@BDDJLJGA@DDERR_REGIONTOOSMALL?$AA@ 0049406c     dxerr8:dxerr8.obj
 0002:00004084       ??_C@_0BC@DCFOAKAL@DDERR_NOEMULATION?$AA@ 00494084     dxerr8:dxerr8.obj
 0002:00004098       ??_C@_0CC@FKFBEMJC@DDERR_PRIMARYSURFACEALREADYEXIST@ 00494098     dxerr8:dxerr8.obj
 0002:000040bc       ??_C@_0BF@NOEHEIDL@DDERR_NODIRECTDRAWHW?$AA@ 004940bc     dxerr8:dxerr8.obj
 0002:000040d4       ??_C@_0BP@CFDPGCFK@DDERR_DIRECTDRAWALREADYCREATED?$AA@ 004940d4     dxerr8:dxerr8.obj
 0002:000040f4       ??_C@_0BM@LMDGBJFD@DDERR_INVALIDDIRECTDRAWGUID?$AA@ 004940f4     dxerr8:dxerr8.obj
 0002:00004110       ??_C@_0N@MAIIIAKF@DDERR_XALIGN?$AA@ 00494110     dxerr8:dxerr8.obj
 0002:00004120       ??_C@_0BN@BHNGJHFA@DDERR_DDSCAPSCOMPLEXREQUIRED?$AA@ 00494120     dxerr8:dxerr8.obj
 0002:00004140       ??_C@_0BG@PNJKHKJC@DDERR_WASSTILLDRAWING?$AA@ 00494140     dxerr8:dxerr8.obj
 0002:00004158       ??_C@_0BO@CKEGAAHC@DDERR_VERTICALBLANKINPROGRESS?$AA@ 00494158     dxerr8:dxerr8.obj
 0002:00004178       ??_C@_0BE@BCDLBAEK@DDERR_INVALIDSTREAM?$AA@ 00494178     dxerr8:dxerr8.obj
 0002:0000418c       ??_C@_0BG@OHPHKFL@DDERR_UNSUPPORTEDMASK?$AA@ 0049418c     dxerr8:dxerr8.obj
 0002:000041a4       ??_C@_0BB@IBDADILM@DDERR_TOOBIGSIZE?$AA@ 004941a4     dxerr8:dxerr8.obj
 0002:000041b8       ??_C@_0BC@MMEFKBGP@DDERR_TOOBIGWIDTH?$AA@ 004941b8     dxerr8:dxerr8.obj
 0002:000041cc       ??_C@_0BI@GGBGCOID@DDERR_UNSUPPORTEDFORMAT?$AA@ 004941cc     dxerr8:dxerr8.obj
 0002:000041e4       ??_C@_0BD@FPHOLBKE@DDERR_TOOBIGHEIGHT?$AA@ 004941e4     dxerr8:dxerr8.obj
 0002:000041f8       ??_C@_0BG@IADNDEGE@DDERR_CANTLOCKSURFACE?$AA@ 004941f8     dxerr8:dxerr8.obj
 0002:00004210       ??_C@_0BI@KAHOANAA@DDERR_SURFACEISOBSCURED?$AA@ 00494210     dxerr8:dxerr8.obj
 0002:00004228       ??_C@_0BC@OOFFFAGE@DDERR_SURFACELOST?$AA@ 00494228     dxerr8:dxerr8.obj
 0002:0000423c       ??_C@_0BJ@DMNBOKFJ@DDERR_SURFACENOTATTACHED?$AA@ 0049423c     dxerr8:dxerr8.obj
 0002:00004258       ??_C@_0BC@NLGPCHLD@DDERR_SURFACEBUSY?$AA@ 00494258     dxerr8:dxerr8.obj
 0002:0000426c       ??_C@_0BC@CEBGFCJL@DDERR_PALETTEBUSY?$AA@ 0049426c     dxerr8:dxerr8.obj
 0002:00004280       ??_C@_0BF@HOAOBBGM@DDERR_COLORKEYNOTSET?$AA@ 00494280     dxerr8:dxerr8.obj
 0002:00004298       ??_C@_0BN@DLNFLDJF@DDERR_SURFACEALREADYATTACHED?$AA@ 00494298     dxerr8:dxerr8.obj
 0002:000042b8       ??_C@_0BO@HOHOGLO@DDERR_SURFACEALREADYDEPENDENT?$AA@ 004942b8     dxerr8:dxerr8.obj
 0002:000042d8       ??_C@_0CD@JNABKIAN@DDERR_OVERLAYCOLORKEYONLYONEACTI@ 004942d8     dxerr8:dxerr8.obj
 0002:000042fc       ??_C@_0BD@IFBPLCFK@DDERR_NOZOVERLAYHW?$AA@ 004942fc     dxerr8:dxerr8.obj
 0002:00004310       ??_C@_0BA@BCMNJCDB@DDERR_OUTOFCAPS?$AA@ 00494310     dxerr8:dxerr8.obj
 0002:00004320       ??_C@_0BI@GJDGNNKD@D3DERR_OUTOFVIDEOMEMORY?$AA@ 00494320     dxerr8:dxerr8.obj
 0002:00004338       ??_C@_0BG@EDDFCCOG@DDERR_OVERLAYCANTCLIP?$AA@ 00494338     dxerr8:dxerr8.obj
 0002:00004350       ??_C@_0BC@MGOAKBHI@DDERR_NOZBUFFERHW?$AA@ 00494350     dxerr8:dxerr8.obj
 0002:00004364       ??_C@_0BD@FHDGHNGM@DDERR_NOT8BITCOLOR?$AA@ 00494364     dxerr8:dxerr8.obj
 0002:00004378       ??_C@_0BC@ENEADALF@DDERR_NOTEXTUREHW?$AA@ 00494378     dxerr8:dxerr8.obj
 0002:0000438c       ??_C@_0BA@PAPKELJP@DDERR_NOVSYNCHW?$AA@ 0049438c     dxerr8:dxerr8.obj
 0002:0000439c       ??_C@_0BI@IKKPPDMJ@DDERR_NOT4BITCOLORINDEX?$AA@ 0049439c     dxerr8:dxerr8.obj
 0002:000043b4       ??_C@_0BD@ICAOCHBG@DDERR_NORASTEROPHW?$AA@ 004943b4     dxerr8:dxerr8.obj
 0002:000043c8       ??_C@_0BD@NEIDAAKN@DDERR_NOROTATIONHW?$AA@ 004943c8     dxerr8:dxerr8.obj
 0002:000043dc       ??_C@_0BC@CAPIEDAG@DDERR_NOSTRETCHHW?$AA@ 004943dc     dxerr8:dxerr8.obj
 0002:000043f0       ??_C@_0BD@ENAKJNOC@DDERR_NOT4BITCOLOR?$AA@ 004943f0     dxerr8:dxerr8.obj
 0002:00004404       ??_C@_0BH@CPKIKHCK@DDERR_OVERLAPPINGRECTS?$AA@ 00494404     dxerr8:dxerr8.obj
 0002:0000441c       ??_C@_0BB@MNGJGGOP@DDERR_NOMIRRORHW?$AA@ 0049441c     dxerr8:dxerr8.obj
 0002:00004430       ??_C@_0P@IIGPDCF@DDERR_NOTFOUND?$AA@ 00494430     dxerr8:dxerr8.obj
 0002:00004440       ??_C@_0BC@JKHLHDPI@DDERR_NOOVERLAYHW?$AA@ 00494440     dxerr8:dxerr8.obj
 0002:00004454       ??_C@_0M@IIGNACND@DDERR_NOGDI?$AA@ 00494454     dxerr8:dxerr8.obj
 0002:00004460       ??_C@_0BD@BAAPAKEL@DDERR_NOCOLORKEYHW?$AA@ 00494460     dxerr8:dxerr8.obj
 0002:00004474       ??_C@_0BK@BCHEFLBM@DDERR_NODIRECTDRAWSUPPORT?$AA@ 00494474     dxerr8:dxerr8.obj
 0002:00004490       ??_C@_0BG@DHFIFBBC@DDERR_NOEXCLUSIVEMODE?$AA@ 00494490     dxerr8:dxerr8.obj
 0002:000044a8       ??_C@_0P@IEKAGFBG@DDERR_NOFLIPHW?$AA@ 004944a8     dxerr8:dxerr8.obj
 0002:000044b8       ??_C@_0BB@GIFHLHNH@DDERR_NOCOLORKEY?$AA@ 004944b8     dxerr8:dxerr8.obj
 0002:000044cc       ??_C@_0BB@JOLMGPDK@DDERR_NOCLIPLIST?$AA@ 004944cc     dxerr8:dxerr8.obj
 0002:000044e0       ??_C@_0BE@PDOMLOPD@DDERR_NOCOLORCONVHW?$AA@ 004944e0     dxerr8:dxerr8.obj
 0002:000044f4       ??_C@_0BM@PMEMMDPI@DDERR_NOCOOPERATIVELEVELSET?$AA@ 004944f4     dxerr8:dxerr8.obj
 0002:00004510       ??_C@_0BE@GMBJAIDG@DDERR_NOSURFACELEFT?$AA@ 00494510     dxerr8:dxerr8.obj
 0002:00004524       ??_C@_0BF@MAGKOGBC@DDERR_LOCKEDSURFACES?$AA@ 00494524     dxerr8:dxerr8.obj
 0002:0000453c       ??_C@_0L@DJKAAMGA@DDERR_NO3D?$AA@ 0049453c     dxerr8:dxerr8.obj
 0002:00004548       ??_C@_0BA@BFFEPDGJ@DDERR_NOALPHAHW?$AA@ 00494548     dxerr8:dxerr8.obj
 0002:00004558       ??_C@_0BH@HOBBEKCG@DDERR_NOSTEREOHARDWARE?$AA@ 00494558     dxerr8:dxerr8.obj
 0002:00004570       ??_C@_0BC@LAEFCIAI@DDERR_INVALIDRECT?$AA@ 00494570     dxerr8:dxerr8.obj
 0002:00004584       ??_C@_0BG@OFKCMNHM@DDERR_INVALIDCLIPLIST?$AA@ 00494584     dxerr8:dxerr8.obj
 0002:0000459c       ??_C@_0BC@GLNOPNKK@DDERR_INVALIDMODE?$AA@ 0049459c     dxerr8:dxerr8.obj
 0002:000045b0       ??_C@_0BE@KPNOKGED@DDERR_INVALIDOBJECT?$AA@ 004945b0     dxerr8:dxerr8.obj
 0002:000045c4       ??_C@_0BJ@PEGADMFO@DDERR_INVALIDPIXELFORMAT?$AA@ 004945c4     dxerr8:dxerr8.obj
 0002:000045e0       ??_C@_0BC@DDIGIKID@DDERR_INVALIDCAPS?$AA@ 004945e0     dxerr8:dxerr8.obj
 0002:000045f4       ??_C@_0BI@CPFFLGJD@DDERR_CURRENTLYNOTAVAIL?$AA@ 004945f4     dxerr8:dxerr8.obj
 0002:0000460c       ??_C@_0BA@MEDIIHJ@DDERR_EXCEPTION?$AA@ 0049460c     dxerr8:dxerr8.obj
 0002:0000461c       ??_C@_0BC@FNNCOGNH@DDERR_HEIGHTALIGN?$AA@ 0049461c     dxerr8:dxerr8.obj
 0002:00004630       ??_C@_0BK@HJOPGIGH@DDERR_INCOMPATIBLEPRIMARY?$AA@ 00494630     dxerr8:dxerr8.obj
 0002:0000464c       ??_C@_0BK@FMONFDPK@DDERR_CANNOTDETACHSURFACE?$AA@ 0049464c     dxerr8:dxerr8.obj
 0002:00004668       ??_C@_0BC@FINOPAKH@DPNERR_USERCANCEL?$AA@ 00494668     dxerr8:dxerr8.obj
 0002:0000467c       ??_C@_0BJ@LAEIKKJF@DDERR_ALREADYINITIALIZED?$AA@ 0049467c     dxerr8:dxerr8.obj
 0002:00004698       ??_C@_0BK@LBNPECMI@DDERR_CANNOTATTACHSURFACE?$AA@ 00494698     dxerr8:dxerr8.obj
 0002:000046b4       ??_C@_0BF@DOBJPDGJ@DPNERR_UNINITIALIZED?$AA@ 004946b4     dxerr8:dxerr8.obj
 0002:000046cc       ??_C@_0BE@CBDNEDEE@DPNERR_SENDTOOLARGE?$AA@ 004946cc     dxerr8:dxerr8.obj
 0002:000046e0       ??_C@_0BD@NJJFBJEM@DPNERR_SESSIONFULL?$AA@ 004946e0     dxerr8:dxerr8.obj
 0002:000046f4       ??_C@_0BB@KAPJEHCC@DPNERR_TABLEFULL?$AA@ 004946f4     dxerr8:dxerr8.obj
 0002:00004708       ??_C@_0BA@EMBOJDKM@DPNERR_TIMEDOUT?$AA@ 00494708     dxerr8:dxerr8.obj
 0002:00004718       ??_C@_0BK@HMCDDEA@DPNERR_PLAYERNOTREACHABLE?$AA@ 00494718     dxerr8:dxerr8.obj
 0002:00004734       ??_C@_0P@JCEBAEKD@DPNERR_NOTHOST?$AA@ 00494734     dxerr8:dxerr8.obj
 0002:00004744       ??_C@_0BA@CKPPFAHD@DPNERR_NOTREADY?$AA@ 00494744     dxerr8:dxerr8.obj
 0002:00004754       ??_C@_0BF@GMKPMBLG@DPNERR_NOTREGISTERED?$AA@ 00494754     dxerr8:dxerr8.obj
 0002:0000476c       ??_C@_0BC@LDJOCFJG@DPNERR_PLAYERLOST?$AA@ 0049476c     dxerr8:dxerr8.obj
 0002:00004780       ??_C@_0BC@MBAALCPD@DPNERR_NOTALLOWED?$AA@ 00494780     dxerr8:dxerr8.obj
 0002:00004794       ??_C@_0BE@GJMILOIE@DPNERR_NOCONNECTION?$AA@ 00494794     dxerr8:dxerr8.obj
 0002:000047a8       ??_C@_0BE@CNFECHFP@DPNERR_NOHOSTPLAYER?$AA@ 004947a8     dxerr8:dxerr8.obj
 0002:000047bc       ??_C@_0BP@DIHBIEIB@DPNERR_NOMOREADDRESSCOMPONENTS?$AA@ 004947bc     dxerr8:dxerr8.obj
 0002:000047dc       ??_C@_0BC@PPHDBNNC@DPNERR_NORESPONSE?$AA@ 004947dc     dxerr8:dxerr8.obj
 0002:000047f0       ??_C@_0O@EHDOENHE@DPNERR_NOCAPS?$AA@ 004947f0     dxerr8:dxerr8.obj
 0002:00004800       ??_C@_0BF@NCKJEMAB@DPNERR_INVALIDSTRING?$AA@ 00494800     dxerr8:dxerr8.obj
 0002:00004818       ??_C@_0BC@HFKLLDBM@DPNERR_INVALIDURL?$AA@ 00494818     dxerr8:dxerr8.obj
 0002:0000482c       ??_C@_0BG@CJPCIEGN@DPNERR_INVALIDVERSION?$AA@ 0049482c     dxerr8:dxerr8.obj
 0002:00004844       ??_C@_0BH@GPBAJNPJ@DPNERR_INVALIDPRIORITY?$AA@ 00494844     dxerr8:dxerr8.obj
 0002:0000485c       ??_C@_0BI@GPKHJHEM@DPNERR_INVALIDINTERFACE?$AA@ 0049485c     dxerr8:dxerr8.obj
 0002:00004874       ??_C@_0BF@NECJOKAH@DPNERR_INVALIDOBJECT?$AA@ 00494874     dxerr8:dxerr8.obj
 0002:0000488c       ??_C@_0BH@DMPEGKFD@DPNERR_INVALIDPASSWORD?$AA@ 0049488c     dxerr8:dxerr8.obj
 0002:000048a4       ??_C@_0BF@EAHNGFFC@DPNERR_INVALIDPLAYER?$AA@ 004948a4     dxerr8:dxerr8.obj
 0002:000048bc       ??_C@_0BH@KLFBEBCM@DPNERR_INVALIDINSTANCE?$AA@ 004948bc     dxerr8:dxerr8.obj
 0002:000048d4       ??_C@_0BE@PIKENOBJ@DPNERR_INVALIDFLAGS?$AA@ 004948d4     dxerr8:dxerr8.obj
 0002:000048e8       ??_C@_0BE@DIHIHHLB@DPNERR_INVALIDGROUP?$AA@ 004948e8     dxerr8:dxerr8.obj
 0002:000048fc       ??_C@_0BF@ICKDADKP@DPNERR_INVALIDHANDLE?$AA@ 004948fc     dxerr8:dxerr8.obj
 0002:00004914       ??_C@_0BK@KGGBCBLD@DPNERR_INVALIDHOSTADDRESS?$AA@ 00494914     dxerr8:dxerr8.obj
 0002:00004930       ??_C@_0BH@NGLGEPF@DPNERR_INVALIDENDPOINT?$AA@ 00494930     dxerr8:dxerr8.obj
 0002:00004948       ??_C@_0BM@PNDMJPGH@DPNERR_INVALIDADDRESSFORMAT?$AA@ 00494948     dxerr8:dxerr8.obj
 0002:00004964       ??_C@_0BK@JDKALINN@DPNERR_INVALIDAPPLICATION?$AA@ 00494964     dxerr8:dxerr8.obj
 0002:00004980       ??_C@_0BG@KKBANHJD@DPNERR_INVALIDCOMMAND?$AA@ 00494980     dxerr8:dxerr8.obj
 0002:00004998       ??_C@_0BM@ENKIENFF@DPNERR_INVALIDDEVICEADDRESS?$AA@ 00494998     dxerr8:dxerr8.obj
 0002:000049b4       ??_C@_0BJ@GBCONKGB@DPNERR_INCOMPLETEADDRESS?$AA@ 004949b4     dxerr8:dxerr8.obj
 0002:000049d0       ??_C@_0BB@FCEAHPKF@DPNERR_EXCEPTION?$AA@ 004949d0     dxerr8:dxerr8.obj
 0002:000049e4       ??_C@_0BF@LLPEJIPC@DPNERR_GROUPNOTEMPTY?$AA@ 004949e4     dxerr8:dxerr8.obj
 0002:000049fc       ??_C@_0P@LMEBGJHC@DPNERR_HOSTING?$AA@ 004949fc     dxerr8:dxerr8.obj
 0002:00004a0c       ??_C@_0BO@ECKDDIED@DPNERR_HOSTREJECTEDCONNECTION?$AA@ 00494a0c     dxerr8:dxerr8.obj
 0002:00004a2c       ??_C@_0BN@EFOCFNJB@DPNERR_HOSTTERMINATEDSESSION?$AA@ 00494a2c     dxerr8:dxerr8.obj
 0002:00004a4c       ??_C@_0BM@EIHGJBIO@DPNERR_ENUMRESPONSETOOLARGE?$AA@ 00494a4c     dxerr8:dxerr8.obj
 0002:00004a68       ??_C@_0BC@LOOBOGC@DPNERR_CONVERSION?$AA@ 00494a68     dxerr8:dxerr8.obj
 0002:00004a7c       ??_C@_0BE@EBDPIPLC@DPNERR_DATATOOLARGE?$AA@ 00494a7c     dxerr8:dxerr8.obj
 0002:00004a90       ??_C@_0BE@DNALEKLA@DPNERR_DOESNOTEXIST?$AA@ 00494a90     dxerr8:dxerr8.obj
 0002:00004aa4       ??_C@_0BI@MEDCKCFA@DPNERR_DUPLICATECOMMAND?$AA@ 00494aa4     dxerr8:dxerr8.obj
 0002:00004abc       ??_C@_0BM@IIDPGHKJ@DPNERR_ENDPOINTNOTRECEIVING?$AA@ 00494abc     dxerr8:dxerr8.obj
 0002:00004ad8       ??_C@_0BJ@HDEJJFCD@DPNERR_ENUMQUERYTOOLARGE?$AA@ 00494ad8     dxerr8:dxerr8.obj
 0002:00004af4       ??_C@_0BG@JIPIFPJP@DPNERR_CONNECTIONLOST?$AA@ 00494af4     dxerr8:dxerr8.obj
 0002:00004b0c       ??_C@_0BE@ENNHAOFP@DPNERR_CANNOTCANCEL?$AA@ 00494b0c     dxerr8:dxerr8.obj
 0002:00004b20       ??_C@_0BH@IACFFNBF@DPNERR_CANTCREATEGROUP?$AA@ 00494b20     dxerr8:dxerr8.obj
 0002:00004b38       ??_C@_0BI@JBHOFPIJ@DPNERR_CANTCREATEPLAYER?$AA@ 00494b38     dxerr8:dxerr8.obj
 0002:00004b50       ??_C@_0BN@CMDOMJBH@DPNERR_CANTLAUNCHAPPLICATION?$AA@ 00494b50     dxerr8:dxerr8.obj
 0002:00004b70       ??_C@_0BC@OBKOIKM@DPNERR_CONNECTING?$AA@ 00494b70     dxerr8:dxerr8.obj
 0002:00004b84       ??_C@_0BG@DABMBHJA@DPNERR_BUFFERTOOSMALL?$AA@ 00494b84     dxerr8:dxerr8.obj
 0002:00004b9c       ??_C@_0BC@KBFKNKOL@DPNERR_ADDRESSING?$AA@ 00494b9c     dxerr8:dxerr8.obj
 0002:00004bb0       ??_C@_0BG@GJMEAEJI@DPNERR_ALREADYCLOSING?$AA@ 00494bb0     dxerr8:dxerr8.obj
 0002:00004bc8       ??_C@_0BI@GCGBFFAL@DPNERR_ALREADYCONNECTED?$AA@ 00494bc8     dxerr8:dxerr8.obj
 0002:00004be0       ??_C@_0BM@GIHIILB@DPNERR_ALREADYDISCONNECTING?$AA@ 00494be0     dxerr8:dxerr8.obj
 0002:00004bfc       ??_C@_0BK@LALJHGPB@DPNERR_ALREADYINITIALIZED?$AA@ 00494bfc     dxerr8:dxerr8.obj
 0002:00004c18       ??_C@_0BJ@FGMICGKI@DPNERR_ALREADYREGISTERED?$AA@ 00494c18     dxerr8:dxerr8.obj
 0002:00004c34       ??_C@_0P@LMIGBHLJ@DPNERR_ABORTED?$AA@ 00494c34     dxerr8:dxerr8.obj
 0002:00004c44       ??_C@_0BD@MHHBCHMG@DVERR_LOCKEDBUFFER?$AA@ 00494c44     dxerr8:dxerr8.obj
 0002:00004c58       ??_C@_0BE@DCLOFBIA@DVERR_INVALIDBUFFER?$AA@ 00494c58     dxerr8:dxerr8.obj
 0002:00004c6c       ??_C@_0BI@DKEIMNBG@DVERR_NORECVOLAVAILABLE?$AA@ 00494c6c     dxerr8:dxerr8.obj
 0002:00004c84       ??_C@_0P@HLJOKPDO@DVERR_USERBACK?$AA@ 00494c84     dxerr8:dxerr8.obj
 0002:00004c94       ??_C@_0BI@JEFEEAGN@DVERR_TRANSPORTNOPLAYER?$AA@ 00494c94     dxerr8:dxerr8.obj
 0002:00004cac       ??_C@_0BJ@BMPMFNLE@DVERR_TRANSPORTNOSESSION?$AA@ 00494cac     dxerr8:dxerr8.obj
 0002:00004cc8       ??_C@_0BH@PBPDIEAB@DVERR_TRANSPORTNOTINIT?$AA@ 00494cc8     dxerr8:dxerr8.obj
 0002:00004ce0       ??_C@_0BB@OJOKLHDB@DVERR_NOCALLBACK?$AA@ 00494ce0     dxerr8:dxerr8.obj
 0002:00004cf4       ??_C@_0BC@BPGONKEL@DVERR_NOTRANSPORT?$AA@ 00494cf4     dxerr8:dxerr8.obj
 0002:00004d08       ??_C@_0BC@IFIDLBDO@DVERR_INITIALIZED?$AA@ 00494d08     dxerr8:dxerr8.obj
 0002:00004d1c       ??_C@_0BK@LHIAIFHC@DVERR_INCOMPATIBLEVERSION?$AA@ 00494d1c     dxerr8:dxerr8.obj
 0002:00004d38       ??_C@_0P@HELBCDMK@DVERR_RUNSETUP?$AA@ 00494d38     dxerr8:dxerr8.obj
 0002:00004d48       ??_C@_0BB@LGGCHGFC@DVERR_USERCANCEL?$AA@ 00494d48     dxerr8:dxerr8.obj
 0002:00004d5c       ??_C@_0BA@BHNOAHAA@DVERR_SENDERROR?$AA@ 00494d5c     dxerr8:dxerr8.obj
 0002:00004d6c       ??_C@_0BK@OKHEDAMB@DVERR_PLAYBACKSYSTEMERROR?$AA@ 00494d6c     dxerr8:dxerr8.obj
 0002:00004d88       ??_C@_0BI@MGBAGBEL@DVERR_RECORDSYSTEMERROR?$AA@ 00494d88     dxerr8:dxerr8.obj
 0002:00004da0       ??_C@_0BE@GLDFBJNB@DVERR_INVALIDDEVICE?$AA@ 00494da0     dxerr8:dxerr8.obj
 0002:00004db4       ??_C@_0BB@HDBFLPOD@DVERR_NOTHOSTING?$AA@ 00494db4     dxerr8:dxerr8.obj
 0002:00004dc8       ??_C@_0O@GLLEMLIM@DVERR_HOSTING?$AA@ 00494dc8     dxerr8:dxerr8.obj
 0002:00004dd8       ??_C@_0BC@HCHDEKLA@DVERR_NOTBUFFERED?$AA@ 00494dd8     dxerr8:dxerr8.obj
 0002:00004dec       ??_C@_0BG@EAEAIDFP@DVERR_ALREADYBUFFERED?$AA@ 00494dec     dxerr8:dxerr8.obj
 0002:00004e04       ??_C@_0BA@KKIHFGGL@DVERR_NO3DSOUND?$AA@ 00494e04     dxerr8:dxerr8.obj
 0002:00004e14       ??_C@_0BF@LAPFGNMN@DVERR_CONNECTABORTED?$AA@ 00494e14     dxerr8:dxerr8.obj
 0002:00004e2c       ??_C@_0O@BDNLFFNE@DVERR_TIMEOUT?$AA@ 00494e2c     dxerr8:dxerr8.obj
 0002:00004e3c       ??_C@_0BH@IGNHONFD@DVERR_SOUNDINITFAILURE?$AA@ 00494e3c     dxerr8:dxerr8.obj
 0002:00004e54       ??_C@_0BF@EMDGEANI@DVERR_ALREADYPENDING?$AA@ 00494e54     dxerr8:dxerr8.obj
 0002:00004e6c       ??_C@_0BO@OLECNBHN@DVERR_COMPRESSIONNOTSUPPORTED?$AA@ 00494e6c     dxerr8:dxerr8.obj
 0002:00004e8c       ??_C@_0BH@GFJOOMHC@DVERR_TRANSPORTNOTHOST?$AA@ 00494e8c     dxerr8:dxerr8.obj
 0002:00004ea4       ??_C@_0BE@NFHBEJFI@DVERR_INVALIDTARGET?$AA@ 00494ea4     dxerr8:dxerr8.obj
 0002:00004eb8       ??_C@_0BB@CPLMDEAG@DVERR_NOTALLOWED?$AA@ 00494eb8     dxerr8:dxerr8.obj
 0002:00004ecc       ??_C@_0BA@GIMKICNH@DVERR_CONNECTED?$AA@ 00494ecc     dxerr8:dxerr8.obj
 0002:00004edc       ??_C@_0BD@NNMHFIDL@DVERR_NOTCONNECTED?$AA@ 00494edc     dxerr8:dxerr8.obj
 0002:00004ef0       ??_C@_0BG@BNBMKIMM@DVERR_CONNECTABORTING?$AA@ 00494ef0     dxerr8:dxerr8.obj
 0002:00004f08       ??_C@_0BF@BBEOIDBJ@DVERR_NOTINITIALIZED?$AA@ 00494f08     dxerr8:dxerr8.obj
 0002:00004f20       ??_C@_0BE@JOKCHCBA@DVERR_INVALIDHANDLE?$AA@ 00494f20     dxerr8:dxerr8.obj
 0002:00004f34       ??_C@_0BC@PENJHABH@DVERR_SESSIONLOST?$AA@ 00494f34     dxerr8:dxerr8.obj
 0002:00004f48       ??_C@_0BF@GPLNODHK@DVERR_NOVOICESESSION?$AA@ 00494f48     dxerr8:dxerr8.obj
 0002:00004f60       ??_C@_0BF@MDDKPAPD@DVERR_CONNECTIONLOST?$AA@ 00494f60     dxerr8:dxerr8.obj
 0002:00004f78       ??_C@_0BD@FFGIKKOA@DVERR_INVALIDGROUP?$AA@ 00494f78     dxerr8:dxerr8.obj
 0002:00004f8c       ??_C@_0BA@OAKHKGKH@DVERR_EXCEPTION?$AA@ 00494f8c     dxerr8:dxerr8.obj
 0002:00004f9c       ??_C@_0BD@JFLEADEI@DVERR_INVALIDFLAGS?$AA@ 00494f9c     dxerr8:dxerr8.obj
 0002:00004fb0       ??_C@_0BE@MICIJLLI@DVERR_INVALIDOBJECT?$AA@ 00494fb0     dxerr8:dxerr8.obj
 0002:00004fc4       ??_C@_0BE@FMHMBEON@DVERR_INVALIDPLAYER?$AA@ 00494fc4     dxerr8:dxerr8.obj
 0002:00004fd8       ??_C@_0BF@GLNOLIPM@DVERR_BUFFERTOOSMALL?$AA@ 00494fd8     dxerr8:dxerr8.obj
 0002:00004ff0       ??_C@_0BN@FFKALFMN@DIERR_BETADIRECTINPUTVERSION?$AA@ 00494ff0     dxerr8:dxerr8.obj
 0002:00005010       ??_C@_0BG@HGPEKEJD@E_PROP_ID_UNSUPPORTED?$AA@ 00495010     dxerr8:dxerr8.obj
 0002:00005028       ??_C@_0BH@DEPFBJPD@E_PROP_SET_UNSUPPORTED?$AA@ 00495028     dxerr8:dxerr8.obj
 0002:00005040       ??_C@_0BJ@IKGGGNFD@DIERR_ALREADYINITIALIZED?$AA@ 00495040     dxerr8:dxerr8.obj
 0002:0000505c       ??_C@_0BM@FGIBEKPK@DIERR_OLDDIRECTINPUTVERSION?$AA@ 0049505c     dxerr8:dxerr8.obj
 0002:00005078       ??_C@_0N@CCOIBCCK@E_INVALIDARG?$AA@ 00495078     dxerr8:dxerr8.obj
 0002:00005088       ??_C@_0BD@NCNAKIOE@DIERR_BADDRIVERVER?$AA@ 00495088     dxerr8:dxerr8.obj
 0002:0000509c       ??_C@_0P@PONCCEIK@DIERR_ACQUIRED?$AA@ 0049509c     dxerr8:dxerr8.obj
 0002:000050ac       ??_C@_0BC@NIPBAIAG@DIERR_NOMOREITEMS?$AA@ 004950ac     dxerr8:dxerr8.obj
 0002:000050c0       ??_C@_0BA@OLDKOKEA@DIERR_INPUTLOST?$AA@ 004950c0     dxerr8:dxerr8.obj
 0002:000050d0       ??_C@_0P@CMCMKPDH@E_ACCESSDENIED?$AA@ 004950d0     dxerr8:dxerr8.obj
 0002:000050e0       ??_C@_08LFCOEIAC@E_HANDLE?$AA@ 004950e0     dxerr8:dxerr8.obj
 0002:000050ec       ??_C@_0BC@MCDCNLAF@DIERR_NOTACQUIRED?$AA@ 004950ec     dxerr8:dxerr8.obj
 0002:00005100       ??_C@_0O@MNIAMCLP@E_OUTOFMEMORY?$AA@ 00495100     dxerr8:dxerr8.obj
 0002:00005110       ??_C@_0BF@INBHFIBN@DIERR_NOTINITIALIZED?$AA@ 00495110     dxerr8:dxerr8.obj
 0002:00005128       ??_C@_0P@LPHMIDHO@DIERR_NOTFOUND?$AA@ 00495128     dxerr8:dxerr8.obj
 0002:00005138       ??_C@_0BB@JAIADLFC@DIERR_DRIVERLAST?$AA@ 00495138     dxerr8:dxerr8.obj
 0002:0000514c       ??_C@_0BM@ODLCPGJ@DIERR_INVALIDCLASSINSTALLER?$AA@ 0049514c     dxerr8:dxerr8.obj
 0002:00005168       ??_C@_0BA@MGMIIMPG@DIERR_CANCELLED?$AA@ 00495168     dxerr8:dxerr8.obj
 0002:00005178       ??_C@_0N@GKPBLIIN@DIERR_BADINF?$AA@ 00495178     dxerr8:dxerr8.obj
 0002:00005188       ??_C@_0O@GMELENHA@VFW_E_BAD_KEY?$AA@ 00495188     dxerr8:dxerr8.obj
 0002:00005198       ??_C@_0BE@NDELPNAK@DIERR_DRIVERFIRST?$CL1?$AA@ 00495198     dxerr8:dxerr8.obj
 0002:000051ac       ??_C@_0BE@PIGGKOMJ@DIERR_DRIVERFIRST?$CL2?$AA@ 004951ac     dxerr8:dxerr8.obj
 0002:000051c0       ??_C@_0BE@OBHNJPII@DIERR_DRIVERFIRST?$CL3?$AA@ 004951c0     dxerr8:dxerr8.obj
 0002:000051d4       ??_C@_0BE@KODMAJEP@DIERR_DRIVERFIRST?$CL4?$AA@ 004951d4     dxerr8:dxerr8.obj
 0002:000051e8       ??_C@_0BE@LHCHDIAO@DIERR_DRIVERFIRST?$CL5?$AA@ 004951e8     dxerr8:dxerr8.obj
 0002:000051fc       ??_C@_0BC@HHDKDBPE@DIERR_DRIVERFIRST?$AA@ 004951fc     dxerr8:dxerr8.obj
 0002:00005210       ??_C@_0BM@NNIFPAHC@VFW_E_CERTIFICATION_FAILURE?$AA@ 00495210     dxerr8:dxerr8.obj
 0002:0000522c       ??_C@_0BK@DLEOACDC@VFW_E_PIN_ALREADY_BLOCKED?$AA@ 0049522c     dxerr8:dxerr8.obj
 0002:00005248       ??_C@_0CJ@BCMCLJOK@VFW_E_PIN_ALREADY_BLOCKED_ON_THI@ 00495248     dxerr8:dxerr8.obj
 0002:00005274       ??_C@_0CA@CDPJOMLN@VFW_E_DVD_NO_RESUME_INFORMATION?$AA@ 00495274     dxerr8:dxerr8.obj
 0002:00005294       ??_C@_0BH@IJIMKFDJ@VFW_E_DVD_INVALID_DISC?$AA@ 00495294     dxerr8:dxerr8.obj
 0002:000052ac       ??_C@_0BI@KKADMEGB@VFW_E_DVD_TITLE_UNKNOWN?$AA@ 004952ac     dxerr8:dxerr8.obj
 0002:000052c4       ??_C@_0BK@DDNGHAFG@VFW_E_DVD_STREAM_DISABLED?$AA@ 004952c4     dxerr8:dxerr8.obj
 0002:000052e0       ??_C@_0BN@OAGMDDDG@VFW_E_FRAME_STEP_UNSUPPORTED?$AA@ 004952e0     dxerr8:dxerr8.obj
 0002:00005300       ??_C@_0BO@JPIIBDEK@VFW_E_DVD_NOT_IN_KARAOKE_MODE?$AA@ 00495300     dxerr8:dxerr8.obj
 0002:00005320       ??_C@_0BN@BAAHLCIO@VFW_E_DVD_LOW_PARENTAL_LEVEL?$AA@ 00495320     dxerr8:dxerr8.obj
 0002:00005340       ??_C@_0BG@KDNDODPL@VFW_E_DVD_NO_GOUP_PGC?$AA@ 00495340     dxerr8:dxerr8.obj
 0002:00005358       ??_C@_0BI@NGNHGLBJ@VFW_E_DVD_NO_ATTRIBUTES?$AA@ 00495358     dxerr8:dxerr8.obj
 0002:00005370       ??_C@_0BO@ICBJFFBO@VFW_E_DVD_INCOMPATIBLE_REGION?$AA@ 00495370     dxerr8:dxerr8.obj
 0002:00005390       ??_C@_0BL@GMNHCHMH@VFW_E_DVD_STATE_WRONG_DISC?$AA@ 00495390     dxerr8:dxerr8.obj
 0002:000053ac       ??_C@_0BI@KLMHFGAK@VFW_E_DVD_STATE_CORRUPT?$AA@ 004953ac     dxerr8:dxerr8.obj
 0002:000053c4       ??_C@_0BO@PHDANCHP@VFW_E_DVD_STATE_WRONG_VERSION?$AA@ 004953c4     dxerr8:dxerr8.obj
 0002:000053e4       ??_C@_0BI@MMOBNABO@VFW_E_DVD_CMD_CANCELLED?$AA@ 004953e4     dxerr8:dxerr8.obj
 0002:000053fc       ??_C@_0BO@NEMMGMFC@VFW_E_DVD_MENU_DOES_NOT_EXIST?$AA@ 004953fc     dxerr8:dxerr8.obj
 0002:0000541c       ??_C@_0BG@IEFOMOGJ@VFW_E_DVD_WRONG_SPEED?$AA@ 0049541c     dxerr8:dxerr8.obj
 0002:00005434       ??_C@_0BD@PBHCCOPN@VFW_E_TIME_EXPIRED?$AA@ 00495434     dxerr8:dxerr8.obj
 0002:00005448       ??_C@_0BG@NKMEBJJM@VFW_E_COPYPROT_FAILED?$AA@ 00495448     dxerr8:dxerr8.obj
 0002:00005460       ??_C@_0CB@NOEAGGNN@VFW_E_DDRAW_VERSION_NOT_SUITABLE@ 00495460     dxerr8:dxerr8.obj
 0002:00005484       ??_C@_0BH@LEJCJLKJ@VFW_E_DVD_DECNOTENOUGH?$AA@ 00495484     dxerr8:dxerr8.obj
 0002:0000549c       ??_C@_0BF@BANMGEBA@VFW_E_DVD_RENDERFAIL?$AA@ 0049549c     dxerr8:dxerr8.obj
 0002:000054b4       ??_C@_0BI@BLOMLHGA@VFW_E_DVD_GRAPHNOTREADY?$AA@ 004954b4     dxerr8:dxerr8.obj
 0002:000054cc       ??_C@_0BE@DBFAHLLE@VFW_E_DVD_NO_BUTTON?$AA@ 004954cc     dxerr8:dxerr8.obj
 0002:000054e0       ??_C@_0BI@DMGPOCND@VFW_E_DVD_INVALIDDOMAIN?$AA@ 004954e0     dxerr8:dxerr8.obj
 0002:000054f8       ??_C@_0BO@FGEAHLEC@VFW_E_DVD_OPERATION_INHIBITED?$AA@ 004954f8     dxerr8:dxerr8.obj
 0002:00005518       ??_C@_0BK@HPHNDGD@VFW_E_NO_CAPTURE_HARDWARE?$AA@ 00495518     dxerr8:dxerr8.obj
 0002:00005534       ??_C@_0BF@MJINCMOA@VFW_E_NO_VP_HARDWARE?$AA@ 00495534     dxerr8:dxerr8.obj
 0002:0000554c       ??_C@_0BO@LDFGKIIH@VFW_E_DDRAW_CAPS_NOT_SUITABLE?$AA@ 0049554c     dxerr8:dxerr8.obj
 0002:0000556c       ??_C@_0BM@CNBOCAIB@VFW_E_VP_NEGOTIATION_FAILED?$AA@ 0049556c     dxerr8:dxerr8.obj
 0002:00005588       ??_C@_0BK@DAFLPDCA@VFW_E_OUT_OF_VIDEO_MEMORY?$AA@ 00495588     dxerr8:dxerr8.obj
 0002:000055a4       ??_C@_0BC@GOAPHMLD@VFW_E_BAD_VIDEOCD?$AA@ 004955a4     dxerr8:dxerr8.obj
 0002:000055b8       ??_C@_0BD@MFFGDDNP@VFW_E_NO_TRANSPORT?$AA@ 004955b8     dxerr8:dxerr8.obj
 0002:000055cc       ??_C@_0BJ@HOILOBCJ@VFW_E_UNSUPPORTED_STREAM?$AA@ 004955cc     dxerr8:dxerr8.obj
 0002:000055e8       ??_C@_0BH@HICENJMB@VFW_E_BUFFER_UNDERFLOW?$AA@ 004955e8     dxerr8:dxerr8.obj
 0002:00005600       ??_C@_0BA@HNOJJLJH@VFW_E_READ_ONLY?$AA@ 00495600     dxerr8:dxerr8.obj
 0002:00005610       ??_C@_0BF@HNPBJLEF@VFW_E_NO_TIME_FORMAT?$AA@ 00495610     dxerr8:dxerr8.obj
 0002:00005628       ??_C@_0BD@MPCAPLPL@VFW_E_NOT_IN_GRAPH?$AA@ 00495628     dxerr8:dxerr8.obj
 0002:0000563c       ??_C@_0BL@OBMGGLEA@VFW_E_MPEG_NOT_CONSTRAINED?$AA@ 0049563c     dxerr8:dxerr8.obj
 0002:00005658       ??_C@_0BI@BBLMEOGN@VFW_E_UNSUPPORTED_VIDEO?$AA@ 00495658     dxerr8:dxerr8.obj
 0002:00005670       ??_C@_0BI@KDGFPPKJ@VFW_E_UNSUPPORTED_AUDIO?$AA@ 00495670     dxerr8:dxerr8.obj
 0002:00005688       ??_C@_0BN@NCJPHNCK@VFW_E_PROCESSOR_NOT_SUITABLE?$AA@ 00495688     dxerr8:dxerr8.obj
 0002:000056a8       ??_C@_0L@OHJOEFJB@VFW_E_RPZA?$AA@ 004956a8     dxerr8:dxerr8.obj
 0002:000056b4       ??_C@_0BI@DDBOFJIL@VFW_E_NO_AUDIO_HARDWARE?$AA@ 004956b4     dxerr8:dxerr8.obj
 0002:000056cc       ??_C@_0BG@GPJEEMNG@VFW_E_NO_DECOMPRESSOR?$AA@ 004956cc     dxerr8:dxerr8.obj
 0002:000056e4       ??_C@_0BE@DAIBEADF@VFW_E_MONO_AUDIO_HW?$AA@ 004956e4     dxerr8:dxerr8.obj
 0002:000056f8       ??_C@_0BJ@LFOCANEO@VFW_E_NO_TIME_FORMAT_SET?$AA@ 004956f8     dxerr8:dxerr8.obj
 0002:00005714       ??_C@_0BJ@JAJKDAKJ@VFW_E_MEDIA_TIME_NOT_SET?$AA@ 00495714     dxerr8:dxerr8.obj
 0002:00005730       ??_C@_0BK@CFOLCFMN@VFW_E_SAMPLE_TIME_NOT_SET?$AA@ 00495730     dxerr8:dxerr8.obj
 0002:0000574c       ??_C@_0BJ@EOPGPOBF@VFW_E_INVALID_MEDIA_TYPE?$AA@ 0049574c     dxerr8:dxerr8.obj
 0002:00005768       ??_C@_0BE@MCJAAKHG@VFW_E_INVALID_CLSID?$AA@ 00495768     dxerr8:dxerr8.obj
 0002:0000577c       ??_C@_0BL@OHOFAMHP@VFW_E_INVALID_FILE_VERSION?$AA@ 0049577c     dxerr8:dxerr8.obj
 0002:00005798       ??_C@_0BF@LIMMCJJA@VFW_E_FILE_TOO_SHORT?$AA@ 00495798     dxerr8:dxerr8.obj
 0002:000057b0       ??_C@_0CA@JEMKGDNC@VFW_E_CANNOT_LOAD_SOURCE_FILTER?$AA@ 004957b0     dxerr8:dxerr8.obj
 0002:000057d0       ??_C@_0BI@CLFACHPL@VFW_E_UNKNOWN_FILE_TYPE?$AA@ 004957d0     dxerr8:dxerr8.obj
 0002:000057e8       ??_C@_0BJ@BJDGMMHC@VFW_E_IN_FULLSCREEN_MODE?$AA@ 004957e8     dxerr8:dxerr8.obj
 0002:00005804       ??_C@_0BE@BCGHPIMD@VFW_E_NO_FULLSCREEN?$AA@ 00495804     dxerr8:dxerr8.obj
 0002:00005818       ??_C@_0BE@GJKIBECJ@VFW_E_NO_ADVISE_SET?$AA@ 00495818     dxerr8:dxerr8.obj
 0002:0000582c       ??_C@_0BJ@KMLOJK@VFW_E_NO_MODEX_AVAILABLE?$AA@ 0049582c     dxerr8:dxerr8.obj
 0002:00005848       ??_C@_0BJ@LPGDEGNH@VFW_E_ADVISE_ALREADY_SET?$AA@ 00495848     dxerr8:dxerr8.obj
 0002:00005864       ??_C@_0BJ@OKIGDCBF@VFW_E_CORRUPT_GRAPH_FILE?$AA@ 00495864     dxerr8:dxerr8.obj
 0002:00005880       ??_C@_0BI@GPPBGAKJ@VFW_E_ALREADY_CANCELLED?$AA@ 00495880     dxerr8:dxerr8.obj
 0002:00005898       ??_C@_0BK@LPDCLOFH@VFW_E_TIME_ALREADY_PASSED?$AA@ 00495898     dxerr8:dxerr8.obj
 0002:000058b4       ??_C@_0BK@IEMLJJJO@VFW_E_NOT_ALLOWED_TO_SAVE?$AA@ 004958b4     dxerr8:dxerr8.obj
 0002:000058d0       ??_C@_0BF@GEAGMPMP@VFW_E_CIRCULAR_GRAPH?$AA@ 004958d0     dxerr8:dxerr8.obj
 0002:000058e8       ??_C@_0BI@DOMAIDNN@VFW_E_ENUM_OUT_OF_RANGE?$AA@ 004958e8     dxerr8:dxerr8.obj
 0002:00005900       ??_C@_0BK@BNODBBLP@VFW_E_INVALID_FILE_FORMAT?$AA@ 00495900     dxerr8:dxerr8.obj
 0002:0000591c       ??_C@_0O@MOMFKPDK@VFW_E_TIMEOUT?$AA@ 0049591c     dxerr8:dxerr8.obj
 0002:0000592c       ??_C@_0BF@BKGLDEDD@VFW_E_DUPLICATE_NAME?$AA@ 0049592c     dxerr8:dxerr8.obj
 0002:00005944       ??_C@_0BK@JOLCHIBD@VFW_E_SAMPLE_REJECTED_EOS?$AA@ 00495944     dxerr8:dxerr8.obj
 0002:00005960       ??_C@_0BG@DDHBJCKP@VFW_E_SAMPLE_REJECTED?$AA@ 00495960     dxerr8:dxerr8.obj
 0002:00005978       ??_C@_0BI@KPLMBC@VFW_E_TYPE_NOT_ACCEPTED?$AA@ 00495978     dxerr8:dxerr8.obj
 0002:00005990       ??_C@_0BD@PFIGGKOB@VFW_E_INVALID_RECT?$AA@ 00495990     dxerr8:dxerr8.obj
 0002:000059a4       ??_C@_0BL@DDCJJGHF@VFW_E_START_TIME_AFTER_END?$AA@ 004959a4     dxerr8:dxerr8.obj
 0002:000059c0       ??_C@_0BC@JJBKAOIH@VFW_E_WRONG_STATE?$AA@ 004959c0     dxerr8:dxerr8.obj
 0002:000059d4       ??_C@_0BC@OKDMOOKH@VFW_E_NOT_RUNNING?$AA@ 004959d4     dxerr8:dxerr8.obj
 0002:000059e8       ??_C@_0BB@EIHPCDCM@VFW_E_NOT_PAUSED?$AA@ 004959e8     dxerr8:dxerr8.obj
 0002:000059fc       ??_C@_0BC@JOAELLPM@VFW_E_NOT_STOPPED?$AA@ 004959fc     dxerr8:dxerr8.obj
 0002:00005a10       ??_C@_0BE@DFHGDACI@VFW_E_STATE_CHANGED?$AA@ 00495a10     dxerr8:dxerr8.obj
 0002:00005a24       ??_C@_0BG@EEHKBFKL@VFW_E_TOO_MANY_COLORS?$AA@ 00495a24     dxerr8:dxerr8.obj
 0002:00005a3c       ??_C@_0BJ@CPAHIKED@VFW_E_NO_DISPLAY_PALETTE?$AA@ 00495a3c     dxerr8:dxerr8.obj
 0002:00005a58       ??_C@_0BL@INGPKHGD@VFW_E_NO_PALETTE_AVAILABLE?$AA@ 00495a58     dxerr8:dxerr8.obj
 0002:00005a74       ??_C@_0BJ@CDNKKCFJ@VFW_E_NO_COLOR_KEY_FOUND?$AA@ 00495a74     dxerr8:dxerr8.obj
 0002:00005a90       ??_C@_0BE@EDIOFLOF@VFW_E_COLOR_KEY_SET?$AA@ 00495a90     dxerr8:dxerr8.obj
 0002:00005aa4       ??_C@_0BC@FFLFKHPK@VFW_E_PALETTE_SET?$AA@ 00495aa4     dxerr8:dxerr8.obj
 0002:00005ab8       ??_C@_0BM@FHOFKLC@VFW_E_NOT_SAMPLE_CONNECTION?$AA@ 00495ab8     dxerr8:dxerr8.obj
 0002:00005ad4       ??_C@_0BN@NPBFKNEI@VFW_E_NOT_OVERLAY_CONNECTION?$AA@ 00495ad4     dxerr8:dxerr8.obj
 0002:00005af4       ??_C@_0BH@JBCLIEGL@VFW_E_NO_COLOR_KEY_SET?$AA@ 00495af4     dxerr8:dxerr8.obj
 0002:00005b0c       ??_C@_0BG@CEJJCDGD@VFW_E_CHANGING_FORMAT?$AA@ 00495b0c     dxerr8:dxerr8.obj
 0002:00005b24       ??_C@_0BE@CMFAKLGM@VFW_E_CANNOT_RENDER?$AA@ 00495b24     dxerr8:dxerr8.obj
 0002:00005b38       ??_C@_0BF@NJMKFKJF@VFW_E_CANNOT_CONNECT?$AA@ 00495b38     dxerr8:dxerr8.obj
 0002:00005b50       ??_C@_0BA@NLPOLMKL@VFW_E_NOT_FOUND?$AA@ 00495b50     dxerr8:dxerr8.obj
 0002:00005b60       ??_C@_0BD@OBLAMPLE@VFW_E_NO_INTERFACE?$AA@ 00495b60     dxerr8:dxerr8.obj
 0002:00005b74       ??_C@_0O@BJJCGLIC@VFW_E_NO_SINK?$AA@ 00495b74     dxerr8:dxerr8.obj
 0002:00005b84       ??_C@_0P@GNLLFNJP@VFW_E_NO_CLOCK?$AA@ 00495b84     dxerr8:dxerr8.obj
 0002:00005b94       ??_C@_0BB@HPPDJBNE@VFW_E_SIZENOTSET?$AA@ 00495b94     dxerr8:dxerr8.obj
 0002:00005ba8       ??_C@_0BE@GCKJICFC@VFW_E_NOT_COMMITTED?$AA@ 00495ba8     dxerr8:dxerr8.obj
 0002:00005bbc       ??_C@_0BK@FHIBDPKM@VFW_E_BUFFERS_OUTSTANDING?$AA@ 00495bbc     dxerr8:dxerr8.obj
 0002:00005bd8       ??_C@_0BI@MLHMKEMN@VFW_E_ALREADY_COMMITTED?$AA@ 00495bd8     dxerr8:dxerr8.obj
 0002:00005bf0       ??_C@_0P@OJABNGMD@VFW_E_BADALIGN?$AA@ 00495bf0     dxerr8:dxerr8.obj
 0002:00005c00       ??_C@_0BG@ICILILNP@VFW_E_BUFFER_OVERFLOW?$AA@ 00495c00     dxerr8:dxerr8.obj
 0002:00005c18       ??_C@_0BE@KNDHGKPB@VFW_E_BUFFER_NOTSET?$AA@ 00495c18     dxerr8:dxerr8.obj
 0002:00005c2c       ??_C@_0CI@MDMADEMF@DIERR_MAPFILEFAIL?5?$CG?5VFW_E_RUNTIM@ 00495c2c     dxerr8:dxerr8.obj
 0002:00005c54       ??_C@_0CG@OJDPHGDL@DIERR_REPORTFULL?5?$CG?5VFW_E_NO_ALLO@ 00495c54     dxerr8:dxerr8.obj
 0002:00005c7c       ??_C@_0CG@OGPLADKL@DIERR_UNPLUGGED?5?$CG?5VFW_E_NOT_CONN@ 00495c7c     dxerr8:dxerr8.obj
 0002:00005ca4       ??_C@_0CO@CGAIBIEI@DIERR_EFFECTPLAYING?5?$CG?5VFW_E_INVA@ 00495ca4     dxerr8:dxerr8.obj
 0002:00005cd4       ??_C@_0CO@OJPNBAHC@DIERR_NOTBUFFERED?5?$CG?5VFW_E_NO_ACC@ 00495cd4     dxerr8:dxerr8.obj
 0002:00005d08       ??_C@_0EA@CCGBKIAC@DIERR_HASEFFECTS?5?$CG?5VFW_E_ALREADY@ 00495d08     dxerr8:dxerr8.obj
 0002:00005d48       ??_C@_0EL@FLOGNCHB@DIERR_NOTEXCLUSIVEACQUIRED?5?$CG?5VFW@ 00495d48     dxerr8:dxerr8.obj
 0002:00005d94       ??_C@_0DO@OLFCDAHH@DIERR_INCOMPLETEEFFECT?5?$CG?5VFW_E_N@ 00495d94     dxerr8:dxerr8.obj
 0002:00005dd8       ??_C@_0EC@LCKJKBC@DIERR_NOTDOWNLOADED?5?$CG?5VFW_E_ENUM@ 00495dd8     dxerr8:dxerr8.obj
 0002:00005e1c       ??_C@_0BI@LGCIFNPE@CO_E_ALREADYINITIALIZED?$AA@ 00495e1c     dxerr8:dxerr8.obj
 0002:00005e34       ??_C@_0DB@JHHNFLGF@DIERR_INSUFFICIENTPRIVS?5?$CG?5VFW_E_@ 00495e34     dxerr8:dxerr8.obj
 0002:00005e68       ??_C@_0ED@EKCFBKHI@DIERR_DEVICEFULL?5?$CG?5VFW_E_INVALID@ 00495e68     dxerr8:dxerr8.obj
 0002:00005eac       ??_C@_0DG@FHAKOIEJ@DIERR_MOREDATA?5?$CG?5VFW_E_NEED_OWNE@ 00495eac     dxerr8:dxerr8.obj
 0002:00005ee4       ??_C@_0BE@MLLGNOMG@CO_E_NOTINITIALIZED?$AA@ 00495ee4     dxerr8:dxerr8.obj
 0002:00005ef8       ??_C@_06FOOEOEIK@E_FAIL?$AA@ 00495ef8     dxerr8:dxerr8.obj
 0002:00005f00       ??_C@_0N@EAKCLLNI@E_UNEXPECTED?$AA@ 00495f00     dxerr8:dxerr8.obj
 0002:00005f10       ??_C@_0BG@MIEMJEDC@CLASS_E_NOAGGREGATION?$AA@ 00495f10     dxerr8:dxerr8.obj
 0002:00005f28       ??_C@_0BE@IEPPEKPI@REGDB_E_CLASSNOTREG?$AA@ 00495f28     dxerr8:dxerr8.obj
 0002:00005f3c       ??_C@_07LKJCINEE@E_ABORT?$AA@ 00495f3c     dxerr8:dxerr8.obj
 0002:00005f44       ??_C@_09DBBJIHPI@E_PENDING?$AA@ 00495f44     dxerr8:dxerr8.obj
 0002:00005f50       ??_C@_09NMKLNOAF@E_NOTIMPL?$AA@ 00495f50     dxerr8:dxerr8.obj
 0002:00005f5c       ??_C@_0O@KAGJJEKO@E_NOINTERFACE?$AA@ 00495f5c     dxerr8:dxerr8.obj
 0002:00005f6c       ??_C@_09FLEPHGBI@E_POINTER?$AA@ 00495f6c     dxerr8:dxerr8.obj
 0002:00005f78       ??_C@_1CG@EEMIGJEA@?$AAD?$AAM?$AAU?$AAS?$AA_?$AAS?$AA_?$AAD?$AAO?$AAW?$AAN?$AA_?$AAO?$AAC?$AAT?$AAA?$AAV?$AAE?$AA?$AA@ 00495f78     dxerr8:dxerr8.obj
 0002:00005fa0       ??_C@_1CO@BDCKFJIP@?$AAD?$AAM?$AAU?$AAS?$AA_?$AAS?$AA_?$AAN?$AAO?$AAB?$AAU?$AAF?$AAF?$AAE?$AAR?$AAC?$AAO?$AAN?$AAT?$AAR@ 00495fa0     dxerr8:dxerr8.obj
 0002:00005fd0       ??_C@_1DC@GBDPNAGC@?$AAD?$AAM?$AAU?$AAS?$AA_?$AAS?$AA_?$AAG?$AAA?$AAR?$AAB?$AAA?$AAG?$AAE?$AA_?$AAC?$AAO?$AAL?$AAL?$AAE@ 00495fd0     dxerr8:dxerr8.obj
 0002:00006004       ??_C@_1BA@LEPJIIOK@?$AAU?$AAn?$AAk?$AAn?$AAo?$AAw?$AAn?$AA?$AA@ 00496004     dxerr8:dxerr8.obj
 0002:00006014       ??_C@_1CC@HPIKPLCL@?$AAD?$AAM?$AAU?$AAS?$AA_?$AAS?$AA_?$AAU?$AAP?$AA_?$AAO?$AAC?$AAT?$AAA?$AAV?$AAE?$AA?$AA@ 00496014     dxerr8:dxerr8.obj
 0002:00006038       ??_C@_1BG@OBOJCLMH@?$AAD?$AAM?$AAU?$AAS?$AA_?$AAS?$AA_?$AAE?$AAN?$AAD?$AA?$AA@ 00496038     dxerr8:dxerr8.obj
 0002:00006050       ??_C@_1DA@IOHEMNIN@?$AAD?$AAM?$AAU?$AAS?$AA_?$AAS?$AA_?$AAS?$AAT?$AAR?$AAI?$AAN?$AAG?$AA_?$AAT?$AAR?$AAU?$AAN?$AAC?$AAA@ 00496050     dxerr8:dxerr8.obj
 0002:00006080       ??_C@_1CC@GNOACNNM@?$AAD?$AAM?$AAU?$AAS?$AA_?$AAS?$AA_?$AAL?$AAA?$AAS?$AAT?$AA_?$AAT?$AAO?$AAO?$AAL?$AA?$AA@ 00496080     dxerr8:dxerr8.obj
 0002:000060a4       ??_C@_1CE@JEBACBIC@?$AAD?$AAM?$AAU?$AAS?$AA_?$AAS?$AA_?$AAO?$AAV?$AAE?$AAR?$AA_?$AAC?$AAH?$AAO?$AAR?$AAD?$AA?$AA@ 004960a4     dxerr8:dxerr8.obj
 0002:000060c8       ??_C@_1BI@IPLCLNON@?$AAD?$AAM?$AAU?$AAS?$AA_?$AAS?$AA_?$AAF?$AAR?$AAE?$AAE?$AA?$AA@ 004960c8     dxerr8:dxerr8.obj
 0002:000060e0       ??_C@_1CG@FJOKGMJ@?$AAD?$AAM?$AAU?$AAS?$AA_?$AAS?$AA_?$AAP?$AAA?$AAR?$AAT?$AAI?$AAA?$AAL?$AAL?$AAO?$AAA?$AAD?$AA?$AA@ 004960e0     dxerr8:dxerr8.obj
 0002:00006108       ??_C@_1CO@GJEBFCHA@?$AAD?$AAM?$AAU?$AAS?$AA_?$AAS?$AA_?$AAP?$AAA?$AAR?$AAT?$AAI?$AAA?$AAL?$AAD?$AAO?$AAW?$AAN?$AAL?$AAO@ 00496108     dxerr8:dxerr8.obj
 0002:00006138       ??_C@_1BO@JHLCFAEJ@?$AAD?$AAM?$AAU?$AAS?$AA_?$AAS?$AA_?$AAR?$AAE?$AAQ?$AAU?$AAE?$AAU?$AAE?$AA?$AA@ 00496138     dxerr8:dxerr8.obj
 0002:00006158       ??_C@_1BM@JOPGMGJL@?$AAD?$AAS?$AA_?$AAI?$AAN?$AAC?$AAO?$AAM?$AAP?$AAL?$AAE?$AAT?$AAE?$AA?$AA@ 00496158     dxerr8:dxerr8.obj
 0002:00006174       ??_C@_1BM@PMDHGCDE@?$AAD?$AAV?$AA_?$AAF?$AAU?$AAL?$AAL?$AAD?$AAU?$AAP?$AAL?$AAE?$AAX?$AA?$AA@ 00496174     dxerr8:dxerr8.obj
 0002:00006190       ??_C@_1BM@GNBNOEOE@?$AAD?$AAV?$AA_?$AAH?$AAA?$AAL?$AAF?$AAD?$AAU?$AAP?$AAL?$AAE?$AAX?$AA?$AA@ 00496190     dxerr8:dxerr8.obj
 0002:000061ac       ??_C@_1BG@LEHGKALM@?$AAD?$AAV?$AA_?$AAP?$AAE?$AAN?$AAD?$AAI?$AAN?$AAG?$AA?$AA@ 004961ac     dxerr8:dxerr8.obj
 0002:000061c4       ??_C@_1CK@DOHBEOJH@?$AAD?$AAS?$AA_?$AAN?$AAO?$AA_?$AAV?$AAI?$AAR?$AAT?$AAU?$AAA?$AAL?$AAI?$AAZ?$AAA?$AAT?$AAI?$AAO?$AAN@ 004961c4     dxerr8:dxerr8.obj
 0002:000061f0       ??_C@_1CO@CMDPLMMJ@?$AAV?$AAF?$AAW?$AA_?$AAS?$AA_?$AAD?$AAV?$AAD?$AA_?$AAN?$AAO?$AAT?$AA_?$AAA?$AAC?$AAC?$AAU?$AAR?$AAA@ 004961f0     dxerr8:dxerr8.obj
 0002:00006220       ??_C@_1CG@OMACGLKP@?$AAV?$AAF?$AAW?$AA_?$AAS?$AA_?$AAN?$AAO?$AAP?$AAR?$AAE?$AAV?$AAI?$AAE?$AAW?$AAP?$AAI?$AAN?$AA?$AA@ 00496220     dxerr8:dxerr8.obj
 0002:00006248       ??_C@_1DK@KNNKOGGD@?$AAV?$AAF?$AAW?$AA_?$AAS?$AA_?$AAD?$AAV?$AAD?$AA_?$AAN?$AAO?$AAN?$AA_?$AAO?$AAN?$AAE?$AA_?$AAS?$AAE@ 00496248     dxerr8:dxerr8.obj
 0002:00006288       ??_C@_1FC@PMFAKGHB@?$AAV?$AAF?$AAW?$AA_?$AAS?$AA_?$AAD?$AAV?$AAD?$AA_?$AAC?$AAH?$AAA?$AAN?$AAN?$AAE?$AAL?$AA_?$AAC?$AAO@ 00496288     dxerr8:dxerr8.obj
 0002:000062dc       ??_C@_1CG@EFMKAALF@?$AAV?$AAF?$AAW?$AA_?$AAS?$AA_?$AAN?$AAO?$AA_?$AAS?$AAT?$AAO?$AAP?$AA_?$AAT?$AAI?$AAM?$AAE?$AA?$AA@ 004962dc     dxerr8:dxerr8.obj
 0002:00006304       ??_C@_1CA@KPKCPIHF@?$AAV?$AAF?$AAW?$AA_?$AAS?$AA_?$AAE?$AAS?$AAT?$AAI?$AAM?$AAA?$AAT?$AAE?$AAD?$AA?$AA@ 00496304     dxerr8:dxerr8.obj
 0002:00006324       ??_C@_1BO@NKOCMEOH@?$AAV?$AAF?$AAW?$AA_?$AAS?$AA_?$AAR?$AAE?$AAS?$AAE?$AAR?$AAV?$AAE?$AAD?$AA?$AA@ 00496324     dxerr8:dxerr8.obj
 0002:00006344       ??_C@_1CC@MHFKBMFJ@?$AAV?$AAF?$AAW?$AA_?$AAS?$AA_?$AAS?$AAT?$AAR?$AAE?$AAA?$AAM?$AA_?$AAO?$AAF?$AAF?$AA?$AA@ 00496344     dxerr8:dxerr8.obj
 0002:00006368       ??_C@_1BO@PDBIFODM@?$AAV?$AAF?$AAW?$AA_?$AAS?$AA_?$AAC?$AAA?$AAN?$AAT?$AA_?$AAC?$AAU?$AAE?$AA?$AA@ 00496368     dxerr8:dxerr8.obj
 0002:00006388       ??_C@_1BG@LHAJFDNJ@?$AAV?$AAF?$AAW?$AA_?$AAS?$AA_?$AAR?$AAP?$AAZ?$AAA?$AA?$AA@ 00496388     dxerr8:dxerr8.obj
 0002:000063a0       ??_C@_1DE@BKCLAOO@?$AAV?$AAF?$AAW?$AA_?$AAS?$AA_?$AAR?$AAE?$AAS?$AAO?$AAU?$AAR?$AAC?$AAE?$AA_?$AAN?$AAO?$AAT?$AA_?$AAN@ 004963a0     dxerr8:dxerr8.obj
 0002:000063d4       ??_C@_1DC@FLJKBDGG@?$AAV?$AAF?$AAW?$AA_?$AAS?$AA_?$AAM?$AAE?$AAD?$AAI?$AAA?$AA_?$AAT?$AAY?$AAP?$AAE?$AA_?$AAI?$AAG?$AAN@ 004963d4     dxerr8:dxerr8.obj
 0002:00006408       ??_C@_1DC@LGCEJKBK@?$AAV?$AAF?$AAW?$AA_?$AAS?$AA_?$AAV?$AAI?$AAD?$AAE?$AAO?$AA_?$AAN?$AAO?$AAT?$AA_?$AAR?$AAE?$AAN?$AAD@ 00496408     dxerr8:dxerr8.obj
 0002:0000643c       ??_C@_1DC@COOBDBMA@?$AAV?$AAF?$AAW?$AA_?$AAS?$AA_?$AAA?$AAU?$AAD?$AAI?$AAO?$AA_?$AAN?$AAO?$AAT?$AA_?$AAR?$AAE?$AAN?$AAD@ 0049643c     dxerr8:dxerr8.obj
 0002:00006470       ??_C@_1DG@KCBPMPHO@?$AAV?$AAF?$AAW?$AA_?$AAS?$AA_?$AAC?$AAO?$AAN?$AAN?$AAE?$AAC?$AAT?$AAI?$AAO?$AAN?$AAS?$AA_?$AAD?$AAE@ 00496470     dxerr8:dxerr8.obj
 0002:000064a8       ??_C@_1CK@CCHPPLGC@?$AAV?$AAF?$AAW?$AA_?$AAS?$AA_?$AAD?$AAU?$AAP?$AAL?$AAI?$AAC?$AAA?$AAT?$AAE?$AA_?$AAN?$AAA?$AAM?$AAE@ 004964a8     dxerr8:dxerr8.obj
 0002:000064d4       ??_C@_1DC@MECLCNK@?$AAV?$AAF?$AAW?$AA_?$AAS?$AA_?$AAS?$AAT?$AAA?$AAT?$AAE?$AA_?$AAI?$AAN?$AAT?$AAE?$AAR?$AAM?$AAE?$AAD@ 004964d4     dxerr8:dxerr8.obj
 0002:00006508       ??_C@_1CK@OJCHIEMM@?$AAV?$AAF?$AAW?$AA_?$AAS?$AA_?$AAP?$AAA?$AAR?$AAT?$AAI?$AAA?$AAL?$AA_?$AAR?$AAE?$AAN?$AAD?$AAE?$AAR@ 00496508     dxerr8:dxerr8.obj
 0002:00006534       ??_C@_1DA@JHMMDOHD@?$AAV?$AAF?$AAW?$AA_?$AAS?$AA_?$AAS?$AAO?$AAM?$AAE?$AA_?$AAD?$AAA?$AAT?$AAA?$AA_?$AAI?$AAG?$AAN?$AAO@ 00496534     dxerr8:dxerr8.obj
 0002:00006564       ??_C@_1CI@MONMLGAO@?$AAV?$AAF?$AAW?$AA_?$AAS?$AA_?$AAN?$AAO?$AA_?$AAM?$AAO?$AAR?$AAE?$AA_?$AAI?$AAT?$AAE?$AAM?$AAS?$AA?$AA@ 00496564     dxerr8:dxerr8.obj
 0002:0000658c       ??_C@_1CI@HLCOLGPP@?$AAE?$AAR?$AAR?$AAO?$AAR?$AA_?$AAI?$AAN?$AAV?$AAA?$AAL?$AAI?$AAD?$AA_?$AAB?$AAL?$AAO?$AAC?$AAK?$AA?$AA@ 0049658c     dxerr8:dxerr8.obj
 0002:000065b4       ??_C@_1CM@OLHDPCCJ@?$AAE?$AAR?$AAR?$AAO?$AAR?$AA_?$AAB?$AAA?$AAD?$AA_?$AAE?$AAN?$AAV?$AAI?$AAR?$AAO?$AAN?$AAM?$AAE?$AAN@ 004965b4     dxerr8:dxerr8.obj
 0002:000065e0       ??_C@_1CC@EMPILMKG@?$AAE?$AAR?$AAR?$AAO?$AAR?$AA_?$AAB?$AAA?$AAD?$AA_?$AAF?$AAO?$AAR?$AAM?$AAA?$AAT?$AA?$AA@ 004965e0     dxerr8:dxerr8.obj
 0002:00006604       ??_C@_1CE@NHKPDAFD@?$AAE?$AAR?$AAR?$AAO?$AAR?$AA_?$AAO?$AAU?$AAT?$AAO?$AAF?$AAM?$AAE?$AAM?$AAO?$AAR?$AAY?$AA?$AA@ 00496604     dxerr8:dxerr8.obj
 0002:00006628       ??_C@_1DA@BGKJMAME@?$AAE?$AAR?$AAR?$AAO?$AAR?$AA_?$AAN?$AAO?$AAT?$AA_?$AAE?$AAN?$AAO?$AAU?$AAG?$AAH?$AA_?$AAM?$AAE?$AAM@ 00496628     dxerr8:dxerr8.obj
 0002:00006658       ??_C@_1CK@JJMPIDMB@?$AAE?$AAR?$AAR?$AAO?$AAR?$AA_?$AAP?$AAA?$AAT?$AAH?$AA_?$AAN?$AAO?$AAT?$AA_?$AAF?$AAO?$AAU?$AAN?$AAD@ 00496658     dxerr8:dxerr8.obj
 0002:00006684       ??_C@_1DE@IDFDKEHA@?$AAE?$AAR?$AAR?$AAO?$AAR?$AA_?$AAT?$AAO?$AAO?$AA_?$AAM?$AAA?$AAN?$AAY?$AA_?$AAO?$AAP?$AAE?$AAN?$AA_@ 00496684     dxerr8:dxerr8.obj
 0002:000066b8       ??_C@_1CI@CIPJMHOI@?$AAE?$AAR?$AAR?$AAO?$AAR?$AA_?$AAA?$AAC?$AAC?$AAE?$AAS?$AAS?$AA_?$AAD?$AAE?$AAN?$AAI?$AAE?$AAD?$AA?$AA@ 004966b8     dxerr8:dxerr8.obj
 0002:000066e0       ??_C@_1CK@KJHGLBAA@?$AAE?$AAR?$AAR?$AAO?$AAR?$AA_?$AAI?$AAN?$AAV?$AAA?$AAL?$AAI?$AAD?$AA_?$AAH?$AAA?$AAN?$AAD?$AAL?$AAE@ 004966e0     dxerr8:dxerr8.obj
 0002:0000670c       ??_C@_1CK@KIJLKMBJ@?$AAE?$AAR?$AAR?$AAO?$AAR?$AA_?$AAF?$AAI?$AAL?$AAE?$AA_?$AAN?$AAO?$AAT?$AA_?$AAF?$AAO?$AAU?$AAN?$AAD@ 0049670c     dxerr8:dxerr8.obj
 0002:00006738       ??_C@_1BA@HFIOMMCN@?$AAS?$AA_?$AAF?$AAA?$AAL?$AAS?$AAE?$AA?$AA@ 00496738     dxerr8:dxerr8.obj
 0002:00006748       ??_C@_19HAELCMCN@?$AAS?$AA_?$AAO?$AAK?$AA?$AA@ 00496748     dxerr8:dxerr8.obj
 0002:00006758       ??_C@_1EA@LOGAIFNK@?$AAD?$AAM?$AAU?$AAS?$AA_?$AAE?$AA_?$AAI?$AAN?$AAV?$AAA?$AAL?$AAI?$AAD?$AA_?$AAC?$AAO?$AAN?$AAT?$AAA@ 00496758     dxerr8:dxerr8.obj
 0002:00006798       ??_C@_1EE@CGALEODD@?$AAD?$AAM?$AAU?$AAS?$AA_?$AAE?$AA_?$AAA?$AAU?$AAD?$AAI?$AAO?$AAP?$AAA?$AAT?$AAH?$AA_?$AAN?$AAO?$AAG@ 00496798     dxerr8:dxerr8.obj
 0002:000067dc       ??_C@_1CI@JBDKINML@?$AAD?$AAM?$AAU?$AAS?$AA_?$AAE?$AA_?$AAI?$AAN?$AAV?$AAA?$AAL?$AAI?$AAD?$AAC?$AAH?$AAU?$AAN?$AAK?$AA?$AA@ 004967dc     dxerr8:dxerr8.obj
 0002:00006804       ??_C@_1CI@HHNNJKKC@?$AAD?$AAM?$AAU?$AAS?$AA_?$AAE?$AA_?$AAN?$AAO?$AA_?$AAA?$AAU?$AAD?$AAI?$AAO?$AAP?$AAA?$AAT?$AAH?$AA?$AA@ 00496804     dxerr8:dxerr8.obj
 0002:0000682c       ??_C@_1DA@GFBDOCEI@?$AAD?$AAM?$AAU?$AAS?$AA_?$AAE?$AA_?$AAA?$AAU?$AAD?$AAI?$AAO?$AAP?$AAA?$AAT?$AAH?$AA_?$AAN?$AAO?$AAP@ 0049682c     dxerr8:dxerr8.obj
 0002:0000685c       ??_C@_1DE@OHEIBGDH@?$AAD?$AAM?$AAU?$AAS?$AA_?$AAE?$AA_?$AAA?$AAU?$AAD?$AAI?$AAO?$AAP?$AAA?$AAT?$AAH?$AA_?$AAN?$AAO?$AAB@ 0049685c     dxerr8:dxerr8.obj
 0002:00006890       ??_C@_1DE@IFLNLMGP@?$AAD?$AAM?$AAU?$AAS?$AA_?$AAE?$AA_?$AAA?$AAU?$AAD?$AAI?$AAO?$AAP?$AAA?$AAT?$AAH?$AA_?$AAI?$AAN?$AAA@ 00496890     dxerr8:dxerr8.obj
 0002:000068c4       ??_C@_1DG@OMMIFHKC@?$AAD?$AAM?$AAU?$AAS?$AA_?$AAE?$AA_?$AAN?$AAO?$AA_?$AAA?$AAU?$AAD?$AAI?$AAO?$AAP?$AAA?$AAT?$AAH?$AA_@ 004968c4     dxerr8:dxerr8.obj
 0002:000068fc       ??_C@_1DC@KDFNJAFN@?$AAD?$AAM?$AAU?$AAS?$AA_?$AAE?$AA_?$AAA?$AAU?$AAD?$AAI?$AAO?$AAP?$AAA?$AAT?$AAH?$AAS?$AA_?$AAI?$AAN@ 004968fc     dxerr8:dxerr8.obj
 0002:00006930       ??_C@_1DI@NGOOHNCN@?$AAD?$AAM?$AAU?$AAS?$AA_?$AAE?$AA_?$AAA?$AAU?$AAD?$AAI?$AAO?$AAP?$AAA?$AAT?$AAH?$AAS?$AA_?$AAN?$AAO@ 00496930     dxerr8:dxerr8.obj
 0002:00006968       ??_C@_1EM@PPEEEPLK@?$AAD?$AAM?$AAU?$AAS?$AA_?$AAE?$AA_?$AAA?$AAU?$AAD?$AAI?$AAO?$AAV?$AAB?$AAS?$AAC?$AAR?$AAI?$AAP?$AAT@ 00496968     dxerr8:dxerr8.obj
 0002:000069b8       ??_C@_1EE@CJCAGCI@?$AAD?$AAM?$AAU?$AAS?$AA_?$AAE?$AA_?$AAA?$AAU?$AAD?$AAI?$AAO?$AAV?$AAB?$AAS?$AAC?$AAR?$AAI?$AAP?$AAT@ 004969b8     dxerr8:dxerr8.obj
 0002:00006a00       ??_C@_1EC@DPEJJFPA@?$AAD?$AAM?$AAU?$AAS?$AA_?$AAE?$AA_?$AAA?$AAU?$AAD?$AAI?$AAO?$AAV?$AAB?$AAS?$AAC?$AAR?$AAI?$AAP?$AAT@ 00496a00     dxerr8:dxerr8.obj
 0002:00006a48       ??_C@_1EC@LDKMFKIH@?$AAD?$AAM?$AAU?$AAS?$AA_?$AAE?$AA_?$AAI?$AAN?$AAV?$AAA?$AAL?$AAI?$AAD?$AA_?$AAP?$AAA?$AAR?$AAA?$AAM@ 00496a48     dxerr8:dxerr8.obj
 0002:00006a8c       ??_C@_1DG@BNLCFOKL@?$AAD?$AAM?$AAU?$AAS?$AA_?$AAE?$AA_?$AAI?$AAN?$AAV?$AAA?$AAL?$AAI?$AAD?$AA_?$AAL?$AAY?$AAR?$AAI?$AAC@ 00496a8c     dxerr8:dxerr8.obj
 0002:00006ac8       ??_C@_1EG@EAJKEIME@?$AAD?$AAM?$AAU?$AAS?$AA_?$AAE?$AA_?$AAI?$AAN?$AAV?$AAA?$AAL?$AAI?$AAD?$AA_?$AAS?$AAE?$AAG?$AAM?$AAE@ 00496ac8     dxerr8:dxerr8.obj
 0002:00006b10       ??_C@_1EE@BKLCCHDC@?$AAD?$AAM?$AAU?$AAS?$AA_?$AAE?$AA_?$AAS?$AAC?$AAR?$AAI?$AAP?$AAT?$AA_?$AAV?$AAA?$AAL?$AAU?$AAE?$AA_@ 00496b10     dxerr8:dxerr8.obj
 0002:00006b54       ??_C@_1DM@IDEMOHBF@?$AAD?$AAM?$AAU?$AAS?$AA_?$AAE?$AA_?$AAS?$AAC?$AAR?$AAI?$AAP?$AAT?$AA_?$AAN?$AAO?$AAT?$AA_?$AAA?$AA_@ 00496b54     dxerr8:dxerr8.obj
 0002:00006b90       ??_C@_1DO@CPFBOPNG@?$AAD?$AAM?$AAU?$AAS?$AA_?$AAE?$AA_?$AAS?$AAC?$AAR?$AAI?$AAP?$AAT?$AA_?$AAC?$AAO?$AAN?$AAT?$AAE?$AAN@ 00496b90     dxerr8:dxerr8.obj
 0002:00006bd0       ??_C@_1EA@NODJGBMC@?$AAD?$AAM?$AAU?$AAS?$AA_?$AAE?$AA_?$AAS?$AAC?$AAR?$AAI?$AAP?$AAT?$AA_?$AAR?$AAO?$AAU?$AAT?$AAI?$AAN@ 00496bd0     dxerr8:dxerr8.obj
 0002:00006c10       ??_C@_1EC@PGLGENMG@?$AAD?$AAM?$AAU?$AAS?$AA_?$AAE?$AA_?$AAS?$AAC?$AAR?$AAI?$AAP?$AAT?$AA_?$AAV?$AAA?$AAR?$AAI?$AAA?$AAB@ 00496c10     dxerr8:dxerr8.obj
 0002:00006c54       ??_C@_1DG@BFAKKPDC@?$AAD?$AAM?$AAU?$AAS?$AA_?$AAE?$AA_?$AAI?$AAN?$AAV?$AAA?$AAL?$AAI?$AAD?$AA_?$AAS?$AAC?$AAR?$AAI?$AAP@ 00496c54     dxerr8:dxerr8.obj
 0002:00006c8c       ??_C@_1DG@PPOLECFO@?$AAD?$AAM?$AAU?$AAS?$AA_?$AAE?$AA_?$AAS?$AAC?$AAR?$AAI?$AAP?$AAT?$AA_?$AAI?$AAN?$AAV?$AAA?$AAL?$AAI@ 00496c8c     dxerr8:dxerr8.obj
 0002:00006cc4       ??_C@_1DO@NDMGKGKP@?$AAD?$AAM?$AAU?$AAS?$AA_?$AAE?$AA_?$AAS?$AAC?$AAR?$AAI?$AAP?$AAT?$AA_?$AAL?$AAO?$AAA?$AAD?$AAS?$AAC@ 00496cc4     dxerr8:dxerr8.obj
 0002:00006d08       ??_C@_1EA@MMMHNCMG@?$AAD?$AAM?$AAU?$AAS?$AA_?$AAE?$AA_?$AAS?$AAC?$AAR?$AAI?$AAP?$AAT?$AA_?$AAC?$AAA?$AAN?$AAT?$AAL?$AAO@ 00496d08     dxerr8:dxerr8.obj
 0002:00006d48       ??_C@_1DM@BLAHGDIL@?$AAD?$AAM?$AAU?$AAS?$AA_?$AAE?$AA_?$AAS?$AAC?$AAR?$AAI?$AAP?$AAT?$AA_?$AAE?$AAR?$AAR?$AAO?$AAR?$AA_@ 00496d48     dxerr8:dxerr8.obj
 0002:00006d88       ??_C@_1EE@BFLILJBE@?$AAD?$AAM?$AAU?$AAS?$AA_?$AAE?$AA_?$AAS?$AAC?$AAR?$AAI?$AAP?$AAT?$AA_?$AAU?$AAN?$AAS?$AAU?$AAP?$AAP@ 00496d88     dxerr8:dxerr8.obj
 0002:00006dd0       ??_C@_1EI@CAPJPJMC@?$AAD?$AAM?$AAU?$AAS?$AA_?$AAE?$AA_?$AAS?$AAC?$AAR?$AAI?$AAP?$AAT?$AA_?$AAL?$AAA?$AAN?$AAG?$AAU?$AAA@ 00496dd0     dxerr8:dxerr8.obj
 0002:00006e18       ??_C@_1CE@GGAAHMHD@?$AAD?$AAM?$AAU?$AAS?$AA_?$AAE?$AA_?$AAN?$AAO?$AAT?$AA_?$AAL?$AAO?$AAA?$AAD?$AAE?$AAD?$AA?$AA@ 00496e18     dxerr8:dxerr8.obj
 0002:00006e3c       ??_C@_1DE@LALNGPOE@?$AAD?$AAM?$AAU?$AAS?$AA_?$AAE?$AA_?$AAD?$AAE?$AAS?$AAC?$AAE?$AAN?$AAD?$AA_?$AAC?$AAH?$AAU?$AAN?$AAK@ 00496e3c     dxerr8:dxerr8.obj
 0002:00006e70       ??_C@_1CM@DPHJAMHD@?$AAD?$AAM?$AAU?$AAS?$AA_?$AAE?$AA_?$AAC?$AAA?$AAN?$AAN?$AAO?$AAT?$AA_?$AAC?$AAO?$AAN?$AAV?$AAE?$AAR@ 00496e70     dxerr8:dxerr8.obj
 0002:00006e9c       ??_C@_1DA@PKPDBMDM@?$AAD?$AAM?$AAU?$AAS?$AA_?$AAE?$AA_?$AAC?$AAA?$AAN?$AAN?$AAO?$AAT?$AA_?$AAO?$AAP?$AAE?$AAN?$AA_?$AAP@ 00496e9c     dxerr8:dxerr8.obj
 0002:00006ecc       ??_C@_1CG@CKGJDFLC@?$AAD?$AAM?$AAU?$AAS?$AA_?$AAE?$AA_?$AAC?$AAA?$AAN?$AAN?$AAO?$AAT?$AA_?$AAF?$AAR?$AAE?$AAE?$AA?$AA@ 00496ecc     dxerr8:dxerr8.obj
 0002:00006ef4       ??_C@_1CI@IGFAHJCE@?$AAD?$AAM?$AAU?$AAS?$AA_?$AAE?$AA_?$AAA?$AAL?$AAR?$AAE?$AAA?$AAD?$AAY?$AA_?$AAS?$AAE?$AAN?$AAT?$AA?$AA@ 00496ef4     dxerr8:dxerr8.obj
 0002:00006f1c       ??_C@_1DC@MCCDKKNA@?$AAD?$AAM?$AAU?$AAS?$AA_?$AAE?$AA_?$AAL?$AAO?$AAA?$AAD?$AAE?$AAR?$AA_?$AAN?$AAO?$AAF?$AAI?$AAL?$AAE@ 00496f1c     dxerr8:dxerr8.obj
 0002:00006f50       ??_C@_1CG@PFHDMJDO@?$AAD?$AAM?$AAU?$AAS?$AA_?$AAE?$AA_?$AAI?$AAN?$AAV?$AAA?$AAL?$AAI?$AAD?$AAF?$AAI?$AAL?$AAE?$AA?$AA@ 00496f50     dxerr8:dxerr8.obj
 0002:00006f78       ??_C@_1CM@GAGJHDPC@?$AAD?$AAM?$AAU?$AAS?$AA_?$AAE?$AA_?$AAA?$AAL?$AAR?$AAE?$AAA?$AAD?$AAY?$AA_?$AAE?$AAX?$AAI?$AAS?$AAT@ 00496f78     dxerr8:dxerr8.obj
 0002:00006fa4       ??_C@_1CI@EMLNKPBF@?$AAD?$AAM?$AAU?$AAS?$AA_?$AAE?$AA_?$AAO?$AAU?$AAT?$AA_?$AAO?$AAF?$AA_?$AAR?$AAA?$AAN?$AAG?$AAE?$AA?$AA@ 00496fa4     dxerr8:dxerr8.obj
 0002:00006fcc       ??_C@_1DG@JPNAKFIL@?$AAD?$AAM?$AAU?$AAS?$AA_?$AAE?$AA_?$AAS?$AAE?$AAG?$AAM?$AAE?$AAN?$AAT?$AA_?$AAI?$AAN?$AAI?$AAT?$AA_@ 00496fcc     dxerr8:dxerr8.obj
 0002:00007004       ??_C@_1DK@JAKAEHLI@?$AAD?$AAM?$AAU?$AAS?$AA_?$AAE?$AA_?$AAL?$AAO?$AAA?$AAD?$AAE?$AAR?$AA_?$AAO?$AAB?$AAJ?$AAE?$AAC?$AAT@ 00497004     dxerr8:dxerr8.obj
 0002:00007040       ??_C@_1DA@DAMMPMHB@?$AAD?$AAM?$AAU?$AAS?$AA_?$AAE?$AA_?$AAL?$AAO?$AAA?$AAD?$AAE?$AAR?$AA_?$AAN?$AAO?$AAC?$AAL?$AAA?$AAS@ 00497040     dxerr8:dxerr8.obj
 0002:00007070       ??_C@_1CM@OFNENAGF@?$AAD?$AAM?$AAU?$AAS?$AA_?$AAE?$AA_?$AAL?$AAO?$AAA?$AAD?$AAE?$AAR?$AA_?$AAB?$AAA?$AAD?$AAP?$AAA?$AAT@ 00497070     dxerr8:dxerr8.obj
 0002:0000709c       ??_C@_1DC@LPMMFCAB@?$AAD?$AAM?$AAU?$AAS?$AA_?$AAE?$AA_?$AAL?$AAO?$AAA?$AAD?$AAE?$AAR?$AA_?$AAF?$AAA?$AAI?$AAL?$AAE?$AAD@ 0049709c     dxerr8:dxerr8.obj
 0002:000070d0       ??_C@_1EC@JMCKODPA@?$AAD?$AAM?$AAU?$AAS?$AA_?$AAE?$AA_?$AAL?$AAO?$AAA?$AAD?$AAE?$AAR?$AA_?$AAF?$AAO?$AAR?$AAM?$AAA?$AAT@ 004970d0     dxerr8:dxerr8.obj
 0002:00007114       ??_C@_1DG@MPCOFEBE@?$AAD?$AAM?$AAU?$AAS?$AA_?$AAE?$AA_?$AAL?$AAO?$AAA?$AAD?$AAE?$AAR?$AA_?$AAF?$AAA?$AAI?$AAL?$AAE?$AAD@ 00497114     dxerr8:dxerr8.obj
 0002:0000714c       ??_C@_1CO@MFIIEJPK@?$AAD?$AAM?$AAU?$AAS?$AA_?$AAE?$AA_?$AAN?$AAO?$AA_?$AAM?$AAA?$AAS?$AAT?$AAE?$AAR?$AA_?$AAC?$AAL?$AAO@ 0049714c     dxerr8:dxerr8.obj
 0002:00007180       ??_C@_1EE@HIJIHCJO@?$AAD?$AAM?$AAU?$AAS?$AA_?$AAE?$AA_?$AAT?$AAR?$AAA?$AAC?$AAK?$AA_?$AAN?$AAO?$AA_?$AAC?$AAL?$AAO?$AAC@ 00497180     dxerr8:dxerr8.obj
 0002:000071c4       ??_C@_1CO@JNMDJELL@?$AAD?$AAM?$AAU?$AAS?$AA_?$AAE?$AA_?$AAT?$AAR?$AAA?$AAC?$AAK?$AA_?$AAN?$AAO?$AAT?$AA_?$AAF?$AAO?$AAU@ 004971c4     dxerr8:dxerr8.obj
 0002:000071f4       ??_C@_1CC@IDKMJNN@?$AAD?$AAM?$AAU?$AAS?$AA_?$AAE?$AA_?$AAT?$AAI?$AAM?$AAE?$AA_?$AAP?$AAA?$AAS?$AAT?$AA?$AA@ 004971f4     dxerr8:dxerr8.obj
 0002:00007218       ??_C@_1DA@ECNHHMP@?$AAD?$AAM?$AAU?$AAS?$AA_?$AAE?$AA_?$AAT?$AAY?$AAP?$AAE?$AA_?$AAU?$AAN?$AAS?$AAU?$AAP?$AAP?$AAO?$AAR@ 00497218     dxerr8:dxerr8.obj
 0002:00007248       ??_C@_1CK@NDCGOPCL@?$AAD?$AAM?$AAU?$AAS?$AA_?$AAE?$AA_?$AAT?$AAY?$AAP?$AAE?$AA_?$AAD?$AAI?$AAS?$AAA?$AAB?$AAL?$AAE?$AAD@ 00497248     dxerr8:dxerr8.obj
 0002:00007274       ??_C@_1CA@DBOLKOIE@?$AAD?$AAM?$AAU?$AAS?$AA_?$AAE?$AA_?$AAN?$AAO?$AAT?$AA_?$AAI?$AAN?$AAI?$AAT?$AA?$AA@ 00497274     dxerr8:dxerr8.obj
 0002:00007294       ??_C@_1DC@CFCECPCP@?$AAD?$AAM?$AAU?$AAS?$AA_?$AAE?$AA_?$AAA?$AAL?$AAL?$AA_?$AAT?$AAR?$AAA?$AAC?$AAK?$AAS?$AA_?$AAF?$AAA@ 00497294     dxerr8:dxerr8.obj
 0002:000072c8       ??_C@_1DA@HJAOLIDM@?$AAD?$AAM?$AAU?$AAS?$AA_?$AAE?$AA_?$AAA?$AAL?$AAL?$AA_?$AAT?$AAO?$AAO?$AAL?$AAS?$AA_?$AAF?$AAA?$AAI@ 004972c8     dxerr8:dxerr8.obj
 0002:000072f8       ??_C@_1DA@DKIJEOGB@?$AAD?$AAM?$AAU?$AAS?$AA_?$AAE?$AA_?$AAI?$AAN?$AAV?$AAA?$AAL?$AAI?$AAD?$AA_?$AAT?$AAO?$AAO?$AAL?$AA_@ 004972f8     dxerr8:dxerr8.obj
 0002:00007328       ??_C@_1DC@GPNEKCKE@?$AAD?$AAM?$AAU?$AAS?$AA_?$AAE?$AA_?$AAI?$AAN?$AAV?$AAA?$AAL?$AAI?$AAD?$AA_?$AAT?$AAR?$AAA?$AAC?$AAK@ 00497328     dxerr8:dxerr8.obj
 0002:0000735c       ??_C@_1DK@EAMGIJNH@?$AAD?$AAM?$AAU?$AAS?$AA_?$AAE?$AA_?$AAT?$AAO?$AAO?$AAL?$AA_?$AAH?$AAD?$AAR?$AA_?$AAN?$AAO?$AAT?$AA_@ 0049735c     dxerr8:dxerr8.obj
 0002:00007398       ??_C@_1DM@LLGFPCOO@?$AAD?$AAM?$AAU?$AAS?$AA_?$AAE?$AA_?$AAT?$AAR?$AAA?$AAC?$AAK?$AA_?$AAH?$AAD?$AAR?$AA_?$AAN?$AAO?$AAT@ 00497398     dxerr8:dxerr8.obj
 0002:000073d4       ??_C@_1CI@CPJIJCPI@?$AAD?$AAM?$AAU?$AAS?$AA_?$AAE?$AA_?$AAI?$AAN?$AAV?$AAA?$AAL?$AAI?$AAD?$AA_?$AAB?$AAA?$AAN?$AAD?$AA?$AA@ 004973d4     dxerr8:dxerr8.obj
 0002:000073fc       ??_C@_1CM@KGDIBNMC@?$AAD?$AAM?$AAU?$AAS?$AA_?$AAE?$AA_?$AAA?$AAL?$AAR?$AAE?$AAA?$AAD?$AAY?$AA_?$AAI?$AAN?$AAI?$AAT?$AAE@ 004973fc     dxerr8:dxerr8.obj
 0002:00007428       ??_C@_1DE@NCJKMKNN@?$AAD?$AAM?$AAU?$AAS?$AA_?$AAE?$AA_?$AAU?$AAN?$AAS?$AAU?$AAP?$AAP?$AAO?$AAR?$AAT?$AAE?$AAD?$AA_?$AAS@ 00497428     dxerr8:dxerr8.obj
 0002:0000745c       ??_C@_1CK@MLBAGCJO@?$AAD?$AAM?$AAU?$AAS?$AA_?$AAE?$AA_?$AAI?$AAN?$AAV?$AAA?$AAL?$AAI?$AAD?$AA_?$AAE?$AAV?$AAE?$AAN?$AAT@ 0049745c     dxerr8:dxerr8.obj
 0002:00007488       ??_C@_1DE@JDHBOICM@?$AAD?$AAM?$AAU?$AAS?$AA_?$AAE?$AA_?$AAD?$AAS?$AAO?$AAU?$AAN?$AAD?$AA_?$AAA?$AAL?$AAR?$AAE?$AAA?$AAD@ 00497488     dxerr8:dxerr8.obj
 0002:000074bc       ??_C@_1CK@EPDCJHMH@?$AAD?$AAM?$AAU?$AAS?$AA_?$AAE?$AA_?$AAS?$AAY?$AAN?$AAT?$AAH?$AAI?$AAN?$AAA?$AAC?$AAT?$AAI?$AAV?$AAE@ 004974bc     dxerr8:dxerr8.obj
 0002:000074e8       ??_C@_1DM@DNBABMEF@?$AAD?$AAM?$AAU?$AAS?$AA_?$AAE?$AA_?$AAW?$AAA?$AAV?$AAE?$AAF?$AAO?$AAR?$AAM?$AAA?$AAT?$AAN?$AAO?$AAT@ 004974e8     dxerr8:dxerr8.obj
 0002:00007524       ??_C@_1CK@PAMNOKEB@?$AAD?$AAM?$AAU?$AAS?$AA_?$AAE?$AA_?$AAI?$AAN?$AAV?$AAA?$AAL?$AAI?$AAD?$AAB?$AAU?$AAF?$AAF?$AAE?$AAR@ 00497524     dxerr8:dxerr8.obj
 0002:00007550       ??_C@_1DC@HLEPGJHI@?$AAD?$AAM?$AAU?$AAS?$AA_?$AAE?$AA_?$AAA?$AAL?$AAR?$AAE?$AAA?$AAD?$AAY?$AA_?$AAA?$AAC?$AAT?$AAI?$AAV@ 00497550     dxerr8:dxerr8.obj
 0002:00007584       ??_C@_1CM@MAJDGLPJ@?$AAD?$AAM?$AAU?$AAS?$AA_?$AAE?$AA_?$AAD?$AAS?$AAO?$AAU?$AAN?$AAD?$AA_?$AAN?$AAO?$AAT?$AA_?$AAS?$AAE@ 00497584     dxerr8:dxerr8.obj
 0002:000075b0       ??_C@_1CO@MGFIMFNN@?$AAD?$AAM?$AAU?$AAS?$AA_?$AAE?$AA_?$AAP?$AAO?$AAR?$AAT?$AA_?$AAN?$AAO?$AAT?$AA_?$AAR?$AAE?$AAN?$AAD@ 004975b0     dxerr8:dxerr8.obj
 0002:000075e0       ??_C@_1DA@JMINENAP@?$AAD?$AAM?$AAU?$AAS?$AA_?$AAE?$AA_?$AAP?$AAO?$AAR?$AAT?$AA_?$AAN?$AAO?$AAT?$AA_?$AAC?$AAA?$AAP?$AAT@ 004975e0     dxerr8:dxerr8.obj
 0002:00007610       ??_C@_1CG@IICDBHKL@?$AAD?$AAM?$AAU?$AAS?$AA_?$AAE?$AA_?$AAB?$AAU?$AAF?$AAF?$AAE?$AAR?$AA_?$AAF?$AAU?$AAL?$AAL?$AA?$AA@ 00497610     dxerr8:dxerr8.obj
 0002:00007638       ??_C@_1CI@PPFDJPJA@?$AAD?$AAM?$AAU?$AAS?$AA_?$AAE?$AA_?$AAB?$AAU?$AAF?$AAF?$AAE?$AAR?$AA_?$AAE?$AAM?$AAP?$AAT?$AAY?$AA?$AA@ 00497638     dxerr8:dxerr8.obj
 0002:00007660       ??_C@_1CO@JABMJCNE@?$AAD?$AAM?$AAU?$AAS?$AA_?$AAE?$AA_?$AAD?$AAM?$AAU?$AAS?$AAI?$AAC?$AA_?$AAR?$AAE?$AAL?$AAE?$AAA?$AAS@ 00497660     dxerr8:dxerr8.obj
 0002:00007690       ??_C@_1CE@GDBCMEAG@?$AAD?$AAM?$AAU?$AAS?$AA_?$AAE?$AA_?$AAC?$AAA?$AAN?$AAN?$AAO?$AAT?$AAR?$AAE?$AAA?$AAD?$AA?$AA@ 00497690     dxerr8:dxerr8.obj
 0002:000076b4       ??_C@_1CG@OIKCLJMN@?$AAD?$AAM?$AAU?$AAS?$AA_?$AAE?$AA_?$AAS?$AAY?$AAN?$AAT?$AAH?$AAA?$AAC?$AAT?$AAI?$AAV?$AAE?$AA?$AA@ 004976b4     dxerr8:dxerr8.obj
 0002:000076dc       ??_C@_1DE@INAOJMMJ@?$AAD?$AAM?$AAU?$AAS?$AA_?$AAE?$AA_?$AAS?$AAY?$AAN?$AAT?$AAH?$AAN?$AAO?$AAT?$AAC?$AAO?$AAN?$AAF?$AAI@ 004976dc     dxerr8:dxerr8.obj
 0002:00007710       ??_C@_1CK@MGJKNLMF@?$AAD?$AAM?$AAU?$AAS?$AA_?$AAE?$AA_?$AAA?$AAL?$AAR?$AAE?$AAA?$AAD?$AAY?$AAC?$AAL?$AAO?$AAS?$AAE?$AAD@ 00497710     dxerr8:dxerr8.obj
 0002:0000773c       ??_C@_1CG@PIDAJEM@?$AAD?$AAM?$AAU?$AAS?$AA_?$AAE?$AA_?$AAA?$AAL?$AAR?$AAE?$AAA?$AAD?$AAY?$AAO?$AAP?$AAE?$AAN?$AA?$AA@ 0049773c     dxerr8:dxerr8.obj
 0002:00007764       ??_C@_1CG@POEJAAMD@?$AAD?$AAM?$AAU?$AAS?$AA_?$AAE?$AA_?$AAN?$AAO?$AAS?$AAY?$AAN?$AAT?$AAH?$AAS?$AAI?$AAN?$AAK?$AA?$AA@ 00497764     dxerr8:dxerr8.obj
 0002:0000778c       ??_C@_1CO@BAEFKCPK@?$AAD?$AAM?$AAU?$AAS?$AA_?$AAE?$AA_?$AAU?$AAN?$AAK?$AAN?$AAO?$AAW?$AAN?$AAD?$AAO?$AAW?$AAN?$AAL?$AAO@ 0049778c     dxerr8:dxerr8.obj
 0002:000077bc       ??_C@_1CM@NIDPKBIN@?$AAD?$AAM?$AAU?$AAS?$AA_?$AAE?$AA_?$AAB?$AAA?$AAD?$AAO?$AAF?$AAF?$AAS?$AAE?$AAT?$AAT?$AAA?$AAB?$AAL@ 004977bc     dxerr8:dxerr8.obj
 0002:000077e8       ??_C@_1BO@JOEMOBLJ@?$AAD?$AAM?$AAU?$AAS?$AA_?$AAE?$AA_?$AAB?$AAA?$AAD?$AAW?$AAA?$AAV?$AAE?$AA?$AA@ 004977e8     dxerr8:dxerr8.obj
 0002:00007808       ??_C@_1BM@NPNDJJCP@?$AAD?$AAM?$AAU?$AAS?$AA_?$AAE?$AA_?$AAN?$AAO?$AAT?$AAP?$AAC?$AAM?$AA?$AA@ 00497808     dxerr8:dxerr8.obj
 0002:00007824       ??_C@_1CM@KOIBNHDN@?$AAD?$AAM?$AAU?$AAS?$AA_?$AAE?$AA_?$AAN?$AAO?$AAA?$AAR?$AAT?$AAI?$AAC?$AAU?$AAL?$AAA?$AAT?$AAI?$AAO@ 00497824     dxerr8:dxerr8.obj
 0002:00007850       ??_C@_1CG@LBNBLJIB@?$AAD?$AAM?$AAU?$AAS?$AA_?$AAE?$AA_?$AAB?$AAA?$AAD?$AAW?$AAA?$AAV?$AAE?$AAL?$AAI?$AAN?$AAK?$AA?$AA@ 00497850     dxerr8:dxerr8.obj
 0002:00007878       ??_C@_1CK@CCPLHIME@?$AAD?$AAM?$AAU?$AAS?$AA_?$AAE?$AA_?$AAB?$AAA?$AAD?$AAI?$AAN?$AAS?$AAT?$AAR?$AAU?$AAM?$AAE?$AAN?$AAT@ 00497878     dxerr8:dxerr8.obj
 0002:000078a4       ??_C@_1CO@COONMIBP@?$AAD?$AAM?$AAU?$AAS?$AA_?$AAE?$AA_?$AAB?$AAA?$AAD?$AAA?$AAR?$AAT?$AAI?$AAC?$AAU?$AAL?$AAA?$AAT?$AAI@ 004978a4     dxerr8:dxerr8.obj
 0002:000078d4       ??_C@_1BO@FLNDOJIM@?$AAD?$AAM?$AAU?$AAS?$AA_?$AAE?$AA_?$AAN?$AAO?$AAT?$AAM?$AAO?$AAN?$AAO?$AA?$AA@ 004978d4     dxerr8:dxerr8.obj
 0002:000078f4       ??_C@_1CO@OHJNGMNM@?$AAD?$AAM?$AAU?$AAS?$AA_?$AAE?$AA_?$AAG?$AAE?$AAT?$AA_?$AAU?$AAN?$AAS?$AAU?$AAP?$AAP?$AAO?$AAR?$AAT@ 004978f4     dxerr8:dxerr8.obj
 0002:00007924       ??_C@_1CO@ILEOBIBP@?$AAD?$AAM?$AAU?$AAS?$AA_?$AAE?$AA_?$AAS?$AAE?$AAT?$AA_?$AAU?$AAN?$AAS?$AAU?$AAP?$AAP?$AAO?$AAR?$AAT@ 00497924     dxerr8:dxerr8.obj
 0002:00007954       ??_C@_1DA@GCGCGLDE@?$AAD?$AAM?$AAU?$AAS?$AA_?$AAE?$AA_?$AAU?$AAN?$AAK?$AAN?$AAO?$AAW?$AAN?$AA_?$AAP?$AAR?$AAO?$AAP?$AAE@ 00497954     dxerr8:dxerr8.obj
 0002:00007984       ??_C@_1DE@NDPLNNGF@?$AAD?$AAM?$AAU?$AAS?$AA_?$AAE?$AA_?$AAA?$AAL?$AAR?$AAE?$AAA?$AAD?$AAY?$AA_?$AAD?$AAO?$AAW?$AAN?$AAL@ 00497984     dxerr8:dxerr8.obj
 0002:000079b8       ??_C@_1DM@IALDHPN@?$AAD?$AAM?$AAU?$AAS?$AA_?$AAE?$AA_?$AAN?$AAO?$AAT?$AA_?$AAD?$AAO?$AAW?$AAN?$AAL?$AAO?$AAA?$AAD?$AAE@ 004979b8     dxerr8:dxerr8.obj
 0002:000079f4       ??_C@_1DE@MMOBMADE@?$AAD?$AAM?$AAU?$AAS?$AA_?$AAE?$AA_?$AAI?$AAN?$AAV?$AAA?$AAL?$AAI?$AAD?$AA_?$AAD?$AAO?$AAW?$AAN?$AAL@ 004979f4     dxerr8:dxerr8.obj
 0002:00007a28       ??_C@_1CK@OLIALOFE@?$AAD?$AAM?$AAU?$AAS?$AA_?$AAE?$AA_?$AAC?$AAH?$AAU?$AAN?$AAK?$AAN?$AAO?$AAT?$AAF?$AAO?$AAU?$AAN?$AAD@ 00497a28     dxerr8:dxerr8.obj
 0002:00007a54       ??_C@_1CG@OLHLJOJN@?$AAD?$AAM?$AAU?$AAS?$AA_?$AAE?$AA_?$AAC?$AAA?$AAN?$AAN?$AAO?$AAT?$AAW?$AAR?$AAI?$AAT?$AAE?$AA?$AA@ 00497a54     dxerr8:dxerr8.obj
 0002:00007a7c       ??_C@_1CE@EPCCPNHI@?$AAD?$AAM?$AAU?$AAS?$AA_?$AAE?$AA_?$AAC?$AAA?$AAN?$AAN?$AAO?$AAT?$AAS?$AAE?$AAE?$AAK?$AA?$AA@ 00497a7c     dxerr8:dxerr8.obj
 0002:00007aa0       ??_C@_1CI@HECICFKD@?$AAD?$AAM?$AAU?$AAS?$AA_?$AAE?$AA_?$AAI?$AAN?$AAV?$AAA?$AAL?$AAI?$AAD?$AAP?$AAA?$AAT?$AAC?$AAH?$AA?$AA@ 00497aa0     dxerr8:dxerr8.obj
 0002:00007ac8       ??_C@_1CE@DIHPMHPG@?$AAD?$AAM?$AAU?$AAS?$AA_?$AAE?$AA_?$AAI?$AAN?$AAV?$AAA?$AAL?$AAI?$AAD?$AAP?$AAO?$AAS?$AA?$AA@ 00497ac8     dxerr8:dxerr8.obj
 0002:00007aec       ??_C@_1CK@OKCEEIID@?$AAD?$AAS?$AAE?$AAR?$AAR?$AA_?$AAO?$AAB?$AAJ?$AAE?$AAC?$AAT?$AAN?$AAO?$AAT?$AAF?$AAO?$AAU?$AAN?$AAD@ 00497aec     dxerr8:dxerr8.obj
 0002:00007b18       ??_C@_1CM@NGFCEOBP@?$AAD?$AAM?$AAU?$AAS?$AA_?$AAE?$AA_?$AAA?$AAL?$AAR?$AAE?$AAA?$AAD?$AAY?$AA_?$AAL?$AAO?$AAA?$AAD?$AAE@ 00497b18     dxerr8:dxerr8.obj
 0002:00007b44       ??_C@_1CK@CNIBMFIF@?$AAD?$AAM?$AAU?$AAS?$AA_?$AAE?$AA_?$AAI?$AAN?$AAV?$AAA?$AAL?$AAI?$AAD?$AAO?$AAF?$AAF?$AAS?$AAE?$AAT@ 00497b44     dxerr8:dxerr8.obj
 0002:00007b70       ??_C@_1CE@KJNDCLMF@?$AAD?$AAM?$AAU?$AAS?$AA_?$AAE?$AA_?$AAN?$AAO?$AAT?$AAA?$AAD?$AAL?$AAS?$AAC?$AAO?$AAL?$AA?$AA@ 00497b70     dxerr8:dxerr8.obj
 0002:00007b94       ??_C@_1DE@HNOONALG@?$AAD?$AAM?$AAU?$AAS?$AA_?$AAE?$AA_?$AAB?$AAU?$AAF?$AAF?$AAE?$AAR?$AAN?$AAO?$AAT?$AAA?$AAV?$AAA?$AAI@ 00497b94     dxerr8:dxerr8.obj
 0002:00007bc8       ??_C@_1CI@IBANAOMJ@?$AAD?$AAM?$AAU?$AAS?$AA_?$AAE?$AA_?$AAB?$AAU?$AAF?$AAF?$AAE?$AAR?$AAN?$AAO?$AAT?$AAS?$AAE?$AAT?$AA?$AA@ 00497bc8     dxerr8:dxerr8.obj
 0002:00007bf0       ??_C@_1DE@ONHOJHAC@?$AAD?$AAM?$AAU?$AAS?$AA_?$AAE?$AA_?$AAI?$AAN?$AAS?$AAU?$AAF?$AAF?$AAI?$AAC?$AAI?$AAE?$AAN?$AAT?$AAB@ 00497bf0     dxerr8:dxerr8.obj
 0002:00007c24       ??_C@_1CK@DLNLJBNJ@?$AAD?$AAM?$AAU?$AAS?$AA_?$AAE?$AA_?$AAD?$AAE?$AAV?$AAI?$AAC?$AAE?$AA_?$AAI?$AAN?$AA_?$AAU?$AAS?$AAE@ 00497c24     dxerr8:dxerr8.obj
 0002:00007c50       ??_C@_1CE@OFFJFHOK@?$AAD?$AAM?$AAU?$AAS?$AA_?$AAE?$AA_?$AAP?$AAO?$AAR?$AAT?$AAS?$AA_?$AAO?$AAP?$AAE?$AAN?$AA?$AA@ 00497c50     dxerr8:dxerr8.obj
 0002:00007c74       ??_C@_1CK@OLIACKBA@?$AAD?$AAM?$AAU?$AAS?$AA_?$AAE?$AA_?$AAD?$AAR?$AAI?$AAV?$AAE?$AAR?$AA_?$AAF?$AAA?$AAI?$AAL?$AAE?$AAD@ 00497c74     dxerr8:dxerr8.obj
 0002:00007ca0       ??_C@_1DA@JDGMOKLM@?$AAD?$AAS?$AAE?$AAR?$AAR?$AA_?$AAB?$AAA?$AAD?$AAS?$AAE?$AAN?$AAD?$AAB?$AAU?$AAF?$AAF?$AAE?$AAR?$AAG@ 00497ca0     dxerr8:dxerr8.obj
 0002:00007cd0       ??_C@_1CK@CEPJKMME@?$AAD?$AAS?$AAE?$AAR?$AAR?$AA_?$AAB?$AAU?$AAF?$AAF?$AAE?$AAR?$AAT?$AAO?$AAO?$AAS?$AAM?$AAA?$AAL?$AAL@ 00497cd0     dxerr8:dxerr8.obj
 0002:00007cfc       ??_C@_1CG@BFELFHCD@?$AAD?$AAS?$AAE?$AAR?$AAR?$AA_?$AAD?$AAS?$AA8?$AA_?$AAR?$AAE?$AAQ?$AAU?$AAI?$AAR?$AAE?$AAD?$AA?$AA@ 00497cfc     dxerr8:dxerr8.obj
 0002:00007d24       ??_C@_1BO@NNCAJLBB@?$AAD?$AAS?$AAE?$AAR?$AAR?$AA_?$AAS?$AAE?$AAN?$AAD?$AAL?$AAO?$AAO?$AAP?$AA?$AA@ 00497d24     dxerr8:dxerr8.obj
 0002:00007d44       ??_C@_1CI@DPBGAGCM@?$AAD?$AAS?$AAE?$AAR?$AAR?$AA_?$AAU?$AAN?$AAI?$AAN?$AAI?$AAT?$AAI?$AAA?$AAL?$AAI?$AAZ?$AAE?$AAD?$AA?$AA@ 00497d44     dxerr8:dxerr8.obj
 0002:00007d6c       ??_C@_1BO@ELMGCKOA@?$AAD?$AAS?$AAE?$AAR?$AAR?$AA_?$AAN?$AAO?$AAD?$AAR?$AAI?$AAV?$AAE?$AAR?$AA?$AA@ 00497d6c     dxerr8:dxerr8.obj
 0002:00007d8c       ??_C@_1DC@NHAHCMHG@?$AAD?$AAS?$AAE?$AAR?$AAR?$AA_?$AAA?$AAL?$AAR?$AAE?$AAA?$AAD?$AAY?$AAI?$AAN?$AAI?$AAT?$AAI?$AAA?$AAL@ 00497d8c     dxerr8:dxerr8.obj
 0002:00007dc0       ??_C@_1CC@GNFIKJB@?$AAD?$AAS?$AAE?$AAR?$AAR?$AA_?$AAB?$AAU?$AAF?$AAF?$AAE?$AAR?$AAL?$AAO?$AAS?$AAT?$AA?$AA@ 00497dc0     dxerr8:dxerr8.obj
 0002:00007de4       ??_C@_1CM@DALAIINB@?$AAD?$AAS?$AAE?$AAR?$AAR?$AA_?$AAO?$AAT?$AAH?$AAE?$AAR?$AAA?$AAP?$AAP?$AAH?$AAA?$AAS?$AAP?$AAR?$AAI@ 00497de4     dxerr8:dxerr8.obj
 0002:00007e10       ??_C@_1CA@MENOBLAG@?$AAD?$AAS?$AAE?$AAR?$AAR?$AA_?$AAB?$AAA?$AAD?$AAF?$AAO?$AAR?$AAM?$AAA?$AAT?$AA?$AA@ 00497e10     dxerr8:dxerr8.obj
 0002:00007e30       ??_C@_1CK@LNALMENG@?$AAD?$AAS?$AAE?$AAR?$AAR?$AA_?$AAC?$AAO?$AAN?$AAT?$AAR?$AAO?$AAL?$AAU?$AAN?$AAA?$AAV?$AAA?$AAI?$AAL@ 00497e30     dxerr8:dxerr8.obj
 0002:00007e5c       ??_C@_1CE@CPBIOMGM@?$AAD?$AAS?$AAE?$AAR?$AAR?$AA_?$AAI?$AAN?$AAV?$AAA?$AAL?$AAI?$AAD?$AAC?$AAA?$AAL?$AAL?$AA?$AA@ 00497e5c     dxerr8:dxerr8.obj
 0002:00007e80       ??_C@_1CM@LGMLGOJ@?$AAD?$AAS?$AAE?$AAR?$AAR?$AA_?$AAP?$AAR?$AAI?$AAO?$AAL?$AAE?$AAV?$AAE?$AAL?$AAN?$AAE?$AAE?$AAD?$AAE@ 00497e80     dxerr8:dxerr8.obj
 0002:00007eac       ??_C@_1CA@CEHGLBML@?$AAD?$AAS?$AAE?$AAR?$AAR?$AA_?$AAA?$AAL?$AAL?$AAO?$AAC?$AAA?$AAT?$AAE?$AAD?$AA?$AA@ 00497eac     dxerr8:dxerr8.obj
 0002:00007ecc       ??_C@_1CO@JKEGPNEE@?$AAD?$AA3?$AAD?$AAX?$AAE?$AAR?$AAR?$AA_?$AAC?$AAA?$AAN?$AAN?$AAO?$AAT?$AAA?$AAT?$AAT?$AAR?$AAS?$AAO@ 00497ecc     dxerr8:dxerr8.obj
 0002:00007efc       ??_C@_1DK@HFCCMMJ@?$AAD?$AA3?$AAD?$AAX?$AAE?$AAR?$AAR?$AA_?$AAS?$AAK?$AAI?$AAN?$AAN?$AAI?$AAN?$AAG?$AAN?$AAO?$AAT?$AAS@ 00497efc     dxerr8:dxerr8.obj
 0002:00007f38       ??_C@_1DE@HFKIDJAF@?$AAD?$AA3?$AAD?$AAX?$AAE?$AAR?$AAR?$AA_?$AAT?$AAO?$AAO?$AAM?$AAA?$AAN?$AAY?$AAI?$AAN?$AAF?$AAL?$AAU@ 00497f38     dxerr8:dxerr8.obj
 0002:00007f6c       ??_C@_1CI@DMCFAPMF@?$AAD?$AA3?$AAD?$AAX?$AAE?$AAR?$AAR?$AA_?$AAI?$AAN?$AAV?$AAA?$AAL?$AAI?$AAD?$AAD?$AAA?$AAT?$AAA?$AA?$AA@ 00497f6c     dxerr8:dxerr8.obj
 0002:00007f94       ??_C@_1CI@CEHHFFMH@?$AAD?$AA3?$AAD?$AAX?$AAE?$AAR?$AAR?$AA_?$AAI?$AAN?$AAV?$AAA?$AAL?$AAI?$AAD?$AAM?$AAE?$AAS?$AAH?$AA?$AA@ 00497f94     dxerr8:dxerr8.obj
 0002:00007fbc       ??_C@_1CG@HAGDFHCJ@?$AAD?$AA3?$AAD?$AAE?$AAR?$AAR?$AA_?$AAI?$AAN?$AAV?$AAA?$AAL?$AAI?$AAD?$AAC?$AAA?$AAL?$AAL?$AA?$AA@ 00497fbc     dxerr8:dxerr8.obj
 0002:00007fe4       ??_C@_1DC@NGLHOKDC@?$AAD?$AA3?$AAD?$AAE?$AAR?$AAR?$AA_?$AAD?$AAR?$AAI?$AAV?$AAE?$AAR?$AAI?$AAN?$AAV?$AAA?$AAL?$AAI?$AAD@ 00497fe4     dxerr8:dxerr8.obj
 0002:00008018       ??_C@_1EA@BJKKILJC@?$AAD?$AA3?$AAD?$AAX?$AAE?$AAR?$AAR?$AA_?$AAC?$AAA?$AAN?$AAN?$AAO?$AAT?$AAM?$AAO?$AAD?$AAI?$AAF?$AAY@ 00498018     dxerr8:dxerr8.obj
 0002:00008058       ??_C@_1CK@JBLNMPOO@?$AAD?$AA3?$AAD?$AAE?$AAR?$AAR?$AA_?$AAI?$AAN?$AAV?$AAA?$AAL?$AAI?$AAD?$AAD?$AAE?$AAV?$AAI?$AAC?$AAE@ 00498058     dxerr8:dxerr8.obj
 0002:00008084       ??_C@_1CA@HAHGONIE@?$AAD?$AA3?$AAD?$AAE?$AAR?$AAR?$AA_?$AAM?$AAO?$AAR?$AAE?$AAD?$AAA?$AAT?$AAA?$AA?$AA@ 00498084     dxerr8:dxerr8.obj
 0002:000080a4       ??_C@_1CE@DGNIILNO@?$AAD?$AA3?$AAD?$AAE?$AAR?$AAR?$AA_?$AAD?$AAE?$AAV?$AAI?$AAC?$AAE?$AAL?$AAO?$AAS?$AAT?$AA?$AA@ 004980a4     dxerr8:dxerr8.obj
 0002:000080c8       ??_C@_1CM@HOGOFGAK@?$AAD?$AA3?$AAD?$AAE?$AAR?$AAR?$AA_?$AAD?$AAE?$AAV?$AAI?$AAC?$AAE?$AAN?$AAO?$AAT?$AAR?$AAE?$AAS?$AAE@ 004980c8     dxerr8:dxerr8.obj
 0002:000080f4       ??_C@_1CI@PFOEKPJB@?$AAD?$AA3?$AAD?$AAE?$AAR?$AAR?$AA_?$AAN?$AAO?$AAT?$AAA?$AAV?$AAA?$AAI?$AAL?$AAA?$AAB?$AAL?$AAE?$AA?$AA@ 004980f4     dxerr8:dxerr8.obj
 0002:0000811c       ??_C@_1CA@IACOLMEJ@?$AAD?$AA3?$AAD?$AAE?$AAR?$AAR?$AA_?$AAN?$AAO?$AAT?$AAF?$AAO?$AAU?$AAN?$AAD?$AA?$AA@ 0049811c     dxerr8:dxerr8.obj
 0002:0000813c       ??_C@_1DG@EHHOCAKG@?$AAD?$AA3?$AAD?$AAE?$AAR?$AAR?$AA_?$AAD?$AAR?$AAI?$AAV?$AAE?$AAR?$AAI?$AAN?$AAT?$AAE?$AAR?$AAN?$AAA@ 0049813c     dxerr8:dxerr8.obj
 0002:00008178       ??_C@_1EC@MGAJIFPP@?$AAD?$AA3?$AAD?$AAE?$AAR?$AAR?$AA_?$AAC?$AAO?$AAN?$AAF?$AAL?$AAI?$AAC?$AAT?$AAI?$AAN?$AAG?$AAT?$AAE@ 00498178     dxerr8:dxerr8.obj
 0002:000081c0       ??_C@_1EA@GPKJFDKO@?$AAD?$AA3?$AAD?$AAE?$AAR?$AAR?$AA_?$AAU?$AAN?$AAS?$AAU?$AAP?$AAP?$AAO?$AAR?$AAT?$AAE?$AAD?$AAT?$AAE@ 004981c0     dxerr8:dxerr8.obj
 0002:00008200       ??_C@_1DM@JIAEPAOO@?$AAD?$AA3?$AAD?$AAE?$AAR?$AAR?$AA_?$AAC?$AAO?$AAN?$AAF?$AAL?$AAI?$AAC?$AAT?$AAI?$AAN?$AAG?$AAR?$AAE@ 00498200     dxerr8:dxerr8.obj
 0002:0000823c       ??_C@_1DM@FKHHENMH@?$AAD?$AA3?$AAD?$AAE?$AAR?$AAR?$AA_?$AAU?$AAN?$AAS?$AAU?$AAP?$AAP?$AAO?$AAR?$AAT?$AAE?$AAD?$AAF?$AAA@ 0049823c     dxerr8:dxerr8.obj
 0002:00008278       ??_C@_1EA@BEJICMPE@?$AAD?$AA3?$AAD?$AAE?$AAR?$AAR?$AA_?$AAC?$AAO?$AAN?$AAF?$AAL?$AAI?$AAC?$AAT?$AAI?$AAN?$AAG?$AAT?$AAE@ 00498278     dxerr8:dxerr8.obj
 0002:000082b8       ??_C@_1DC@JENCABHA@?$AAD?$AA3?$AAD?$AAE?$AAR?$AAR?$AA_?$AAT?$AAO?$AAO?$AAM?$AAA?$AAN?$AAY?$AAO?$AAP?$AAE?$AAR?$AAA?$AAT@ 004982b8     dxerr8:dxerr8.obj
 0002:000082ec       ??_C@_1DG@NCMIFFGE@?$AAD?$AA3?$AAD?$AAE?$AAR?$AAR?$AA_?$AAU?$AAN?$AAS?$AAU?$AAP?$AAP?$AAO?$AAR?$AAT?$AAE?$AAD?$AAA?$AAL@ 004982ec     dxerr8:dxerr8.obj
 0002:00008328       ??_C@_1EC@IGODJIJA@?$AAD?$AA3?$AAD?$AAE?$AAR?$AAR?$AA_?$AAU?$AAN?$AAS?$AAU?$AAP?$AAP?$AAO?$AAR?$AAT?$AAE?$AAD?$AAA?$AAL@ 00498328     dxerr8:dxerr8.obj
 0002:0000836c       ??_C@_1DG@KJCPEDA@?$AAD?$AA3?$AAD?$AAE?$AAR?$AAR?$AA_?$AAU?$AAN?$AAS?$AAU?$AAP?$AAP?$AAO?$AAR?$AAT?$AAE?$AAD?$AAC?$AAO@ 0049836c     dxerr8:dxerr8.obj
 0002:000083a8       ??_C@_1EC@IIIEGJML@?$AAD?$AA3?$AAD?$AAE?$AAR?$AAR?$AA_?$AAU?$AAN?$AAS?$AAU?$AAP?$AAP?$AAO?$AAR?$AAT?$AAE?$AAD?$AAC?$AAO@ 004983a8     dxerr8:dxerr8.obj
 0002:000083ec       ??_C@_1DE@LBFCLECF@?$AAD?$AA3?$AAD?$AAE?$AAR?$AAR?$AA_?$AAW?$AAR?$AAO?$AAN?$AAG?$AAT?$AAE?$AAX?$AAT?$AAU?$AAR?$AAE?$AAF@ 004983ec     dxerr8:dxerr8.obj
 0002:00008420       ??_C@_1CK@MEGFCODJ@?$AAD?$AAX?$AAF?$AAI?$AAL?$AAE?$AAE?$AAR?$AAR?$AA_?$AAN?$AAO?$AAI?$AAN?$AAT?$AAE?$AAR?$AAN?$AAE?$AAT@ 00498420     dxerr8:dxerr8.obj
 0002:0000844c       ??_C@_1CO@OGGDKMGI@?$AAD?$AAX?$AAF?$AAI?$AAL?$AAE?$AAE?$AAR?$AAR?$AA_?$AAB?$AAA?$AAD?$AAC?$AAA?$AAC?$AAH?$AAE?$AAF?$AAI@ 0049844c     dxerr8:dxerr8.obj
 0002:0000847c       ??_C@_1CK@MFLKLGII@?$AAD?$AAX?$AAF?$AAI?$AAL?$AAE?$AAE?$AAR?$AAR?$AA_?$AAN?$AAO?$AAM?$AAO?$AAR?$AAE?$AAD?$AAA?$AAT?$AAA@ 0049847c     dxerr8:dxerr8.obj
 0002:000084a8       ??_C@_1DM@MJLCEEJC@?$AAD?$AAX?$AAF?$AAI?$AAL?$AAE?$AAE?$AAR?$AAR?$AA_?$AAN?$AAO?$AAM?$AAO?$AAR?$AAE?$AAS?$AAT?$AAR?$AAE@ 004984a8     dxerr8:dxerr8.obj
 0002:000084e4       ??_C@_1DA@BPKFBOKH@?$AAD?$AAX?$AAF?$AAI?$AAL?$AAE?$AAE?$AAR?$AAR?$AA_?$AAB?$AAA?$AAD?$AAI?$AAN?$AAT?$AAR?$AAI?$AAN?$AAS@ 004984e4     dxerr8:dxerr8.obj
 0002:00008514       ??_C@_1DA@KLACCOAJ@?$AAD?$AAX?$AAF?$AAI?$AAL?$AAE?$AAE?$AAR?$AAR?$AA_?$AAN?$AAO?$AAM?$AAO?$AAR?$AAE?$AAO?$AAB?$AAJ?$AAE@ 00498514     dxerr8:dxerr8.obj
 0002:00008544       ??_C@_1DA@DDNCMDME@?$AAD?$AAX?$AAF?$AAI?$AAL?$AAE?$AAE?$AAR?$AAR?$AA_?$AAI?$AAN?$AAT?$AAE?$AAR?$AAN?$AAA?$AAL?$AAE?$AAR@ 00498544     dxerr8:dxerr8.obj
 0002:00008574       ??_C@_1DG@JMFKDEGN@?$AAD?$AAX?$AAF?$AAI?$AAL?$AAE?$AAE?$AAR?$AAR?$AA_?$AAB?$AAA?$AAD?$AAD?$AAA?$AAT?$AAA?$AAR?$AAE?$AAF@ 00498574     dxerr8:dxerr8.obj
 0002:000085ac       ??_C@_1CO@BDILAAIG@?$AAD?$AAX?$AAF?$AAI?$AAL?$AAE?$AAE?$AAR?$AAR?$AA_?$AAB?$AAA?$AAD?$AAA?$AAR?$AAR?$AAA?$AAY?$AAS?$AAI@ 004985ac     dxerr8:dxerr8.obj
 0002:000085dc       ??_C@_1CK@NPIBINIE@?$AAD?$AAX?$AAF?$AAI?$AAL?$AAE?$AAE?$AAR?$AAR?$AA_?$AAN?$AAO?$AAT?$AAE?$AAM?$AAP?$AAL?$AAA?$AAT?$AAE@ 004985dc     dxerr8:dxerr8.obj
 0002:00008608       ??_C@_1CK@NHJIIFOK@?$AAD?$AAX?$AAF?$AAI?$AAL?$AAE?$AAE?$AAR?$AAR?$AA_?$AAP?$AAA?$AAR?$AAS?$AAE?$AAE?$AAR?$AAR?$AAO?$AAR@ 00498608     dxerr8:dxerr8.obj
 0002:00008634       ??_C@_1CE@FEMGBKDA@?$AAD?$AAX?$AAF?$AAI?$AAL?$AAE?$AAE?$AAR?$AAR?$AA_?$AAB?$AAA?$AAD?$AAF?$AAI?$AAL?$AAE?$AA?$AA@ 00498634     dxerr8:dxerr8.obj
 0002:00008658       ??_C@_1EC@BCINOBBK@?$AAD?$AAX?$AAF?$AAI?$AAL?$AAE?$AAE?$AAR?$AAR?$AA_?$AAB?$AAA?$AAD?$AAF?$AAI?$AAL?$AAE?$AAC?$AAO?$AAM@ 00498658     dxerr8:dxerr8.obj
 0002:0000869c       ??_C@_1DG@ECLBOEDJ@?$AAD?$AAX?$AAF?$AAI?$AAL?$AAE?$AAE?$AAR?$AAR?$AA_?$AAB?$AAA?$AAD?$AAF?$AAI?$AAL?$AAE?$AAF?$AAL?$AAO@ 0049869c     dxerr8:dxerr8.obj
 0002:000086d4       ??_C@_1DC@DNNGNIKL@?$AAD?$AAX?$AAF?$AAI?$AAL?$AAE?$AAE?$AAR?$AAR?$AA_?$AAB?$AAA?$AAD?$AAF?$AAI?$AAL?$AAE?$AAV?$AAE?$AAR@ 004986d4     dxerr8:dxerr8.obj
 0002:00008708       ??_C@_1CM@BGJDGKHI@?$AAD?$AAX?$AAF?$AAI?$AAL?$AAE?$AAE?$AAR?$AAR?$AA_?$AAB?$AAA?$AAD?$AAF?$AAI?$AAL?$AAE?$AAT?$AAY?$AAP@ 00498708     dxerr8:dxerr8.obj
 0002:00008734       ??_C@_1CM@HJEBFFAI@?$AAD?$AAX?$AAF?$AAI?$AAL?$AAE?$AAE?$AAR?$AAR?$AA_?$AAB?$AAA?$AAD?$AAR?$AAE?$AAS?$AAO?$AAU?$AAR?$AAC@ 00498734     dxerr8:dxerr8.obj
 0002:00008760       ??_C@_1CM@DKIAEPBN@?$AAD?$AAX?$AAF?$AAI?$AAL?$AAE?$AAE?$AAR?$AAR?$AA_?$AAU?$AAR?$AAL?$AAN?$AAO?$AAT?$AAF?$AAO?$AAU?$AAN@ 00498760     dxerr8:dxerr8.obj
 0002:0000878c       ??_C@_1DG@PLCOKJPH@?$AAD?$AAX?$AAF?$AAI?$AAL?$AAE?$AAE?$AAR?$AAR?$AA_?$AAR?$AAE?$AAS?$AAO?$AAU?$AAR?$AAC?$AAE?$AAN?$AAO@ 0049878c     dxerr8:dxerr8.obj
 0002:000087c4       ??_C@_1CO@GLGLHMAM@?$AAD?$AAX?$AAF?$AAI?$AAL?$AAE?$AAE?$AAR?$AAR?$AA_?$AAF?$AAI?$AAL?$AAE?$AAN?$AAO?$AAT?$AAF?$AAO?$AAU@ 004987c4     dxerr8:dxerr8.obj
 0002:000087f4       ??_C@_1CK@GMKAGMK@?$AAD?$AAX?$AAF?$AAI?$AAL?$AAE?$AAE?$AAR?$AAR?$AA_?$AAN?$AAO?$AAT?$AAD?$AAO?$AAN?$AAE?$AAY?$AAE?$AAT@ 004987f4     dxerr8:dxerr8.obj
 0002:00008820       ??_C@_1CG@GILGENGM@?$AAD?$AAX?$AAF?$AAI?$AAL?$AAE?$AAE?$AAR?$AAR?$AA_?$AAN?$AAO?$AAT?$AAF?$AAO?$AAU?$AAN?$AAD?$AA?$AA@ 00498820     dxerr8:dxerr8.obj
 0002:00008848       ??_C@_1CG@JIKPGNDB@?$AAD?$AAX?$AAF?$AAI?$AAL?$AAE?$AAE?$AAR?$AAR?$AA_?$AAB?$AAA?$AAD?$AAA?$AAL?$AAL?$AAO?$AAC?$AA?$AA@ 00498848     dxerr8:dxerr8.obj
 0002:00008870       ??_C@_1DE@DDKMLFJF@?$AAD?$AAX?$AAF?$AAI?$AAL?$AAE?$AAE?$AAR?$AAR?$AA_?$AAB?$AAA?$AAD?$AAS?$AAT?$AAR?$AAE?$AAA?$AAM?$AAH@ 00498870     dxerr8:dxerr8.obj
 0002:000088a4       ??_C@_1CE@HPDCLICO@?$AAD?$AAX?$AAF?$AAI?$AAL?$AAE?$AAE?$AAR?$AAR?$AA_?$AAB?$AAA?$AAD?$AAT?$AAY?$AAP?$AAE?$AA?$AA@ 004988a4     dxerr8:dxerr8.obj
 0002:000088c8       ??_C@_1CG@JCPHJMND@?$AAD?$AAX?$AAF?$AAI?$AAL?$AAE?$AAE?$AAR?$AAR?$AA_?$AAB?$AAA?$AAD?$AAV?$AAA?$AAL?$AAU?$AAE?$AA?$AA@ 004988c8     dxerr8:dxerr8.obj
 0002:000088f0       ??_C@_1CI@PEFPABM@?$AAD?$AAX?$AAF?$AAI?$AAL?$AAE?$AAE?$AAR?$AAR?$AA_?$AAB?$AAA?$AAD?$AAO?$AAB?$AAJ?$AAE?$AAC?$AAT?$AA?$AA@ 004988f0     dxerr8:dxerr8.obj
 0002:00008918       ??_C@_1DK@OLFAFEHK@?$AAD?$AAD?$AAE?$AAR?$AAR?$AA_?$AAD?$AAE?$AAV?$AAI?$AAC?$AAE?$AAD?$AAO?$AAE?$AAS?$AAN?$AAT?$AAO?$AAW@ 00498918     dxerr8:dxerr8.obj
 0002:00008954       ??_C@_1CM@DMMFLBEP@?$AAD?$AAD?$AAE?$AAR?$AAR?$AA_?$AAN?$AAO?$AAD?$AAR?$AAI?$AAV?$AAE?$AAR?$AAS?$AAU?$AAP?$AAP?$AAO?$AAR@ 00498954     dxerr8:dxerr8.obj
 0002:00008980       ??_C@_1DG@MKFNGNPJ@?$AAD?$AAD?$AAE?$AAR?$AAR?$AA_?$AAN?$AAO?$AAM?$AAO?$AAN?$AAI?$AAT?$AAO?$AAR?$AAI?$AAN?$AAF?$AAO?$AAR@ 00498980     dxerr8:dxerr8.obj
 0002:000089b8       ??_C@_1CK@CNMMOHMD@?$AAD?$AAD?$AAE?$AAR?$AAR?$AA_?$AAV?$AAI?$AAD?$AAE?$AAO?$AAN?$AAO?$AAT?$AAA?$AAC?$AAT?$AAI?$AAV?$AAE@ 004989b8     dxerr8:dxerr8.obj
 0002:000089e4       ??_C@_1DA@LKHJBCKP@?$AAD?$AAD?$AAE?$AAR?$AAR?$AA_?$AAD?$AA3?$AAD?$AAN?$AAO?$AAT?$AAI?$AAN?$AAI?$AAT?$AAI?$AAA?$AAL?$AAI@ 004989e4     dxerr8:dxerr8.obj
 0002:00008a14       ??_C@_1BM@CECBAINB@?$AAD?$AAD?$AAE?$AAR?$AAR?$AA_?$AAN?$AAE?$AAW?$AAM?$AAO?$AAD?$AAE?$AA?$AA@ 00498a14     dxerr8:dxerr8.obj
 0002:00008a30       ??_C@_1CG@FLMMINMM@?$AAD?$AAD?$AAE?$AAR?$AAR?$AA_?$AAT?$AAE?$AAS?$AAT?$AAF?$AAI?$AAN?$AAI?$AAS?$AAH?$AAE?$AAD?$AA?$AA@ 00498a30     dxerr8:dxerr8.obj
 0002:00008a58       ??_C@_1BM@EGJPLGJE@?$AAD?$AAD?$AAE?$AAR?$AAR?$AA_?$AAE?$AAX?$AAP?$AAI?$AAR?$AAE?$AAD?$AA?$AA@ 00498a58     dxerr8:dxerr8.obj
 0002:00008a74       ??_C@_1BO@FBEADMGF@?$AAD?$AAD?$AAE?$AAR?$AAR?$AA_?$AAM?$AAO?$AAR?$AAE?$AAD?$AAA?$AAT?$AAA?$AA?$AA@ 00498a74     dxerr8:dxerr8.obj
 0002:00008a94       ??_C@_1CI@NBEEJJAI@?$AAD?$AAD?$AAE?$AAR?$AAR?$AA_?$AAN?$AAO?$AAT?$AAP?$AAA?$AAG?$AAE?$AAL?$AAO?$AAC?$AAK?$AAE?$AAD?$AA?$AA@ 00498a94     dxerr8:dxerr8.obj
 0002:00008abc       ??_C@_1CK@NFMOJNPC@?$AAD?$AAD?$AAE?$AAR?$AAR?$AA_?$AAC?$AAA?$AAN?$AAT?$AAP?$AAA?$AAG?$AAE?$AAU?$AAN?$AAL?$AAO?$AAC?$AAK@ 00498abc     dxerr8:dxerr8.obj
 0002:00008ae8       ??_C@_1CG@LBKMEFGI@?$AAD?$AAD?$AAE?$AAR?$AAR?$AA_?$AAC?$AAA?$AAN?$AAT?$AAP?$AAA?$AAG?$AAE?$AAL?$AAO?$AAC?$AAK?$AA?$AA@ 00498ae8     dxerr8:dxerr8.obj
 0002:00008b10       ??_C@_1CO@KBFJJNLC@?$AAD?$AAD?$AAE?$AAR?$AAR?$AA_?$AAN?$AAO?$AAN?$AAO?$AAN?$AAL?$AAO?$AAC?$AAA?$AAL?$AAV?$AAI?$AAD?$AAM@ 00498b10     dxerr8:dxerr8.obj
 0002:00008b40       ??_C@_1CO@PFHALEKF@?$AAD?$AAD?$AAE?$AAR?$AAR?$AA_?$AAD?$AAC?$AAA?$AAL?$AAR?$AAE?$AAA?$AAD?$AAY?$AAC?$AAR?$AAE?$AAA?$AAT@ 00498b40     dxerr8:dxerr8.obj
 0002:00008b70       ??_C@_1DE@GNPMJBJL@?$AAD?$AAD?$AAE?$AAR?$AAR?$AA_?$AAN?$AAO?$AAT?$AAO?$AAN?$AAM?$AAI?$AAP?$AAM?$AAA?$AAP?$AAS?$AAU?$AAB@ 00498b70     dxerr8:dxerr8.obj
 0002:00008ba4       ??_C@_1CI@FPCIIODM@?$AAD?$AAD?$AAE?$AAR?$AAR?$AA_?$AAN?$AAO?$AAF?$AAO?$AAC?$AAU?$AAS?$AAW?$AAI?$AAN?$AAD?$AAO?$AAW?$AA?$AA@ 00498ba4     dxerr8:dxerr8.obj
 0002:00008bcc       ??_C@_1CA@OHEFHBBC@?$AAD?$AAD?$AAE?$AAR?$AAR?$AA_?$AAN?$AAO?$AAT?$AAL?$AAO?$AAA?$AAD?$AAE?$AAD?$AA?$AA@ 00498bcc     dxerr8:dxerr8.obj
 0002:00008bec       ??_C@_1CG@HGAHJDDK@?$AAD?$AAD?$AAE?$AAR?$AAR?$AA_?$AAN?$AAO?$AAO?$AAP?$AAT?$AAI?$AAM?$AAI?$AAZ?$AAE?$AAH?$AAW?$AA?$AA@ 00498bec     dxerr8:dxerr8.obj
 0002:00008c14       ??_C@_1DC@HOMIGHME@?$AAD?$AAD?$AAE?$AAR?$AAR?$AA_?$AAI?$AAN?$AAV?$AAA?$AAL?$AAI?$AAD?$AAS?$AAU?$AAR?$AAF?$AAA?$AAC?$AAE@ 00498c14     dxerr8:dxerr8.obj
 0002:00008c48       ??_C@_1CC@DFEJIJKP@?$AAD?$AAD?$AAE?$AAR?$AAR?$AA_?$AAN?$AAO?$AAM?$AAI?$AAP?$AAM?$AAA?$AAP?$AAH?$AAW?$AA?$AA@ 00498c48     dxerr8:dxerr8.obj
 0002:00008c6c       ??_C@_1CM@ICOKEMEE@?$AAD?$AAD?$AAE?$AAR?$AAR?$AA_?$AAU?$AAN?$AAS?$AAU?$AAP?$AAP?$AAO?$AAR?$AAT?$AAE?$AAD?$AAM?$AAO?$AAD@ 00498c6c     dxerr8:dxerr8.obj
 0002:00008c98       ??_C@_1CI@KDMBCALC@?$AAD?$AAD?$AAE?$AAR?$AAR?$AA_?$AAN?$AAO?$AAT?$AAP?$AAA?$AAL?$AAE?$AAT?$AAT?$AAI?$AAZ?$AAE?$AAD?$AA?$AA@ 00498c98     dxerr8:dxerr8.obj
 0002:00008cc0       ??_C@_1DA@ELPLOHJF@?$AAD?$AAD?$AAE?$AAR?$AAR?$AA_?$AAI?$AAM?$AAP?$AAL?$AAI?$AAC?$AAI?$AAT?$AAL?$AAY?$AAC?$AAR?$AAE?$AAA@ 00498cc0     dxerr8:dxerr8.obj
 0002:00008cf0       ??_C@_1CA@ENBPELFI@?$AAD?$AAD?$AAE?$AAR?$AAR?$AA_?$AAW?$AAR?$AAO?$AAN?$AAG?$AAM?$AAO?$AAD?$AAE?$AA?$AA@ 00498cf0     dxerr8:dxerr8.obj
 0002:00008d10       ??_C@_1BG@EOIONLKB@?$AAD?$AAD?$AAE?$AAR?$AAR?$AA_?$AAN?$AAO?$AAD?$AAC?$AA?$AA@ 00498d10     dxerr8:dxerr8.obj
 0002:00008d28       ??_C@_1CG@CFAGHECP@?$AAD?$AAD?$AAE?$AAR?$AAR?$AA_?$AAC?$AAA?$AAN?$AAT?$AAC?$AAR?$AAE?$AAA?$AAT?$AAE?$AAD?$AAC?$AA?$AA@ 00498d28     dxerr8:dxerr8.obj
 0002:00008d50       ??_C@_1CA@DKJALDID@?$AAD?$AAD?$AAE?$AAR?$AAR?$AA_?$AAN?$AAO?$AAT?$AAL?$AAO?$AAC?$AAK?$AAE?$AAD?$AA?$AA@ 00498d50     dxerr8:dxerr8.obj
 0002:00008d70       ??_C@_1CI@LMKJPHH@?$AAD?$AAD?$AAE?$AAR?$AAR?$AA_?$AAC?$AAA?$AAN?$AAT?$AAD?$AAU?$AAP?$AAL?$AAI?$AAC?$AAA?$AAT?$AAE?$AA?$AA@ 00498d70     dxerr8:dxerr8.obj
 0002:00008d98       ??_C@_1CG@PGCPKDIB@?$AAD?$AAD?$AAE?$AAR?$AAR?$AA_?$AAN?$AAO?$AAT?$AAF?$AAL?$AAI?$AAP?$AAP?$AAA?$AAB?$AAL?$AAE?$AA?$AA@ 00498d98     dxerr8:dxerr8.obj
 0002:00008dc0       ??_C@_1DM@CMAEBMAL@?$AAD?$AAD?$AAE?$AAR?$AAR?$AA_?$AAE?$AAX?$AAC?$AAL?$AAU?$AAS?$AAI?$AAV?$AAE?$AAM?$AAO?$AAD?$AAE?$AAA@ 00498dc0     dxerr8:dxerr8.obj
 0002:00008dfc       ??_C@_1DC@JKJLLFOG@?$AAD?$AAD?$AAE?$AAR?$AAR?$AA_?$AAN?$AAO?$AAT?$AAA?$AAO?$AAV?$AAE?$AAR?$AAL?$AAA?$AAY?$AAS?$AAU?$AAR@ 00498dfc     dxerr8:dxerr8.obj
 0002:00008e30       ??_C@_1CM@GCOCFKMK@?$AAD?$AAD?$AAE?$AAR?$AAR?$AA_?$AAI?$AAN?$AAV?$AAA?$AAL?$AAI?$AAD?$AAP?$AAO?$AAS?$AAI?$AAT?$AAI?$AAO@ 00498e30     dxerr8:dxerr8.obj
 0002:00008e5c       ??_C@_1CI@CJBNHGEO@?$AAD?$AAD?$AAE?$AAR?$AAR?$AA_?$AAN?$AAO?$AAO?$AAV?$AAE?$AAR?$AAL?$AAA?$AAY?$AAD?$AAE?$AAS?$AAT?$AA?$AA@ 00498e5c     dxerr8:dxerr8.obj
 0002:00008e84       ??_C@_1DA@GHNJEAA@?$AAD?$AAD?$AAE?$AAR?$AAR?$AA_?$AAO?$AAV?$AAE?$AAR?$AAL?$AAA?$AAY?$AAN?$AAO?$AAT?$AAV?$AAI?$AAS?$AAI@ 00498e84     dxerr8:dxerr8.obj
 0002:00008eb4       ??_C@_1CC@IPLGGEBM@?$AAD?$AAD?$AAE?$AAR?$AAR?$AA_?$AAN?$AAO?$AAD?$AAD?$AAR?$AAO?$AAP?$AAS?$AAH?$AAW?$AA?$AA@ 00498eb4     dxerr8:dxerr8.obj
 0002:00008ed8       ??_C@_1BM@CBGMFBIK@?$AAD?$AAD?$AAE?$AAR?$AAR?$AA_?$AAN?$AAO?$AAB?$AAL?$AAT?$AAH?$AAW?$AA?$AA@ 00498ed8     dxerr8:dxerr8.obj
 0002:00008ef4       ??_C@_1CM@EDNJGILP@?$AAD?$AAD?$AAE?$AAR?$AAR?$AA_?$AAB?$AAL?$AAT?$AAF?$AAA?$AAS?$AAT?$AAC?$AAA?$AAN?$AAT?$AAC?$AAL?$AAI@ 00498ef4     dxerr8:dxerr8.obj
 0002:00008f20       ??_C@_1CE@CMGOPGBN@?$AAD?$AAD?$AAE?$AAR?$AAR?$AA_?$AAN?$AAO?$AAP?$AAA?$AAL?$AAE?$AAT?$AAT?$AAE?$AAH?$AAW?$AA?$AA@ 00498f20     dxerr8:dxerr8.obj
 0002:00008f44       ??_C@_1DA@NIJGCGAB@?$AAD?$AAD?$AAE?$AAR?$AAR?$AA_?$AAN?$AAO?$AAP?$AAA?$AAL?$AAE?$AAT?$AAT?$AAE?$AAA?$AAT?$AAT?$AAA?$AAC@ 00498f44     dxerr8:dxerr8.obj
 0002:00008f74       ??_C@_1CK@KLNPICJB@?$AAD?$AAD?$AAE?$AAR?$AAR?$AA_?$AAH?$AAW?$AAN?$AAD?$AAA?$AAL?$AAR?$AAE?$AAA?$AAD?$AAY?$AAS?$AAE?$AAT@ 00498f74     dxerr8:dxerr8.obj
 0002:00008fa0       ??_C@_1CK@CBFCLCGA@?$AAD?$AAD?$AAE?$AAR?$AAR?$AA_?$AAH?$AAW?$AAN?$AAD?$AAS?$AAU?$AAB?$AAC?$AAL?$AAA?$AAS?$AAS?$AAE?$AAD@ 00498fa0     dxerr8:dxerr8.obj
 0002:00008fcc       ??_C@_1BK@IDIGAGMK@?$AAD?$AAD?$AAE?$AAR?$AAR?$AA_?$AAN?$AAO?$AAH?$AAW?$AAN?$AAD?$AA?$AA@ 00498fcc     dxerr8:dxerr8.obj
 0002:00008fe8       ??_C@_1DA@EPKHOOEO@?$AAD?$AAD?$AAE?$AAR?$AAR?$AA_?$AAN?$AAO?$AAC?$AAL?$AAI?$AAP?$AAP?$AAE?$AAR?$AAA?$AAT?$AAT?$AAA?$AAC@ 00498fe8     dxerr8:dxerr8.obj
 0002:00009018       ??_C@_1DC@LKHGPJGI@?$AAD?$AAD?$AAE?$AAR?$AAR?$AA_?$AAC?$AAL?$AAI?$AAP?$AAP?$AAE?$AAR?$AAI?$AAS?$AAU?$AAS?$AAI?$AAN?$AAG@ 00499018     dxerr8:dxerr8.obj
 0002:0000904c       ??_C@_1CK@OBHLGFKP@?$AAD?$AAD?$AAE?$AAR?$AAR?$AA_?$AAR?$AAE?$AAG?$AAI?$AAO?$AAN?$AAT?$AAO?$AAO?$AAS?$AAM?$AAA?$AAL?$AAL@ 0049904c     dxerr8:dxerr8.obj
 0002:00009078       ??_C@_1CE@JNNBJMCD@?$AAD?$AAD?$AAE?$AAR?$AAR?$AA_?$AAN?$AAO?$AAE?$AAM?$AAU?$AAL?$AAA?$AAT?$AAI?$AAO?$AAN?$AA?$AA@ 00499078     dxerr8:dxerr8.obj
 0002:000090a0       ??_C@_1EE@OKGLONDB@?$AAD?$AAD?$AAE?$AAR?$AAR?$AA_?$AAP?$AAR?$AAI?$AAM?$AAA?$AAR?$AAY?$AAS?$AAU?$AAR?$AAF?$AAA?$AAC?$AAE@ 004990a0     dxerr8:dxerr8.obj
 0002:000090e4       ??_C@_1CK@NGDDEKCI@?$AAD?$AAD?$AAE?$AAR?$AAR?$AA_?$AAN?$AAO?$AAD?$AAI?$AAR?$AAE?$AAC?$AAT?$AAD?$AAR?$AAA?$AAW?$AAH?$AAW@ 004990e4     dxerr8:dxerr8.obj
 0002:00009110       ??_C@_1DO@KFPMCKHG@?$AAD?$AAD?$AAE?$AAR?$AAR?$AA_?$AAD?$AAI?$AAR?$AAE?$AAC?$AAT?$AAD?$AAR?$AAA?$AAW?$AAA?$AAL?$AAR?$AAE@ 00499110     dxerr8:dxerr8.obj
 0002:00009150       ??_C@_1DI@FGHKOMKF@?$AAD?$AAD?$AAE?$AAR?$AAR?$AA_?$AAI?$AAN?$AAV?$AAA?$AAL?$AAI?$AAD?$AAD?$AAI?$AAR?$AAE?$AAC?$AAT?$AAD@ 00499150     dxerr8:dxerr8.obj
 0002:00009188       ??_C@_1BK@NMKPJAMB@?$AAD?$AAD?$AAE?$AAR?$AAR?$AA_?$AAX?$AAA?$AAL?$AAI?$AAG?$AAN?$AA?$AA@ 00499188     dxerr8:dxerr8.obj
 0002:000091a4       ??_C@_1DK@OAKPKEMI@?$AAD?$AAD?$AAE?$AAR?$AAR?$AA_?$AAD?$AAD?$AAS?$AAC?$AAA?$AAP?$AAS?$AAC?$AAO?$AAM?$AAP?$AAL?$AAE?$AAX@ 004991a4     dxerr8:dxerr8.obj
 0002:000091e0       ??_C@_1CM@HOJCJCDF@?$AAD?$AAD?$AAE?$AAR?$AAR?$AA_?$AAW?$AAA?$AAS?$AAS?$AAT?$AAI?$AAL?$AAL?$AAD?$AAR?$AAA?$AAW?$AAI?$AAN@ 004991e0     dxerr8:dxerr8.obj
 0002:0000920c       ??_C@_1DM@HFPEKJA@?$AAD?$AAD?$AAE?$AAR?$AAR?$AA_?$AAV?$AAE?$AAR?$AAT?$AAI?$AAC?$AAA?$AAL?$AAB?$AAL?$AAA?$AAN?$AAK?$AAI@ 0049920c     dxerr8:dxerr8.obj
 0002:00009248       ??_C@_1CI@CCHDJPOH@?$AAD?$AAD?$AAE?$AAR?$AAR?$AA_?$AAI?$AAN?$AAV?$AAA?$AAL?$AAI?$AAD?$AAS?$AAT?$AAR?$AAE?$AAA?$AAM?$AA?$AA@ 00499248     dxerr8:dxerr8.obj
 0002:00009270       ??_C@_1CM@GJGMBLGG@?$AAD?$AAD?$AAE?$AAR?$AAR?$AA_?$AAU?$AAN?$AAS?$AAU?$AAP?$AAP?$AAO?$AAR?$AAT?$AAE?$AAD?$AAM?$AAA?$AAS@ 00499270     dxerr8:dxerr8.obj
 0002:0000929c       ??_C@_1CC@ICNAAAEM@?$AAD?$AAD?$AAE?$AAR?$AAR?$AA_?$AAT?$AAO?$AAO?$AAB?$AAI?$AAG?$AAS?$AAI?$AAZ?$AAE?$AA?$AA@ 0049929c     dxerr8:dxerr8.obj
 0002:000092c0       ??_C@_1CE@KANBDLFD@?$AAD?$AAD?$AAE?$AAR?$AAR?$AA_?$AAT?$AAO?$AAO?$AAB?$AAI?$AAG?$AAW?$AAI?$AAD?$AAT?$AAH?$AA?$AA@ 004992c0     dxerr8:dxerr8.obj
 0002:000092e4       ??_C@_1DA@PMNHNCGP@?$AAD?$AAD?$AAE?$AAR?$AAR?$AA_?$AAU?$AAN?$AAS?$AAU?$AAP?$AAP?$AAO?$AAR?$AAT?$AAE?$AAD?$AAF?$AAO?$AAR@ 004992e4     dxerr8:dxerr8.obj
 0002:00009314       ??_C@_1CG@FGBEKHPE@?$AAD?$AAD?$AAE?$AAR?$AAR?$AA_?$AAT?$AAO?$AAO?$AAB?$AAI?$AAG?$AAH?$AAE?$AAI?$AAG?$AAH?$AAT?$AA?$AA@ 00499314     dxerr8:dxerr8.obj
 0002:0000933c       ??_C@_1CM@JBLNLHNG@?$AAD?$AAD?$AAE?$AAR?$AAR?$AA_?$AAC?$AAA?$AAN?$AAT?$AAL?$AAO?$AAC?$AAK?$AAS?$AAU?$AAR?$AAF?$AAA?$AAC@ 0049933c     dxerr8:dxerr8.obj
 0002:00009368       ??_C@_1DA@OMECMPNJ@?$AAD?$AAD?$AAE?$AAR?$AAR?$AA_?$AAS?$AAU?$AAR?$AAF?$AAA?$AAC?$AAE?$AAI?$AAS?$AAO?$AAB?$AAS?$AAC?$AAU@ 00499368     dxerr8:dxerr8.obj
 0002:00009398       ??_C@_1CE@MEAHLPNB@?$AAD?$AAD?$AAE?$AAR?$AAR?$AA_?$AAS?$AAU?$AAR?$AAF?$AAA?$AAC?$AAE?$AAL?$AAO?$AAS?$AAT?$AA?$AA@ 00499398     dxerr8:dxerr8.obj
 0002:000093bc       ??_C@_1DC@GDMFDDKO@?$AAD?$AAD?$AAE?$AAR?$AAR?$AA_?$AAS?$AAU?$AAR?$AAF?$AAA?$AAC?$AAE?$AAN?$AAO?$AAT?$AAA?$AAT?$AAT?$AAA@ 004993bc     dxerr8:dxerr8.obj
 0002:000093f0       ??_C@_1CE@MFNPHKFM@?$AAD?$AAD?$AAE?$AAR?$AAR?$AA_?$AAS?$AAU?$AAR?$AAF?$AAA?$AAC?$AAE?$AAB?$AAU?$AAS?$AAY?$AA?$AA@ 004993f0     dxerr8:dxerr8.obj
 0002:00009414       ??_C@_1CE@OECOECDB@?$AAD?$AAD?$AAE?$AAR?$AAR?$AA_?$AAP?$AAA?$AAL?$AAE?$AAT?$AAT?$AAE?$AAB?$AAU?$AAS?$AAY?$AA?$AA@ 00499414     dxerr8:dxerr8.obj
 0002:00009438       ??_C@_1CK@HDBKDPLJ@?$AAD?$AAD?$AAE?$AAR?$AAR?$AA_?$AAC?$AAO?$AAL?$AAO?$AAR?$AAK?$AAE?$AAY?$AAN?$AAO?$AAT?$AAS?$AAE?$AAT@ 00499438     dxerr8:dxerr8.obj
 0002:00009464       ??_C@_1DK@CJIIPNKA@?$AAD?$AAD?$AAE?$AAR?$AAR?$AA_?$AAS?$AAU?$AAR?$AAF?$AAA?$AAC?$AAE?$AAA?$AAL?$AAR?$AAE?$AAA?$AAD?$AAY@ 00499464     dxerr8:dxerr8.obj
 0002:000094a0       ??_C@_1DM@CLIKLIEJ@?$AAD?$AAD?$AAE?$AAR?$AAR?$AA_?$AAS?$AAU?$AAR?$AAF?$AAA?$AAC?$AAE?$AAA?$AAL?$AAR?$AAE?$AAA?$AAD?$AAY@ 004994a0     dxerr8:dxerr8.obj
 0002:000094e0       ??_C@_1EG@BHNJECLP@?$AAD?$AAD?$AAE?$AAR?$AAR?$AA_?$AAO?$AAV?$AAE?$AAR?$AAL?$AAA?$AAY?$AAC?$AAO?$AAL?$AAO?$AAR?$AAK?$AAE@ 004994e0     dxerr8:dxerr8.obj
 0002:00009528       ??_C@_1CG@PGAJOMAF@?$AAD?$AAD?$AAE?$AAR?$AAR?$AA_?$AAN?$AAO?$AAZ?$AAO?$AAV?$AAE?$AAR?$AAL?$AAA?$AAY?$AAH?$AAW?$AA?$AA@ 00499528     dxerr8:dxerr8.obj
 0002:00009550       ??_C@_1CA@INAMOONO@?$AAD?$AAD?$AAE?$AAR?$AAR?$AA_?$AAO?$AAU?$AAT?$AAO?$AAF?$AAC?$AAA?$AAP?$AAS?$AA?$AA@ 00499550     dxerr8:dxerr8.obj
 0002:00009570       ??_C@_1DA@DPHMHFEF@?$AAD?$AA3?$AAD?$AAE?$AAR?$AAR?$AA_?$AAO?$AAU?$AAT?$AAO?$AAF?$AAV?$AAI?$AAD?$AAE?$AAO?$AAM?$AAE?$AAM@ 00499570     dxerr8:dxerr8.obj
 0002:000095a0       ??_C@_1CM@IBDCAELJ@?$AAD?$AAD?$AAE?$AAR?$AAR?$AA_?$AAO?$AAV?$AAE?$AAR?$AAL?$AAA?$AAY?$AAC?$AAA?$AAN?$AAT?$AAC?$AAL?$AAI@ 004995a0     dxerr8:dxerr8.obj
 0002:000095cc       ??_C@_1CE@IIPBDPFN@?$AAD?$AAD?$AAE?$AAR?$AAR?$AA_?$AAN?$AAO?$AAZ?$AAB?$AAU?$AAF?$AAF?$AAE?$AAR?$AAH?$AAW?$AA?$AA@ 004995cc     dxerr8:dxerr8.obj
 0002:000095f0       ??_C@_1CG@BLALCOEJ@?$AAD?$AAD?$AAE?$AAR?$AAR?$AA_?$AAN?$AAO?$AAT?$AA8?$AAB?$AAI?$AAT?$AAC?$AAO?$AAL?$AAO?$AAR?$AA?$AA@ 004995f0     dxerr8:dxerr8.obj
 0002:00009618       ??_C@_1CE@DGDLFJGJ@?$AAD?$AAD?$AAE?$AAR?$AAR?$AA_?$AAN?$AAO?$AAT?$AAE?$AAX?$AAT?$AAU?$AAR?$AAE?$AAH?$AAW?$AA?$AA@ 00499618     dxerr8:dxerr8.obj
 0002:0000963c       ??_C@_1CA@LGBKCNMM@?$AAD?$AAD?$AAE?$AAR?$AAR?$AA_?$AAN?$AAO?$AAV?$AAS?$AAY?$AAN?$AAC?$AAH?$AAW?$AA?$AA@ 0049963c     dxerr8:dxerr8.obj
 0002:0000965c       ??_C@_1DA@IJIPJOP@?$AAD?$AAD?$AAE?$AAR?$AAR?$AA_?$AAN?$AAO?$AAT?$AA4?$AAB?$AAI?$AAT?$AAC?$AAO?$AAL?$AAO?$AAR?$AAI?$AAN@ 0049965c     dxerr8:dxerr8.obj
 0002:0000968c       ??_C@_1CG@BNNHMMFM@?$AAD?$AAD?$AAE?$AAR?$AAR?$AA_?$AAN?$AAO?$AAR?$AAA?$AAS?$AAT?$AAE?$AAR?$AAO?$AAP?$AAH?$AAW?$AA?$AA@ 0049968c     dxerr8:dxerr8.obj
 0002:000096b4       ??_C@_1CG@JGHJNJCG@?$AAD?$AAD?$AAE?$AAR?$AAR?$AA_?$AAN?$AAO?$AAR?$AAO?$AAT?$AAA?$AAT?$AAI?$AAO?$AAN?$AAH?$AAW?$AA?$AA@ 004996b4     dxerr8:dxerr8.obj
 0002:000096dc       ??_C@_1CE@NBEMMBFN@?$AAD?$AAD?$AAE?$AAR?$AAR?$AA_?$AAN?$AAO?$AAS?$AAT?$AAR?$AAE?$AAT?$AAC?$AAH?$AAH?$AAW?$AA?$AA@ 004996dc     dxerr8:dxerr8.obj
 0002:00009700       ??_C@_1CG@MIDNBDKC@?$AAD?$AAD?$AAE?$AAR?$AAR?$AA_?$AAN?$AAO?$AAT?$AA4?$AAB?$AAI?$AAT?$AAC?$AAO?$AAL?$AAO?$AAR?$AA?$AA@ 00499700     dxerr8:dxerr8.obj
 0002:00009728       ??_C@_1CO@GGKNDHIF@?$AAD?$AAD?$AAE?$AAR?$AAR?$AA_?$AAO?$AAV?$AAE?$AAR?$AAL?$AAA?$AAP?$AAP?$AAI?$AAN?$AAG?$AAR?$AAE?$AAC@ 00499728     dxerr8:dxerr8.obj
 0002:00009758       ??_C@_1CC@PGEHAIEB@?$AAD?$AAD?$AAE?$AAR?$AAR?$AA_?$AAN?$AAO?$AAM?$AAI?$AAR?$AAR?$AAO?$AAR?$AAH?$AAW?$AA?$AA@ 00499758     dxerr8:dxerr8.obj
 0002:0000977c       ??_C@_1BO@KBBIGNKI@?$AAD?$AAD?$AAE?$AAR?$AAR?$AA_?$AAN?$AAO?$AAT?$AAF?$AAO?$AAU?$AAN?$AAD?$AA?$AA@ 0049977c     dxerr8:dxerr8.obj
 0002:0000979c       ??_C@_1CE@EBDJBGNN@?$AAD?$AAD?$AAE?$AAR?$AAR?$AA_?$AAN?$AAO?$AAO?$AAV?$AAE?$AAR?$AAL?$AAA?$AAY?$AAH?$AAW?$AA?$AA@ 0049979c     dxerr8:dxerr8.obj
 0002:000097c0       ??_C@_1BI@NDILOIJG@?$AAD?$AAD?$AAE?$AAR?$AAR?$AA_?$AAN?$AAO?$AAG?$AAD?$AAI?$AA?$AA@ 004997c0     dxerr8:dxerr8.obj
 0002:000097d8       ??_C@_1CG@EEHDIOMK@?$AAD?$AAD?$AAE?$AAR?$AAR?$AA_?$AAN?$AAO?$AAC?$AAO?$AAL?$AAO?$AAR?$AAK?$AAE?$AAY?$AAH?$AAW?$AA?$AA@ 004997d8     dxerr8:dxerr8.obj
 0002:00009800       ??_C@_1DE@PJAOEENO@?$AAD?$AAD?$AAE?$AAR?$AAR?$AA_?$AAN?$AAO?$AAD?$AAI?$AAR?$AAE?$AAC?$AAT?$AAD?$AAR?$AAA?$AAW?$AAS?$AAU@ 00499800     dxerr8:dxerr8.obj
 0002:00009834       ??_C@_1CM@FCGBICJE@?$AAD?$AAD?$AAE?$AAR?$AAR?$AA_?$AAN?$AAO?$AAE?$AAX?$AAC?$AAL?$AAU?$AAS?$AAI?$AAV?$AAE?$AAM?$AAO?$AAD@ 00499834     dxerr8:dxerr8.obj
 0002:00009860       ??_C@_1BO@BNPIBIEH@?$AAD?$AAD?$AAE?$AAR?$AAR?$AA_?$AAN?$AAO?$AAF?$AAL?$AAI?$AAP?$AAH?$AAW?$AA?$AA@ 00499860     dxerr8:dxerr8.obj
 0002:00009880       ??_C@_1CC@GOIALCGH@?$AAD?$AAD?$AAE?$AAR?$AAR?$AA_?$AAN?$AAO?$AAC?$AAO?$AAL?$AAO?$AAR?$AAK?$AAE?$AAY?$AA?$AA@ 00499880     dxerr8:dxerr8.obj
 0002:000098a4       ??_C@_1CC@OBMAJFAI@?$AAD?$AAD?$AAE?$AAR?$AAR?$AA_?$AAN?$AAO?$AAC?$AAL?$AAI?$AAP?$AAL?$AAI?$AAS?$AAT?$AA?$AA@ 004998a4     dxerr8:dxerr8.obj
 0002:000098c8       ??_C@_1CI@OKGCBNBK@?$AAD?$AAD?$AAE?$AAR?$AAR?$AA_?$AAN?$AAO?$AAC?$AAO?$AAL?$AAO?$AAR?$AAC?$AAO?$AAN?$AAV?$AAH?$AAW?$AA?$AA@ 004998c8     dxerr8:dxerr8.obj
 0002:000098f0       ??_C@_1DI@MOJHELP@?$AAD?$AAD?$AAE?$AAR?$AAR?$AA_?$AAN?$AAO?$AAC?$AAO?$AAO?$AAP?$AAE?$AAR?$AAA?$AAT?$AAI?$AAV?$AAE?$AAL@ 004998f0     dxerr8:dxerr8.obj
 0002:00009928       ??_C@_1CI@FBHGHFCP@?$AAD?$AAD?$AAE?$AAR?$AAR?$AA_?$AAN?$AAO?$AAS?$AAU?$AAR?$AAF?$AAA?$AAC?$AAE?$AAL?$AAE?$AAF?$AAT?$AA?$AA@ 00499928     dxerr8:dxerr8.obj
 0002:00009950       ??_C@_1CK@NMOLKDNO@?$AAD?$AAD?$AAE?$AAR?$AAR?$AA_?$AAL?$AAO?$AAC?$AAK?$AAE?$AAD?$AAS?$AAU?$AAR?$AAF?$AAA?$AAC?$AAE?$AAS@ 00499950     dxerr8:dxerr8.obj
 0002:0000997c       ??_C@_1BG@MFHONOGB@?$AAD?$AAD?$AAE?$AAR?$AAR?$AA_?$AAN?$AAO?$AA3?$AAD?$AA?$AA@ 0049997c     dxerr8:dxerr8.obj
 0002:00009994       ??_C@_1CA@EPHACOBG@?$AAD?$AAD?$AAE?$AAR?$AAR?$AA_?$AAN?$AAO?$AAA?$AAL?$AAP?$AAH?$AAA?$AAH?$AAW?$AA?$AA@ 00499994     dxerr8:dxerr8.obj
 0002:000099b4       ??_C@_1CO@PIBFAMFD@?$AAD?$AAD?$AAE?$AAR?$AAR?$AA_?$AAN?$AAO?$AAS?$AAT?$AAE?$AAR?$AAE?$AAO?$AAH?$AAA?$AAR?$AAD?$AAW?$AAA@ 004999b4     dxerr8:dxerr8.obj
 0002:000099e4       ??_C@_1CE@NNPMGLME@?$AAD?$AAD?$AAE?$AAR?$AAR?$AA_?$AAI?$AAN?$AAV?$AAA?$AAL?$AAI?$AAD?$AAR?$AAE?$AAC?$AAT?$AA?$AA@ 004999e4     dxerr8:dxerr8.obj
 0002:00009a08       ??_C@_1CM@NFPCOKNP@?$AAD?$AAD?$AAE?$AAR?$AAR?$AA_?$AAI?$AAN?$AAV?$AAA?$AAL?$AAI?$AAD?$AAC?$AAL?$AAI?$AAP?$AAL?$AAI?$AAS@ 00499a08     dxerr8:dxerr8.obj
 0002:00009a34       ??_C@_1CE@GPDJKNCL@?$AAD?$AAD?$AAE?$AAR?$AAR?$AA_?$AAI?$AAN?$AAV?$AAA?$AAL?$AAI?$AAD?$AAM?$AAO?$AAD?$AAE?$AA?$AA@ 00499a34     dxerr8:dxerr8.obj
 0002:00009a58       ??_C@_1CI@NJLBACLI@?$AAD?$AAD?$AAE?$AAR?$AAR?$AA_?$AAI?$AAN?$AAV?$AAA?$AAL?$AAI?$AAD?$AAO?$AAB?$AAJ?$AAE?$AAC?$AAT?$AA?$AA@ 00499a58     dxerr8:dxerr8.obj
 0002:00009a80       ??_C@_1DC@GFEOCGPG@?$AAD?$AAD?$AAE?$AAR?$AAR?$AA_?$AAI?$AAN?$AAV?$AAA?$AAL?$AAI?$AAD?$AAP?$AAI?$AAX?$AAE?$AAL?$AAF?$AAO@ 00499a80     dxerr8:dxerr8.obj
 0002:00009ab4       ??_C@_1CE@IJEPMHGE@?$AAD?$AAD?$AAE?$AAR?$AAR?$AA_?$AAI?$AAN?$AAV?$AAA?$AAL?$AAI?$AAD?$AAC?$AAA?$AAP?$AAS?$AA?$AA@ 00499ab4     dxerr8:dxerr8.obj
 0002:00009ad8       ??_C@_1DA@DEFCBMHK@?$AAD?$AAD?$AAE?$AAR?$AAR?$AA_?$AAC?$AAU?$AAR?$AAR?$AAE?$AAN?$AAT?$AAL?$AAY?$AAN?$AAO?$AAT?$AAA?$AAV@ 00499ad8     dxerr8:dxerr8.obj
 0002:00009b08       ??_C@_1CA@EFBKGLEP@?$AAD?$AAD?$AAE?$AAR?$AAR?$AA_?$AAE?$AAX?$AAC?$AAE?$AAP?$AAT?$AAI?$AAO?$AAN?$AA?$AA@ 00499b08     dxerr8:dxerr8.obj
 0002:00009b28       ??_C@_1CE@BJOAMEHL@?$AAD?$AAD?$AAE?$AAR?$AAR?$AA_?$AAH?$AAE?$AAI?$AAG?$AAH?$AAT?$AAA?$AAL?$AAI?$AAG?$AAN?$AA?$AA@ 00499b28     dxerr8:dxerr8.obj
 0002:00009b4c       ??_C@_1DE@BHEBNLNH@?$AAD?$AAD?$AAE?$AAR?$AAR?$AA_?$AAI?$AAN?$AAC?$AAO?$AAM?$AAP?$AAA?$AAT?$AAI?$AAB?$AAL?$AAE?$AAP?$AAR@ 00499b4c     dxerr8:dxerr8.obj
 0002:00009b80       ??_C@_1DE@NLLJFJKL@?$AAD?$AAD?$AAE?$AAR?$AAR?$AA_?$AAC?$AAA?$AAN?$AAN?$AAO?$AAT?$AAD?$AAE?$AAT?$AAA?$AAC?$AAH?$AAS?$AAU@ 00499b80     dxerr8:dxerr8.obj
 0002:00009bb4       ??_C@_1CE@OPKGPINM@?$AAD?$AAP?$AAN?$AAE?$AAR?$AAR?$AA_?$AAU?$AAS?$AAE?$AAR?$AAC?$AAA?$AAN?$AAC?$AAE?$AAL?$AA?$AA@ 00499bb4     dxerr8:dxerr8.obj
 0002:00009bd8       ??_C@_1DC@KOOGLCA@?$AAD?$AAD?$AAE?$AAR?$AAR?$AA_?$AAA?$AAL?$AAR?$AAE?$AAA?$AAD?$AAY?$AAI?$AAN?$AAI?$AAT?$AAI?$AAA?$AAL@ 00499bd8     dxerr8:dxerr8.obj
 0002:00009c0c       ??_C@_1DE@JBJEKNCN@?$AAD?$AAD?$AAE?$AAR?$AAR?$AA_?$AAC?$AAA?$AAN?$AAN?$AAO?$AAT?$AAA?$AAT?$AAT?$AAA?$AAC?$AAH?$AAS?$AAU@ 00499c0c     dxerr8:dxerr8.obj
 0002:00009c40       ??_C@_1CK@GHLEOGNG@?$AAD?$AAP?$AAN?$AAE?$AAR?$AAR?$AA_?$AAU?$AAN?$AAI?$AAN?$AAI?$AAT?$AAI?$AAA?$AAL?$AAI?$AAZ?$AAE?$AAD@ 00499c40     dxerr8:dxerr8.obj
 0002:00009c6c       ??_C@_1CI@NFDCECML@?$AAD?$AAP?$AAN?$AAE?$AAR?$AAR?$AA_?$AAS?$AAE?$AAN?$AAD?$AAT?$AAO?$AAO?$AAL?$AAA?$AAR?$AAG?$AAE?$AA?$AA@ 00499c6c     dxerr8:dxerr8.obj
 0002:00009c94       ??_C@_1CG@KBPCPFN@?$AAD?$AAP?$AAN?$AAE?$AAR?$AAR?$AA_?$AAS?$AAE?$AAS?$AAS?$AAI?$AAO?$AAN?$AAF?$AAU?$AAL?$AAL?$AA?$AA@ 00499c94     dxerr8:dxerr8.obj
 0002:00009cbc       ??_C@_1CC@NGICDDHB@?$AAD?$AAP?$AAN?$AAE?$AAR?$AAR?$AA_?$AAT?$AAA?$AAB?$AAL?$AAE?$AAF?$AAU?$AAL?$AAL?$AA?$AA@ 00499cbc     dxerr8:dxerr8.obj
 0002:00009ce0       ??_C@_1CA@MPAMJHLC@?$AAD?$AAP?$AAN?$AAE?$AAR?$AAR?$AA_?$AAT?$AAI?$AAM?$AAE?$AAD?$AAO?$AAU?$AAT?$AA?$AA@ 00499ce0     dxerr8:dxerr8.obj
 0002:00009d00       ??_C@_1DE@FPOMDAIC@?$AAD?$AAP?$AAN?$AAE?$AAR?$AAR?$AA_?$AAP?$AAL?$AAA?$AAY?$AAE?$AAR?$AAN?$AAO?$AAT?$AAR?$AAE?$AAA?$AAC@ 00499d00     dxerr8:dxerr8.obj
 0002:00009d34       ??_C@_1BO@KFAKLJGF@?$AAD?$AAP?$AAN?$AAE?$AAR?$AAR?$AA_?$AAN?$AAO?$AAT?$AAH?$AAO?$AAS?$AAT?$AA?$AA@ 00499d34     dxerr8:dxerr8.obj
 0002:00009d54       ??_C@_1CA@NAHHNAHB@?$AAD?$AAP?$AAN?$AAE?$AAR?$AAR?$AA_?$AAN?$AAO?$AAT?$AAR?$AAE?$AAA?$AAD?$AAY?$AA?$AA@ 00499d54     dxerr8:dxerr8.obj
 0002:00009d74       ??_C@_1CK@MONFBNIN@?$AAD?$AAP?$AAN?$AAE?$AAR?$AAR?$AA_?$AAN?$AAO?$AAT?$AAR?$AAE?$AAG?$AAI?$AAS?$AAT?$AAE?$AAR?$AAE?$AAD@ 00499d74     dxerr8:dxerr8.obj
 0002:00009da0       ??_C@_1CE@PJDJAHJN@?$AAD?$AAP?$AAN?$AAE?$AAR?$AAR?$AA_?$AAP?$AAL?$AAA?$AAY?$AAE?$AAR?$AAL?$AAO?$AAS?$AAT?$AA?$AA@ 00499da0     dxerr8:dxerr8.obj
 0002:00009dc4       ??_C@_1CE@OBDIAGJO@?$AAD?$AAP?$AAN?$AAE?$AAR?$AAR?$AA_?$AAN?$AAO?$AAT?$AAA?$AAL?$AAL?$AAO?$AAW?$AAE?$AAD?$AA?$AA@ 00499dc4     dxerr8:dxerr8.obj
 0002:00009de8       ??_C@_1CI@MFKHJBBO@?$AAD?$AAP?$AAN?$AAE?$AAR?$AAR?$AA_?$AAN?$AAO?$AAC?$AAO?$AAN?$AAN?$AAE?$AAC?$AAT?$AAI?$AAO?$AAN?$AA?$AA@ 00499de8     dxerr8:dxerr8.obj
 0002:00009e10       ??_C@_1CI@BMONHAKJ@?$AAD?$AAP?$AAN?$AAE?$AAR?$AAR?$AA_?$AAN?$AAO?$AAH?$AAO?$AAS?$AAT?$AAP?$AAL?$AAA?$AAY?$AAE?$AAR?$AA?$AA@ 00499e10     dxerr8:dxerr8.obj
 0002:00009e38       ??_C@_1DO@DLBOFMGM@?$AAD?$AAP?$AAN?$AAE?$AAR?$AAR?$AA_?$AAN?$AAO?$AAM?$AAO?$AAR?$AAE?$AAA?$AAD?$AAD?$AAR?$AAE?$AAS?$AAS@ 00499e38     dxerr8:dxerr8.obj
 0002:00009e78       ??_C@_1CE@MIGHCJI@?$AAD?$AAP?$AAN?$AAE?$AAR?$AAR?$AA_?$AAN?$AAO?$AAR?$AAE?$AAS?$AAP?$AAO?$AAN?$AAS?$AAE?$AA?$AA@ 00499e78     dxerr8:dxerr8.obj
 0002:00009e9c       ??_C@_1BM@PKGEIOKE@?$AAD?$AAP?$AAN?$AAE?$AAR?$AAR?$AA_?$AAN?$AAO?$AAC?$AAA?$AAP?$AAS?$AA?$AA@ 00499e9c     dxerr8:dxerr8.obj
 0002:00009eb8       ??_C@_1CK@BAHPDGKC@?$AAD?$AAP?$AAN?$AAE?$AAR?$AAR?$AA_?$AAI?$AAN?$AAV?$AAA?$AAL?$AAI?$AAD?$AAS?$AAT?$AAR?$AAI?$AAN?$AAG@ 00499eb8     dxerr8:dxerr8.obj
 0002:00009ee4       ??_C@_1CE@BNFDPJEN@?$AAD?$AAP?$AAN?$AAE?$AAR?$AAR?$AA_?$AAI?$AAN?$AAV?$AAA?$AAL?$AAI?$AAD?$AAU?$AAR?$AAL?$AA?$AA@ 00499ee4     dxerr8:dxerr8.obj
 0002:00009f08       ??_C@_1CM@HPLOOONK@?$AAD?$AAP?$AAN?$AAE?$AAR?$AAR?$AA_?$AAI?$AAN?$AAV?$AAA?$AAL?$AAI?$AAD?$AAV?$AAE?$AAR?$AAS?$AAI?$AAO@ 00499f08     dxerr8:dxerr8.obj
 0002:00009f34       ??_C@_1CO@EDGFCIL@?$AAD?$AAP?$AAN?$AAE?$AAR?$AAR?$AA_?$AAI?$AAN?$AAV?$AAA?$AAL?$AAI?$AAD?$AAP?$AAR?$AAI?$AAO?$AAR?$AAI@ 00499f34     dxerr8:dxerr8.obj
 0002:00009f64       ??_C@_1DA@IBLPFNMB@?$AAD?$AAP?$AAN?$AAE?$AAR?$AAR?$AA_?$AAI?$AAN?$AAV?$AAA?$AAL?$AAI?$AAD?$AAI?$AAN?$AAT?$AAE?$AAR?$AAF@ 00499f64     dxerr8:dxerr8.obj
 0002:00009f94       ??_C@_1CK@CCPJOMAD@?$AAD?$AAP?$AAN?$AAE?$AAR?$AAR?$AA_?$AAI?$AAN?$AAV?$AAA?$AAL?$AAI?$AAD?$AAO?$AAB?$AAJ?$AAE?$AAC?$AAT@ 00499f94     dxerr8:dxerr8.obj
 0002:00009fc0       ??_C@_1CO@CCCCDAPB@?$AAD?$AAP?$AAN?$AAE?$AAR?$AAR?$AA_?$AAI?$AAN?$AAV?$AAA?$AAL?$AAI?$AAD?$AAP?$AAA?$AAS?$AAS?$AAW?$AAO@ 00499fc0     dxerr8:dxerr8.obj
 0002:00009ff0       ??_C@_1CK@NLCINENF@?$AAD?$AAP?$AAN?$AAE?$AAR?$AAR?$AA_?$AAI?$AAN?$AAV?$AAA?$AAL?$AAI?$AAD?$AAP?$AAL?$AAA?$AAY?$AAE?$AAR@ 00499ff0     dxerr8:dxerr8.obj
 0002:0000a01c       ??_C@_1CO@JINMLNNL@?$AAD?$AAP?$AAN?$AAE?$AAR?$AAR?$AA_?$AAI?$AAN?$AAV?$AAA?$AAL?$AAI?$AAD?$AAI?$AAN?$AAS?$AAT?$AAA?$AAN@ 0049a01c     dxerr8:dxerr8.obj
 0002:0000a04c       ??_C@_1CI@DDPKKLOP@?$AAD?$AAP?$AAN?$AAE?$AAR?$AAR?$AA_?$AAI?$AAN?$AAV?$AAA?$AAL?$AAI?$AAD?$AAF?$AAL?$AAA?$AAG?$AAS?$AA?$AA@ 0049a04c     dxerr8:dxerr8.obj
 0002:0000a074       ??_C@_1CI@NIBJEIJH@?$AAD?$AAP?$AAN?$AAE?$AAR?$AAR?$AA_?$AAI?$AAN?$AAV?$AAA?$AAL?$AAI?$AAD?$AAG?$AAR?$AAO?$AAU?$AAP?$AA?$AA@ 0049a074     dxerr8:dxerr8.obj
 0002:0000a09c       ??_C@_1CK@OMBILGPI@?$AAD?$AAP?$AAN?$AAE?$AAR?$AAR?$AA_?$AAI?$AAN?$AAV?$AAA?$AAL?$AAI?$AAD?$AAH?$AAA?$AAN?$AAD?$AAL?$AAE@ 0049a09c     dxerr8:dxerr8.obj
 0002:0000a0c8       ??_C@_1DE@MICDHBNO@?$AAD?$AAP?$AAN?$AAE?$AAR?$AAR?$AA_?$AAI?$AAN?$AAV?$AAA?$AAL?$AAI?$AAD?$AAH?$AAO?$AAS?$AAT?$AAA?$AAD@ 0049a0c8     dxerr8:dxerr8.obj
 0002:0000a0fc       ??_C@_1CO@MEGLHDIM@?$AAD?$AAP?$AAN?$AAE?$AAR?$AAR?$AA_?$AAI?$AAN?$AAV?$AAA?$AAL?$AAI?$AAD?$AAE?$AAN?$AAD?$AAP?$AAO?$AAI@ 0049a0fc     dxerr8:dxerr8.obj
 0002:0000a12c       ??_C@_1DI@CGEHBPJG@?$AAD?$AAP?$AAN?$AAE?$AAR?$AAR?$AA_?$AAI?$AAN?$AAV?$AAA?$AAL?$AAI?$AAD?$AAA?$AAD?$AAD?$AAR?$AAE?$AAS@ 0049a12c     dxerr8:dxerr8.obj
 0002:0000a164       ??_C@_1DE@HKJGKPKN@?$AAD?$AAP?$AAN?$AAE?$AAR?$AAR?$AA_?$AAI?$AAN?$AAV?$AAA?$AAL?$AAI?$AAD?$AAA?$AAP?$AAP?$AAL?$AAI?$AAC@ 0049a164     dxerr8:dxerr8.obj
 0002:0000a198       ??_C@_1CM@BBIDMGL@?$AAD?$AAP?$AAN?$AAE?$AAR?$AAR?$AA_?$AAI?$AAN?$AAV?$AAA?$AAL?$AAI?$AAD?$AAC?$AAO?$AAM?$AAM?$AAA?$AAN@ 0049a198     dxerr8:dxerr8.obj
 0002:0000a1c4       ??_C@_1DI@BMAPEENB@?$AAD?$AAP?$AAN?$AAE?$AAR?$AAR?$AA_?$AAI?$AAN?$AAV?$AAA?$AAL?$AAI?$AAD?$AAD?$AAE?$AAV?$AAI?$AAC?$AAE@ 0049a1c4     dxerr8:dxerr8.obj
 0002:0000a1fc       ??_C@_1DC@BDKDPNNH@?$AAD?$AAP?$AAN?$AAE?$AAR?$AAR?$AA_?$AAI?$AAN?$AAC?$AAO?$AAM?$AAP?$AAL?$AAE?$AAT?$AAE?$AAA?$AAD?$AAD@ 0049a1fc     dxerr8:dxerr8.obj
 0002:0000a230       ??_C@_1CC@DFNENMEO@?$AAD?$AAP?$AAN?$AAE?$AAR?$AAR?$AA_?$AAE?$AAX?$AAC?$AAE?$AAP?$AAT?$AAI?$AAO?$AAN?$AA?$AA@ 0049a230     dxerr8:dxerr8.obj
 0002:0000a254       ??_C@_1CK@MJDJICIL@?$AAD?$AAP?$AAN?$AAE?$AAR?$AAR?$AA_?$AAG?$AAR?$AAO?$AAU?$AAP?$AAN?$AAO?$AAT?$AAE?$AAM?$AAP?$AAT?$AAY@ 0049a254     dxerr8:dxerr8.obj
 0002:0000a280       ??_C@_1BO@IEBKLINL@?$AAD?$AAP?$AAN?$AAE?$AAR?$AAR?$AA_?$AAH?$AAO?$AAS?$AAT?$AAI?$AAN?$AAG?$AA?$AA@ 0049a280     dxerr8:dxerr8.obj
 0002:0000a2a0       ??_C@_1DM@MHLJBLDL@?$AAD?$AAP?$AAN?$AAE?$AAR?$AAR?$AA_?$AAH?$AAO?$AAS?$AAT?$AAR?$AAE?$AAJ?$AAE?$AAC?$AAT?$AAE?$AAD?$AAC@ 0049a2a0     dxerr8:dxerr8.obj
 0002:0000a2dc       ??_C@_1DK@JPNHGNM@?$AAD?$AAP?$AAN?$AAE?$AAR?$AAR?$AA_?$AAH?$AAO?$AAS?$AAT?$AAT?$AAE?$AAR?$AAM?$AAI?$AAN?$AAA?$AAT?$AAE@ 0049a2dc     dxerr8:dxerr8.obj
 0002:0000a318       ??_C@_1DI@BKKOGINH@?$AAD?$AAP?$AAN?$AAE?$AAR?$AAR?$AA_?$AAE?$AAN?$AAU?$AAM?$AAR?$AAE?$AAS?$AAP?$AAO?$AAN?$AAS?$AAE?$AAT@ 0049a318     dxerr8:dxerr8.obj
 0002:0000a350       ??_C@_1CE@OFPAMIPN@?$AAD?$AAP?$AAN?$AAE?$AAR?$AAR?$AA_?$AAC?$AAO?$AAN?$AAV?$AAE?$AAR?$AAS?$AAI?$AAO?$AAN?$AA?$AA@ 0049a350     dxerr8:dxerr8.obj
 0002:0000a374       ??_C@_1CI@NLMLIJBE@?$AAD?$AAP?$AAN?$AAE?$AAR?$AAR?$AA_?$AAD?$AAA?$AAT?$AAA?$AAT?$AAO?$AAO?$AAL?$AAA?$AAR?$AAG?$AAE?$AA?$AA@ 0049a374     dxerr8:dxerr8.obj
 0002:0000a39c       ??_C@_1CI@CPKBEHHN@?$AAD?$AAP?$AAN?$AAE?$AAR?$AAR?$AA_?$AAD?$AAO?$AAE?$AAS?$AAN?$AAO?$AAT?$AAE?$AAX?$AAI?$AAS?$AAT?$AA?$AA@ 0049a39c     dxerr8:dxerr8.obj
 0002:0000a3c4       ??_C@_1DA@BBFLDGAC@?$AAD?$AAP?$AAN?$AAE?$AAR?$AAR?$AA_?$AAD?$AAU?$AAP?$AAL?$AAI?$AAC?$AAA?$AAT?$AAE?$AAC?$AAO?$AAM?$AAM@ 0049a3c4     dxerr8:dxerr8.obj
 0002:0000a3f4       ??_C@_1DI@CELKGHOG@?$AAD?$AAP?$AAN?$AAE?$AAR?$AAR?$AA_?$AAE?$AAN?$AAD?$AAP?$AAO?$AAI?$AAN?$AAT?$AAN?$AAO?$AAT?$AAR?$AAE@ 0049a3f4     dxerr8:dxerr8.obj
 0002:0000a42c       ??_C@_1DC@HMOIGGMO@?$AAD?$AAP?$AAN?$AAE?$AAR?$AAR?$AA_?$AAE?$AAN?$AAU?$AAM?$AAQ?$AAU?$AAE?$AAR?$AAY?$AAT?$AAO?$AAO?$AAL@ 0049a42c     dxerr8:dxerr8.obj
 0002:0000a460       ??_C@_1CM@BNJNINIG@?$AAD?$AAP?$AAN?$AAE?$AAR?$AAR?$AA_?$AAC?$AAO?$AAN?$AAN?$AAE?$AAC?$AAT?$AAI?$AAO?$AAN?$AAL?$AAO?$AAS@ 0049a460     dxerr8:dxerr8.obj
 0002:0000a48c       ??_C@_1CI@OLHLAJPN@?$AAD?$AAP?$AAN?$AAE?$AAR?$AAR?$AA_?$AAC?$AAA?$AAN?$AAN?$AAO?$AAT?$AAC?$AAA?$AAN?$AAC?$AAE?$AAL?$AA?$AA@ 0049a48c     dxerr8:dxerr8.obj
 0002:0000a4b4       ??_C@_1CO@ECIEIOBC@?$AAD?$AAP?$AAN?$AAE?$AAR?$AAR?$AA_?$AAC?$AAA?$AAN?$AAT?$AAC?$AAR?$AAE?$AAA?$AAT?$AAE?$AAG?$AAR?$AAO@ 0049a4b4     dxerr8:dxerr8.obj
 0002:0000a4e4       ??_C@_1DA@OPNLEFMD@?$AAD?$AAP?$AAN?$AAE?$AAR?$AAR?$AA_?$AAC?$AAA?$AAN?$AAT?$AAC?$AAR?$AAE?$AAA?$AAT?$AAE?$AAP?$AAL?$AAA@ 0049a4e4     dxerr8:dxerr8.obj
 0002:0000a514       ??_C@_1DK@NDNLAEIP@?$AAD?$AAP?$AAN?$AAE?$AAR?$AAR?$AA_?$AAC?$AAA?$AAN?$AAT?$AAL?$AAA?$AAU?$AAN?$AAC?$AAH?$AAA?$AAP?$AAP@ 0049a514     dxerr8:dxerr8.obj
 0002:0000a550       ??_C@_1CE@LDPBEPOJ@?$AAD?$AAP?$AAN?$AAE?$AAR?$AAR?$AA_?$AAC?$AAO?$AAN?$AAN?$AAE?$AAC?$AAT?$AAI?$AAN?$AAG?$AA?$AA@ 0049a550     dxerr8:dxerr8.obj
 0002:0000a574       ??_C@_1CM@GKKABPCJ@?$AAD?$AAP?$AAN?$AAE?$AAR?$AAR?$AA_?$AAB?$AAU?$AAF?$AAF?$AAE?$AAR?$AAT?$AAO?$AAO?$AAS?$AAM?$AAA?$AAL@ 0049a574     dxerr8:dxerr8.obj
 0002:0000a5a0       ??_C@_1CE@BCJHMDEN@?$AAD?$AAP?$AAN?$AAE?$AAR?$AAR?$AA_?$AAA?$AAD?$AAD?$AAR?$AAE?$AAS?$AAS?$AAI?$AAN?$AAG?$AA?$AA@ 0049a5a0     dxerr8:dxerr8.obj
 0002:0000a5c4       ??_C@_1CM@IIGJCKAL@?$AAD?$AAP?$AAN?$AAE?$AAR?$AAR?$AA_?$AAA?$AAL?$AAR?$AAE?$AAA?$AAD?$AAY?$AAC?$AAL?$AAO?$AAS?$AAI?$AAN@ 0049a5c4     dxerr8:dxerr8.obj
 0002:0000a5f0       ??_C@_1DA@GJACDLED@?$AAD?$AAP?$AAN?$AAE?$AAR?$AAR?$AA_?$AAA?$AAL?$AAR?$AAE?$AAA?$AAD?$AAY?$AAC?$AAO?$AAN?$AAN?$AAE?$AAC@ 0049a5f0     dxerr8:dxerr8.obj
 0002:0000a620       ??_C@_1DI@CPMKDBMM@?$AAD?$AAP?$AAN?$AAE?$AAR?$AAR?$AA_?$AAA?$AAL?$AAR?$AAE?$AAA?$AAD?$AAY?$AAD?$AAI?$AAS?$AAC?$AAO?$AAN@ 0049a620     dxerr8:dxerr8.obj
 0002:0000a658       ??_C@_1DE@BCANPGOM@?$AAD?$AAP?$AAN?$AAE?$AAR?$AAR?$AA_?$AAA?$AAL?$AAR?$AAE?$AAA?$AAD?$AAY?$AAI?$AAN?$AAI?$AAT?$AAI?$AAA@ 0049a658     dxerr8:dxerr8.obj
 0002:0000a68c       ??_C@_1DC@BKHEPEF@?$AAD?$AAP?$AAN?$AAE?$AAR?$AAR?$AA_?$AAA?$AAL?$AAR?$AAE?$AAA?$AAD?$AAY?$AAR?$AAE?$AAG?$AAI?$AAS?$AAT@ 0049a68c     dxerr8:dxerr8.obj
 0002:0000a6c0       ??_C@_1BO@HFFLGNLD@?$AAD?$AAP?$AAN?$AAE?$AAR?$AAR?$AA_?$AAA?$AAB?$AAO?$AAR?$AAT?$AAE?$AAD?$AA?$AA@ 0049a6c0     dxerr8:dxerr8.obj
 0002:0000a6e0       ??_C@_1CG@OLKKKJHN@?$AAD?$AAV?$AAE?$AAR?$AAR?$AA_?$AAL?$AAO?$AAC?$AAK?$AAE?$AAD?$AAB?$AAU?$AAF?$AAF?$AAE?$AAR?$AA?$AA@ 0049a6e0     dxerr8:dxerr8.obj
 0002:0000a708       ??_C@_1CI@EJICDNE@?$AAD?$AAV?$AAE?$AAR?$AAR?$AA_?$AAI?$AAN?$AAV?$AAA?$AAL?$AAI?$AAD?$AAB?$AAU?$AAF?$AAF?$AAE?$AAR?$AA?$AA@ 0049a708     dxerr8:dxerr8.obj
 0002:0000a730       ??_C@_1DA@JDAOPCNL@?$AAD?$AAV?$AAE?$AAR?$AAR?$AA_?$AAN?$AAO?$AAR?$AAE?$AAC?$AAV?$AAO?$AAL?$AAA?$AAV?$AAA?$AAI?$AAL?$AAA@ 0049a730     dxerr8:dxerr8.obj
 0002:0000a760       ??_C@_1BO@DGAMDIBC@?$AAD?$AAV?$AAE?$AAR?$AAR?$AA_?$AAU?$AAS?$AAE?$AAR?$AAB?$AAA?$AAC?$AAK?$AA?$AA@ 0049a760     dxerr8:dxerr8.obj
 0002:0000a780       ??_C@_1DA@KALMMFKL@?$AAD?$AAV?$AAE?$AAR?$AAR?$AA_?$AAT?$AAR?$AAA?$AAN?$AAS?$AAP?$AAO?$AAR?$AAT?$AAN?$AAO?$AAP?$AAL?$AAA@ 0049a780     dxerr8:dxerr8.obj
 0002:0000a7b0       ??_C@_1DC@EFEOHALN@?$AAD?$AAV?$AAE?$AAR?$AAR?$AA_?$AAT?$AAR?$AAA?$AAN?$AAS?$AAP?$AAO?$AAR?$AAT?$AAN?$AAO?$AAS?$AAE?$AAS@ 0049a7b0     dxerr8:dxerr8.obj
 0002:0000a7e4       ??_C@_1CO@BOAPDCBP@?$AAD?$AAV?$AAE?$AAR?$AAR?$AA_?$AAT?$AAR?$AAA?$AAN?$AAS?$AAP?$AAO?$AAR?$AAT?$AAN?$AAO?$AAT?$AAI?$AAN@ 0049a7e4     dxerr8:dxerr8.obj
 0002:0000a814       ??_C@_1CC@IGCHBEOJ@?$AAD?$AAV?$AAE?$AAR?$AAR?$AA_?$AAN?$AAO?$AAC?$AAA?$AAL?$AAL?$AAB?$AAA?$AAC?$AAK?$AA?$AA@ 0049a814     dxerr8:dxerr8.obj
 0002:0000a838       ??_C@_1CE@NACNIFGL@?$AAD?$AAV?$AAE?$AAR?$AAR?$AA_?$AAN?$AAO?$AAT?$AAR?$AAA?$AAN?$AAS?$AAP?$AAO?$AAR?$AAT?$AA?$AA@ 0049a838     dxerr8:dxerr8.obj
 0002:0000a85c       ??_C@_1CE@FENHGODE@?$AAD?$AAV?$AAE?$AAR?$AAR?$AA_?$AAI?$AAN?$AAI?$AAT?$AAI?$AAA?$AAL?$AAI?$AAZ?$AAE?$AAD?$AA?$AA@ 0049a85c     dxerr8:dxerr8.obj
 0002:0000a880       ??_C@_1DE@FPBODOBO@?$AAD?$AAV?$AAE?$AAR?$AAR?$AA_?$AAI?$AAN?$AAC?$AAO?$AAM?$AAP?$AAA?$AAT?$AAI?$AAB?$AAL?$AAE?$AAV?$AAE@ 0049a880     dxerr8:dxerr8.obj
 0002:0000a8b4       ??_C@_1BO@NEDODJDO@?$AAD?$AAV?$AAE?$AAR?$AAR?$AA_?$AAR?$AAU?$AAN?$AAS?$AAE?$AAT?$AAU?$AAP?$AA?$AA@ 0049a8b4     dxerr8:dxerr8.obj
 0002:0000a8d4       ??_C@_1CC@IGCEPMIA@?$AAD?$AAV?$AAE?$AAR?$AAR?$AA_?$AAU?$AAS?$AAE?$AAR?$AAC?$AAA?$AAN?$AAC?$AAE?$AAL?$AA?$AA@ 0049a8d4     dxerr8:dxerr8.obj
 0002:0000a8f8       ??_C@_1CA@MCCELIIA@?$AAD?$AAV?$AAE?$AAR?$AAR?$AA_?$AAS?$AAE?$AAN?$AAD?$AAE?$AAR?$AAR?$AAO?$AAR?$AA?$AA@ 0049a8f8     dxerr8:dxerr8.obj
 0002:0000a918       ??_C@_1DE@NCIIMMIP@?$AAD?$AAV?$AAE?$AAR?$AAR?$AA_?$AAP?$AAL?$AAA?$AAY?$AAB?$AAA?$AAC?$AAK?$AAS?$AAY?$AAS?$AAT?$AAE?$AAM@ 0049a918     dxerr8:dxerr8.obj
 0002:0000a94c       ??_C@_1DA@CHJAOCBJ@?$AAD?$AAV?$AAE?$AAR?$AAR?$AA_?$AAR?$AAE?$AAC?$AAO?$AAR?$AAD?$AAS?$AAY?$AAS?$AAT?$AAE?$AAM?$AAE?$AAR@ 0049a94c     dxerr8:dxerr8.obj
 0002:0000a97c       ??_C@_1CI@BFFLJKOB@?$AAD?$AAV?$AAE?$AAR?$AAR?$AA_?$AAI?$AAN?$AAV?$AAA?$AAL?$AAI?$AAD?$AAD?$AAE?$AAV?$AAI?$AAC?$AAE?$AA?$AA@ 0049a97c     dxerr8:dxerr8.obj
 0002:0000a9a4       ??_C@_1CC@JJCBFNGB@?$AAD?$AAV?$AAE?$AAR?$AAR?$AA_?$AAN?$AAO?$AAT?$AAH?$AAO?$AAS?$AAT?$AAI?$AAN?$AAG?$AA?$AA@ 0049a9a4     dxerr8:dxerr8.obj
 0002:0000a9c8       ??_C@_1BM@PNPNIIO@?$AAD?$AAV?$AAE?$AAR?$AAR?$AA_?$AAH?$AAO?$AAS?$AAT?$AAI?$AAN?$AAG?$AA?$AA@ 0049a9c8     dxerr8:dxerr8.obj
 0002:0000a9e4       ??_C@_1CE@DIJCEFK@?$AAD?$AAV?$AAE?$AAR?$AAR?$AA_?$AAN?$AAO?$AAT?$AAB?$AAU?$AAF?$AAF?$AAE?$AAR?$AAE?$AAD?$AA?$AA@ 0049a9e4     dxerr8:dxerr8.obj
 0002:0000aa08       ??_C@_1CM@EPMOGNKJ@?$AAD?$AAV?$AAE?$AAR?$AAR?$AA_?$AAA?$AAL?$AAR?$AAE?$AAA?$AAD?$AAY?$AAB?$AAU?$AAF?$AAF?$AAE?$AAR?$AAE@ 0049aa08     dxerr8:dxerr8.obj
 0002:0000aa34       ??_C@_1CA@NFIELBHM@?$AAD?$AAV?$AAE?$AAR?$AAR?$AA_?$AAN?$AAO?$AA3?$AAD?$AAS?$AAO?$AAU?$AAN?$AAD?$AA?$AA@ 0049aa34     dxerr8:dxerr8.obj
 0002:0000aa54       ??_C@_1CK@OOGNGGLH@?$AAD?$AAV?$AAE?$AAR?$AAR?$AA_?$AAC?$AAO?$AAN?$AAN?$AAE?$AAC?$AAT?$AAA?$AAB?$AAO?$AAR?$AAT?$AAE?$AAD@ 0049aa54     dxerr8:dxerr8.obj
 0002:0000aa80       ??_C@_1BM@HGIPKJPE@?$AAD?$AAV?$AAE?$AAR?$AAR?$AA_?$AAT?$AAI?$AAM?$AAE?$AAO?$AAU?$AAT?$AA?$AA@ 0049aa80     dxerr8:dxerr8.obj
 0002:0000aa9c       ??_C@_1CO@OJMPCAKD@?$AAD?$AAV?$AAE?$AAR?$AAR?$AA_?$AAS?$AAO?$AAU?$AAN?$AAD?$AAI?$AAN?$AAI?$AAT?$AAF?$AAA?$AAI?$AAL?$AAU@ 0049aa9c     dxerr8:dxerr8.obj
 0002:0000aacc       ??_C@_1CK@IGJLOLKM@?$AAD?$AAV?$AAE?$AAR?$AAR?$AA_?$AAA?$AAL?$AAR?$AAE?$AAA?$AAD?$AAY?$AAP?$AAE?$AAN?$AAD?$AAI?$AAN?$AAG@ 0049aacc     dxerr8:dxerr8.obj
 0002:0000aaf8       ??_C@_1DM@HKEOEIHO@?$AAD?$AAV?$AAE?$AAR?$AAR?$AA_?$AAC?$AAO?$AAM?$AAP?$AAR?$AAE?$AAS?$AAS?$AAI?$AAO?$AAN?$AAN?$AAO?$AAT@ 0049aaf8     dxerr8:dxerr8.obj
 0002:0000ab34       ??_C@_1CO@JPCKHIEC@?$AAD?$AAV?$AAE?$AAR?$AAR?$AA_?$AAT?$AAR?$AAA?$AAN?$AAS?$AAP?$AAO?$AAR?$AAT?$AAN?$AAO?$AAT?$AAH?$AAO@ 0049ab34     dxerr8:dxerr8.obj
 0002:0000ab64       ??_C@_1CI@FCHCPMFN@?$AAD?$AAV?$AAE?$AAR?$AAR?$AA_?$AAI?$AAN?$AAV?$AAA?$AAL?$AAI?$AAD?$AAT?$AAA?$AAR?$AAG?$AAE?$AAT?$AA?$AA@ 0049ab64     dxerr8:dxerr8.obj
 0002:0000ab8c       ??_C@_1CC@IILKACMC@?$AAD?$AAV?$AAE?$AAR?$AAR?$AA_?$AAN?$AAO?$AAT?$AAA?$AAL?$AAL?$AAO?$AAW?$AAE?$AAD?$AA?$AA@ 0049ab8c     dxerr8:dxerr8.obj
 0002:0000abb0       ??_C@_1CA@DILKMEMF@?$AAD?$AAV?$AAE?$AAR?$AAR?$AA_?$AAC?$AAO?$AAN?$AAN?$AAE?$AAC?$AAT?$AAE?$AAD?$AA?$AA@ 0049abb0     dxerr8:dxerr8.obj
 0002:0000abd0       ??_C@_1CG@MCALLGIC@?$AAD?$AAV?$AAE?$AAR?$AAR?$AA_?$AAN?$AAO?$AAT?$AAC?$AAO?$AAN?$AAN?$AAE?$AAC?$AAT?$AAE?$AAD?$AA?$AA@ 0049abd0     dxerr8:dxerr8.obj
 0002:0000abf8       ??_C@_1CM@PPKCEENC@?$AAD?$AAV?$AAE?$AAR?$AAR?$AA_?$AAC?$AAO?$AAN?$AAN?$AAE?$AAC?$AAT?$AAA?$AAB?$AAO?$AAR?$AAT?$AAI?$AAN@ 0049abf8     dxerr8:dxerr8.obj
 0002:0000ac24       ??_C@_1CK@KFNHDGHF@?$AAD?$AAV?$AAE?$AAR?$AAR?$AA_?$AAN?$AAO?$AAT?$AAI?$AAN?$AAI?$AAT?$AAI?$AAA?$AAL?$AAI?$AAZ?$AAE?$AAD@ 0049ac24     dxerr8:dxerr8.obj
 0002:0000ac50       ??_C@_1CI@GCICFGKL@?$AAD?$AAV?$AAE?$AAR?$AAR?$AA_?$AAI?$AAN?$AAV?$AAA?$AAL?$AAI?$AAD?$AAH?$AAA?$AAN?$AAD?$AAL?$AAE?$AA?$AA@ 0049ac50     dxerr8:dxerr8.obj
 0002:0000ac78       ??_C@_1CE@IGAIOCIK@?$AAD?$AAV?$AAE?$AAR?$AAR?$AA_?$AAS?$AAE?$AAS?$AAS?$AAI?$AAO?$AAN?$AAL?$AAO?$AAS?$AAT?$AA?$AA@ 0049ac78     dxerr8:dxerr8.obj
 0002:0000ac9c       ??_C@_1CK@IKLHMGAC@?$AAD?$AAV?$AAE?$AAR?$AAR?$AA_?$AAN?$AAO?$AAV?$AAO?$AAI?$AAC?$AAE?$AAS?$AAE?$AAS?$AAS?$AAI?$AAO?$AAN@ 0049ac9c     dxerr8:dxerr8.obj
 0002:0000acc8       ??_C@_1CK@CMABOPPD@?$AAD?$AAV?$AAE?$AAR?$AAR?$AA_?$AAC?$AAO?$AAN?$AAN?$AAE?$AAC?$AAT?$AAI?$AAO?$AAN?$AAL?$AAO?$AAS?$AAT@ 0049acc8     dxerr8:dxerr8.obj
 0002:0000acf4       ??_C@_1CG@GDBAHDGE@?$AAD?$AAV?$AAE?$AAR?$AAR?$AA_?$AAI?$AAN?$AAV?$AAA?$AAL?$AAI?$AAD?$AAG?$AAR?$AAO?$AAU?$AAP?$AA?$AA@ 0049acf4     dxerr8:dxerr8.obj
 0002:0000ad1c       ??_C@_1CA@ENDHJBFN@?$AAD?$AAV?$AAE?$AAR?$AAR?$AA_?$AAE?$AAX?$AAC?$AAE?$AAP?$AAT?$AAI?$AAO?$AAN?$AA?$AA@ 0049ad1c     dxerr8:dxerr8.obj
 0002:0000ad3c       ??_C@_1CG@IIPDJABM@?$AAD?$AAV?$AAE?$AAR?$AAR?$AA_?$AAI?$AAN?$AAV?$AAA?$AAL?$AAI?$AAD?$AAF?$AAL?$AAA?$AAG?$AAS?$AA?$AA@ 0049ad3c     dxerr8:dxerr8.obj
 0002:0000ad64       ??_C@_1CI@KMGDAMFA@?$AAD?$AAV?$AAE?$AAR?$AAR?$AA_?$AAI?$AAN?$AAV?$AAA?$AAL?$AAI?$AAD?$AAO?$AAB?$AAJ?$AAE?$AAC?$AAT?$AA?$AA@ 0049ad64     dxerr8:dxerr8.obj
 0002:0000ad8c       ??_C@_1CI@FFLCDEIG@?$AAD?$AAV?$AAE?$AAR?$AAR?$AA_?$AAI?$AAN?$AAV?$AAA?$AAL?$AAI?$AAD?$AAP?$AAL?$AAA?$AAY?$AAE?$AAR?$AA?$AA@ 0049ad8c     dxerr8:dxerr8.obj
 0002:0000adb4       ??_C@_1CK@FLDMHNFM@?$AAD?$AAV?$AAE?$AAR?$AAR?$AA_?$AAB?$AAU?$AAF?$AAF?$AAE?$AAR?$AAT?$AAO?$AAO?$AAS?$AAM?$AAA?$AAL?$AAL@ 0049adb4     dxerr8:dxerr8.obj
 0002:0000ade0       ??_C@_1DK@CDFEJCAJ@?$AAD?$AAI?$AAE?$AAR?$AAR?$AA_?$AAB?$AAE?$AAT?$AAA?$AAD?$AAI?$AAR?$AAE?$AAC?$AAT?$AAI?$AAN?$AAP?$AAU@ 0049ade0     dxerr8:dxerr8.obj
 0002:0000ae1c       ??_C@_1CM@JHADGLID@?$AAE?$AA_?$AAP?$AAR?$AAO?$AAP?$AA_?$AAI?$AAD?$AA_?$AAU?$AAN?$AAS?$AAU?$AAP?$AAP?$AAO?$AAR?$AAT?$AAE@ 0049ae1c     dxerr8:dxerr8.obj
 0002:0000ae48       ??_C@_1CO@HBBMGNEK@?$AAE?$AA_?$AAP?$AAR?$AAO?$AAP?$AA_?$AAS?$AAE?$AAT?$AA_?$AAU?$AAN?$AAS?$AAU?$AAP?$AAP?$AAO?$AAR?$AAT@ 0049ae48     dxerr8:dxerr8.obj
 0002:0000ae78       ??_C@_1DC@PHGGFECN@?$AAD?$AAI?$AAE?$AAR?$AAR?$AA_?$AAA?$AAL?$AAR?$AAE?$AAA?$AAD?$AAY?$AAI?$AAN?$AAI?$AAT?$AAI?$AAA?$AAL@ 0049ae78     dxerr8:dxerr8.obj
 0002:0000aeac       ??_C@_1DI@GEFHFIAN@?$AAD?$AAI?$AAE?$AAR?$AAR?$AA_?$AAO?$AAL?$AAD?$AAD?$AAI?$AAR?$AAE?$AAC?$AAT?$AAI?$AAN?$AAP?$AAU?$AAT@ 0049aeac     dxerr8:dxerr8.obj
 0002:0000aee4       ??_C@_1BK@ECOGKCGK@?$AAE?$AA_?$AAI?$AAN?$AAV?$AAA?$AAL?$AAI?$AAD?$AAA?$AAR?$AAG?$AA?$AA@ 0049aee4     dxerr8:dxerr8.obj
 0002:0000af00       ??_C@_1CG@NAEFNDPD@?$AAD?$AAI?$AAE?$AAR?$AAR?$AA_?$AAB?$AAA?$AAD?$AAD?$AAR?$AAI?$AAV?$AAE?$AAR?$AAV?$AAE?$AAR?$AA?$AA@ 0049af00     dxerr8:dxerr8.obj
 0002:0000af28       ??_C@_1BO@GILBCDHF@?$AAD?$AAI?$AAE?$AAR?$AAR?$AA_?$AAA?$AAC?$AAQ?$AAU?$AAI?$AAR?$AAE?$AAD?$AA?$AA@ 0049af28     dxerr8:dxerr8.obj
 0002:0000af48       ??_C@_1CE@KBIBPBMA@?$AAD?$AAI?$AAE?$AAR?$AAR?$AA_?$AAN?$AAO?$AAM?$AAO?$AAR?$AAE?$AAI?$AAT?$AAE?$AAM?$AAS?$AA?$AA@ 0049af48     dxerr8:dxerr8.obj
 0002:0000af6c       ??_C@_1CA@FAJLPHOP@?$AAD?$AAI?$AAE?$AAR?$AAR?$AA_?$AAI?$AAN?$AAP?$AAU?$AAT?$AAL?$AAO?$AAS?$AAT?$AA?$AA@ 0049af6c     dxerr8:dxerr8.obj
 0002:0000af8c       ??_C@_1BO@HHLADGEB@?$AAE?$AA_?$AAA?$AAC?$AAC?$AAE?$AAS?$AAS?$AAD?$AAE?$AAN?$AAI?$AAE?$AAD?$AA?$AA@ 0049af8c     dxerr8:dxerr8.obj
 0002:0000afac       ??_C@_1BC@KAPCAFCP@?$AAE?$AA_?$AAH?$AAA?$AAN?$AAD?$AAL?$AAE?$AA?$AA@ 0049afac     dxerr8:dxerr8.obj
 0002:0000afc0       ??_C@_1CE@BLCGMGLM@?$AAD?$AAI?$AAE?$AAR?$AAR?$AA_?$AAN?$AAO?$AAT?$AAA?$AAC?$AAQ?$AAU?$AAI?$AAR?$AAE?$AAD?$AA?$AA@ 0049afc0     dxerr8:dxerr8.obj
 0002:0000afe4       ??_C@_1BM@IDPOJKHH@?$AAE?$AA_?$AAO?$AAU?$AAT?$AAO?$AAF?$AAM?$AAE?$AAM?$AAO?$AAR?$AAY?$AA?$AA@ 0049afe4     dxerr8:dxerr8.obj
 0002:0000b000       ??_C@_1CK@NBHOEHCD@?$AAD?$AAI?$AAE?$AAR?$AAR?$AA_?$AAN?$AAO?$AAT?$AAI?$AAN?$AAI?$AAT?$AAI?$AAA?$AAL?$AAI?$AAZ?$AAE?$AAD@ 0049b000     dxerr8:dxerr8.obj
 0002:0000b02c       ??_C@_1BO@KLNFIMCJ@?$AAD?$AAI?$AAE?$AAR?$AAR?$AA_?$AAN?$AAO?$AAT?$AAF?$AAO?$AAU?$AAN?$AAD?$AA?$AA@ 0049b02c     dxerr8:dxerr8.obj
 0002:0000b04c       ??_C@_1CC@FGDKKJOO@?$AAD?$AAI?$AAE?$AAR?$AAR?$AA_?$AAD?$AAR?$AAI?$AAV?$AAE?$AAR?$AAL?$AAA?$AAS?$AAT?$AA?$AA@ 0049b04c     dxerr8:dxerr8.obj
 0002:0000b070       ??_C@_1DI@KCGKCFMC@?$AAD?$AAI?$AAE?$AAR?$AAR?$AA_?$AAI?$AAN?$AAV?$AAA?$AAL?$AAI?$AAD?$AAC?$AAL?$AAA?$AAS?$AAS?$AAI?$AAN@ 0049b070     dxerr8:dxerr8.obj
 0002:0000b0a8       ??_C@_1CA@DFIAFMDP@?$AAD?$AAI?$AAE?$AAR?$AAR?$AA_?$AAC?$AAA?$AAN?$AAC?$AAE?$AAL?$AAL?$AAE?$AAD?$AA?$AA@ 0049b0a8     dxerr8:dxerr8.obj
 0002:0000b0c8       ??_C@_1BK@KDGIIICD@?$AAD?$AAI?$AAE?$AAR?$AAR?$AA_?$AAB?$AAA?$AAD?$AAI?$AAN?$AAF?$AA?$AA@ 0049b0c8     dxerr8:dxerr8.obj
 0002:0000b0e4       ??_C@_1BM@MPMNAAGC@?$AAV?$AAF?$AAW?$AA_?$AAE?$AA_?$AAB?$AAA?$AAD?$AA_?$AAK?$AAE?$AAY?$AA?$AA@ 0049b0e4     dxerr8:dxerr8.obj
 0002:0000b100       ??_C@_1CI@OMNNKJND@?$AAD?$AAI?$AAE?$AAR?$AAR?$AA_?$AAD?$AAR?$AAI?$AAV?$AAE?$AAR?$AAF?$AAI?$AAR?$AAS?$AAT?$AA?$CL?$AA1?$AA?$AA@ 0049b100     dxerr8:dxerr8.obj
 0002:0000b128       ??_C@_1CI@POGIAGDN@?$AAD?$AAI?$AAE?$AAR?$AAR?$AA_?$AAD?$AAR?$AAI?$AAV?$AAE?$AAR?$AAF?$AAI?$AAR?$AAS?$AAT?$AA?$CL?$AA2?$AA?$AA@ 0049b128     dxerr8:dxerr8.obj
 0002:0000b150       ??_C@_1CI@EGNEGBFI@?$AAD?$AAI?$AAE?$AAR?$AAR?$AA_?$AAD?$AAR?$AAI?$AAV?$AAE?$AAR?$AAF?$AAI?$AAR?$AAS?$AAT?$AA?$CL?$AA3?$AA?$AA@ 0049b150     dxerr8:dxerr8.obj
 0002:0000b178       ??_C@_1CI@NLADFJOB@?$AAD?$AAI?$AAE?$AAR?$AAR?$AA_?$AAD?$AAR?$AAI?$AAV?$AAE?$AAR?$AAF?$AAI?$AAR?$AAS?$AAT?$AA?$CL?$AA4?$AA?$AA@ 0049b178     dxerr8:dxerr8.obj
 0002:0000b1a0       ??_C@_1CI@GDLPDOIE@?$AAD?$AAI?$AAE?$AAR?$AAR?$AA_?$AAD?$AAR?$AAI?$AAV?$AAE?$AAR?$AAF?$AAI?$AAR?$AAS?$AAT?$AA?$CL?$AA5?$AA?$AA@ 0049b1a0     dxerr8:dxerr8.obj
 0002:0000b1c8       ??_C@_1CE@DNHJDFC@?$AAD?$AAI?$AAE?$AAR?$AAR?$AA_?$AAD?$AAR?$AAI?$AAV?$AAE?$AAR?$AAF?$AAI?$AAR?$AAS?$AAT?$AA?$AA@ 0049b1c8     dxerr8:dxerr8.obj
 0002:0000b1ec       ??_C@_1DI@JKNFMFEE@?$AAV?$AAF?$AAW?$AA_?$AAE?$AA_?$AAC?$AAE?$AAR?$AAT?$AAI?$AAF?$AAI?$AAC?$AAA?$AAT?$AAI?$AAO?$AAN?$AA_@ 0049b1ec     dxerr8:dxerr8.obj
 0002:0000b224       ??_C@_1DE@NGINHHJA@?$AAV?$AAF?$AAW?$AA_?$AAE?$AA_?$AAP?$AAI?$AAN?$AA_?$AAA?$AAL?$AAR?$AAE?$AAA?$AAD?$AAY?$AA_?$AAB?$AAL@ 0049b224     dxerr8:dxerr8.obj
 0002:0000b258       ??_C@_1FC@JPIGJOD@?$AAV?$AAF?$AAW?$AA_?$AAE?$AA_?$AAP?$AAI?$AAN?$AA_?$AAA?$AAL?$AAR?$AAE?$AAA?$AAD?$AAY?$AA_?$AAB?$AAL@ 0049b258     dxerr8:dxerr8.obj
 0002:0000b2b0       ??_C@_1EA@MBNDBLAM@?$AAV?$AAF?$AAW?$AA_?$AAE?$AA_?$AAD?$AAV?$AAD?$AA_?$AAN?$AAO?$AA_?$AAR?$AAE?$AAS?$AAU?$AAM?$AAE?$AA_@ 0049b2b0     dxerr8:dxerr8.obj
 0002:0000b2f0       ??_C@_1CO@MFAMMKLB@?$AAV?$AAF?$AAW?$AA_?$AAE?$AA_?$AAD?$AAV?$AAD?$AA_?$AAI?$AAN?$AAV?$AAA?$AAL?$AAI?$AAD?$AA_?$AAD?$AAI@ 0049b2f0     dxerr8:dxerr8.obj
 0002:0000b320       ??_C@_1DA@FHIOJHHA@?$AAV?$AAF?$AAW?$AA_?$AAE?$AA_?$AAD?$AAV?$AAD?$AA_?$AAT?$AAI?$AAT?$AAL?$AAE?$AA_?$AAU?$AAN?$AAK?$AAN@ 0049b320     dxerr8:dxerr8.obj
 0002:0000b350       ??_C@_1DE@JFKBHOKB@?$AAV?$AAF?$AAW?$AA_?$AAE?$AA_?$AAD?$AAV?$AAD?$AA_?$AAS?$AAT?$AAR?$AAE?$AAA?$AAM?$AA_?$AAD?$AAI?$AAS@ 0049b350     dxerr8:dxerr8.obj
 0002:0000b384       ??_C@_1DK@CPKLOEFM@?$AAV?$AAF?$AAW?$AA_?$AAE?$AA_?$AAF?$AAR?$AAA?$AAM?$AAE?$AA_?$AAS?$AAT?$AAE?$AAP?$AA_?$AAU?$AAN?$AAS@ 0049b384     dxerr8:dxerr8.obj
 0002:0000b3c0       ??_C@_1DM@MKDFGCGI@?$AAV?$AAF?$AAW?$AA_?$AAE?$AA_?$AAD?$AAV?$AAD?$AA_?$AAN?$AAO?$AAT?$AA_?$AAI?$AAN?$AA_?$AAK?$AAA?$AAR@ 0049b3c0     dxerr8:dxerr8.obj
 0002:0000b3fc       ??_C@_1DK@IEOMJNLM@?$AAV?$AAF?$AAW?$AA_?$AAE?$AA_?$AAD?$AAV?$AAD?$AA_?$AAL?$AAO?$AAW?$AA_?$AAP?$AAA?$AAR?$AAE?$AAN?$AAT@ 0049b3fc     dxerr8:dxerr8.obj
 0002:0000b438       ??_C@_1CM@GEPFFNDB@?$AAV?$AAF?$AAW?$AA_?$AAE?$AA_?$AAD?$AAV?$AAD?$AA_?$AAN?$AAO?$AA_?$AAG?$AAO?$AAU?$AAP?$AA_?$AAP?$AAG@ 0049b438     dxerr8:dxerr8.obj
 0002:0000b464       ??_C@_1DA@GKALDNAM@?$AAV?$AAF?$AAW?$AA_?$AAE?$AA_?$AAD?$AAV?$AAD?$AA_?$AAN?$AAO?$AA_?$AAA?$AAT?$AAT?$AAR?$AAI?$AAB?$AAU@ 0049b464     dxerr8:dxerr8.obj
 0002:0000b494       ??_C@_1DM@MFICMGLP@?$AAV?$AAF?$AAW?$AA_?$AAE?$AA_?$AAD?$AAV?$AAD?$AA_?$AAI?$AAN?$AAC?$AAO?$AAM?$AAP?$AAA?$AAT?$AAI?$AAB@ 0049b494     dxerr8:dxerr8.obj
 0002:0000b4d0       ??_C@_1DG@CHAKLDFE@?$AAV?$AAF?$AAW?$AA_?$AAE?$AA_?$AAD?$AAV?$AAD?$AA_?$AAS?$AAT?$AAA?$AAT?$AAE?$AA_?$AAW?$AAR?$AAO?$AAN@ 0049b4d0     dxerr8:dxerr8.obj
 0002:0000b508       ??_C@_1DA@KNMJGAAN@?$AAV?$AAF?$AAW?$AA_?$AAE?$AA_?$AAD?$AAV?$AAD?$AA_?$AAS?$AAT?$AAA?$AAT?$AAE?$AA_?$AAC?$AAO?$AAR?$AAR@ 0049b508     dxerr8:dxerr8.obj
 0002:0000b538       ??_C@_1DM@NGKJIBAC@?$AAV?$AAF?$AAW?$AA_?$AAE?$AA_?$AAD?$AAV?$AAD?$AA_?$AAS?$AAT?$AAA?$AAT?$AAE?$AA_?$AAW?$AAR?$AAO?$AAN@ 0049b538     dxerr8:dxerr8.obj
 0002:0000b574       ??_C@_1DA@HHOLEKBJ@?$AAV?$AAF?$AAW?$AA_?$AAE?$AA_?$AAD?$AAV?$AAD?$AA_?$AAC?$AAM?$AAD?$AA_?$AAC?$AAA?$AAN?$AAC?$AAE?$AAL@ 0049b574     dxerr8:dxerr8.obj
 0002:0000b5a4       ??_C@_1DM@MHGLONIC@?$AAV?$AAF?$AAW?$AA_?$AAE?$AA_?$AAD?$AAV?$AAD?$AA_?$AAM?$AAE?$AAN?$AAU?$AA_?$AAD?$AAO?$AAE?$AAS?$AA_@ 0049b5a4     dxerr8:dxerr8.obj
 0002:0000b5e0       ??_C@_1CM@MILLDJII@?$AAV?$AAF?$AAW?$AA_?$AAE?$AA_?$AAD?$AAV?$AAD?$AA_?$AAW?$AAR?$AAO?$AAN?$AAG?$AA_?$AAS?$AAP?$AAE?$AAE@ 0049b5e0     dxerr8:dxerr8.obj
 0002:0000b60c       ??_C@_1CG@OKONCGGF@?$AAV?$AAF?$AAW?$AA_?$AAE?$AA_?$AAT?$AAI?$AAM?$AAE?$AA_?$AAE?$AAX?$AAP?$AAI?$AAR?$AAE?$AAD?$AA?$AA@ 0049b60c     dxerr8:dxerr8.obj
 0002:0000b634       ??_C@_1CM@FCLLBMHE@?$AAV?$AAF?$AAW?$AA_?$AAE?$AA_?$AAC?$AAO?$AAP?$AAY?$AAP?$AAR?$AAO?$AAT?$AA_?$AAF?$AAA?$AAI?$AAL?$AAE@ 0049b634     dxerr8:dxerr8.obj
 0002:0000b660       ??_C@_1EC@PHODOPMF@?$AAV?$AAF?$AAW?$AA_?$AAE?$AA_?$AAD?$AAD?$AAR?$AAA?$AAW?$AA_?$AAV?$AAE?$AAR?$AAS?$AAI?$AAO?$AAN?$AA_@ 0049b660     dxerr8:dxerr8.obj
 0002:0000b6a4       ??_C@_1CO@NKLFHGCN@?$AAV?$AAF?$AAW?$AA_?$AAE?$AA_?$AAD?$AAV?$AAD?$AA_?$AAD?$AAE?$AAC?$AAN?$AAO?$AAT?$AAE?$AAN?$AAO?$AAU@ 0049b6a4     dxerr8:dxerr8.obj
 0002:0000b6d4       ??_C@_1CK@KPPPJCEF@?$AAV?$AAF?$AAW?$AA_?$AAE?$AA_?$AAD?$AAV?$AAD?$AA_?$AAR?$AAE?$AAN?$AAD?$AAE?$AAR?$AAF?$AAA?$AAI?$AAL@ 0049b6d4     dxerr8:dxerr8.obj
 0002:0000b700       ??_C@_1DA@HNJIAOBF@?$AAV?$AAF?$AAW?$AA_?$AAE?$AA_?$AAD?$AAV?$AAD?$AA_?$AAG?$AAR?$AAA?$AAP?$AAH?$AAN?$AAO?$AAT?$AAR?$AAE@ 0049b700     dxerr8:dxerr8.obj
 0002:0000b730       ??_C@_1CI@NDLMLLIC@?$AAV?$AAF?$AAW?$AA_?$AAE?$AA_?$AAD?$AAV?$AAD?$AA_?$AAN?$AAO?$AA_?$AAB?$AAU?$AAT?$AAT?$AAO?$AAN?$AA?$AA@ 0049b730     dxerr8:dxerr8.obj
 0002:0000b758       ??_C@_1DA@DDFCEIJA@?$AAV?$AAF?$AAW?$AA_?$AAE?$AA_?$AAD?$AAV?$AAD?$AA_?$AAI?$AAN?$AAV?$AAA?$AAL?$AAI?$AAD?$AAD?$AAO?$AAM@ 0049b758     dxerr8:dxerr8.obj
 0002:0000b788       ??_C@_1DM@CBNPLHJ@?$AAV?$AAF?$AAW?$AA_?$AAE?$AA_?$AAD?$AAV?$AAD?$AA_?$AAO?$AAP?$AAE?$AAR?$AAA?$AAT?$AAI?$AAO?$AAN?$AA_@ 0049b788     dxerr8:dxerr8.obj
 0002:0000b7c4       ??_C@_1DE@CLMAGDGJ@?$AAV?$AAF?$AAW?$AA_?$AAE?$AA_?$AAN?$AAO?$AA_?$AAC?$AAA?$AAP?$AAT?$AAU?$AAR?$AAE?$AA_?$AAH?$AAA?$AAR@ 0049b7c4     dxerr8:dxerr8.obj
 0002:0000b7f8       ??_C@_1CK@HHIAGGGI@?$AAV?$AAF?$AAW?$AA_?$AAE?$AA_?$AAN?$AAO?$AA_?$AAV?$AAP?$AA_?$AAH?$AAA?$AAR?$AAD?$AAW?$AAA?$AAR?$AAE@ 0049b7f8     dxerr8:dxerr8.obj
 0002:0000b824       ??_C@_1DM@LJOACIHN@?$AAV?$AAF?$AAW?$AA_?$AAE?$AA_?$AAD?$AAD?$AAR?$AAA?$AAW?$AA_?$AAC?$AAA?$AAP?$AAS?$AA_?$AAN?$AAO?$AAT@ 0049b824     dxerr8:dxerr8.obj
 0002:0000b860       ??_C@_1DI@CJLIBCEE@?$AAV?$AAF?$AAW?$AA_?$AAE?$AA_?$AAV?$AAP?$AA_?$AAN?$AAE?$AAG?$AAO?$AAT?$AAI?$AAA?$AAT?$AAI?$AAO?$AAN@ 0049b860     dxerr8:dxerr8.obj
 0002:0000b898       ??_C@_1DE@FCDKCCIE@?$AAV?$AAF?$AAW?$AA_?$AAE?$AA_?$AAO?$AAU?$AAT?$AA_?$AAO?$AAF?$AA_?$AAV?$AAI?$AAD?$AAE?$AAO?$AA_?$AAM@ 0049b898     dxerr8:dxerr8.obj
 0002:0000b8cc       ??_C@_1CE@BGEGHPFD@?$AAV?$AAF?$AAW?$AA_?$AAE?$AA_?$AAB?$AAA?$AAD?$AA_?$AAV?$AAI?$AAD?$AAE?$AAO?$AAC?$AAD?$AA?$AA@ 0049b8cc     dxerr8:dxerr8.obj
 0002:0000b8f0       ??_C@_1CG@OFMJHBO@?$AAV?$AAF?$AAW?$AA_?$AAE?$AA_?$AAN?$AAO?$AA_?$AAT?$AAR?$AAA?$AAN?$AAS?$AAP?$AAO?$AAR?$AAT?$AA?$AA@ 0049b8f0     dxerr8:dxerr8.obj
 0002:0000b918       ??_C@_1DC@FIEGOJHI@?$AAV?$AAF?$AAW?$AA_?$AAE?$AA_?$AAU?$AAN?$AAS?$AAU?$AAP?$AAP?$AAO?$AAR?$AAT?$AAE?$AAD?$AA_?$AAS?$AAT@ 0049b918     dxerr8:dxerr8.obj
 0002:0000b94c       ??_C@_1CO@OLEDFHLO@?$AAV?$AAF?$AAW?$AA_?$AAE?$AA_?$AAB?$AAU?$AAF?$AAF?$AAE?$AAR?$AA_?$AAU?$AAN?$AAD?$AAE?$AAR?$AAF?$AAL@ 0049b94c     dxerr8:dxerr8.obj
 0002:0000b97c       ??_C@_1CA@PMMABLFJ@?$AAV?$AAF?$AAW?$AA_?$AAE?$AA_?$AAR?$AAE?$AAA?$AAD?$AA_?$AAO?$AAN?$AAL?$AAY?$AA?$AA@ 0049b97c     dxerr8:dxerr8.obj
 0002:0000b99c       ??_C@_1CK@GEMMPBCM@?$AAV?$AAF?$AAW?$AA_?$AAE?$AA_?$AAN?$AAO?$AA_?$AAT?$AAI?$AAM?$AAE?$AA_?$AAF?$AAO?$AAR?$AAM?$AAA?$AAT@ 0049b99c     dxerr8:dxerr8.obj
 0002:0000b9c8       ??_C@_1CG@FDFAEPNA@?$AAV?$AAF?$AAW?$AA_?$AAE?$AA_?$AAN?$AAO?$AAT?$AA_?$AAI?$AAN?$AA_?$AAG?$AAR?$AAA?$AAP?$AAH?$AA?$AA@ 0049b9c8     dxerr8:dxerr8.obj
 0002:0000b9f0       ??_C@_1DG@EBOOAIBA@?$AAV?$AAF?$AAW?$AA_?$AAE?$AA_?$AAM?$AAP?$AAE?$AAG?$AA_?$AAN?$AAO?$AAT?$AA_?$AAC?$AAO?$AAN?$AAS?$AAT@ 0049b9f0     dxerr8:dxerr8.obj
 0002:0000ba28       ??_C@_1DA@EEELLPOC@?$AAV?$AAF?$AAW?$AA_?$AAE?$AA_?$AAU?$AAN?$AAS?$AAU?$AAP?$AAP?$AAO?$AAR?$AAT?$AAE?$AAD?$AA_?$AAV?$AAI@ 0049ba28     dxerr8:dxerr8.obj
 0002:0000ba58       ??_C@_1DA@HGJLBKIM@?$AAV?$AAF?$AAW?$AA_?$AAE?$AA_?$AAU?$AAN?$AAS?$AAU?$AAP?$AAP?$AAO?$AAR?$AAT?$AAE?$AAD?$AA_?$AAA?$AAU@ 0049ba58     dxerr8:dxerr8.obj
 0002:0000ba88       ??_C@_1DK@HMGLNJCJ@?$AAV?$AAF?$AAW?$AA_?$AAE?$AA_?$AAP?$AAR?$AAO?$AAC?$AAE?$AAS?$AAS?$AAO?$AAR?$AA_?$AAN?$AAO?$AAT?$AA_@ 0049ba88     dxerr8:dxerr8.obj
 0002:0000bac4       ??_C@_1BG@CJHJCEAD@?$AAV?$AAF?$AAW?$AA_?$AAE?$AA_?$AAR?$AAP?$AAZ?$AAA?$AA?$AA@ 0049bac4     dxerr8:dxerr8.obj
 0002:0000badc       ??_C@_1DA@GCNDCNP@?$AAV?$AAF?$AAW?$AA_?$AAE?$AA_?$AAN?$AAO?$AA_?$AAA?$AAU?$AAD?$AAI?$AAO?$AA_?$AAH?$AAA?$AAR?$AAD?$AAW@ 0049badc     dxerr8:dxerr8.obj
 0002:0000bb0c       ??_C@_1CM@EGJAHCBG@?$AAV?$AAF?$AAW?$AA_?$AAE?$AA_?$AAN?$AAO?$AA_?$AAD?$AAE?$AAC?$AAO?$AAM?$AAP?$AAR?$AAE?$AAS?$AAS?$AAO@ 0049bb0c     dxerr8:dxerr8.obj
 0002:0000bb38       ??_C@_1CI@EONOFJDN@?$AAV?$AAF?$AAW?$AA_?$AAE?$AA_?$AAM?$AAO?$AAN?$AAO?$AA_?$AAA?$AAU?$AAD?$AAI?$AAO?$AA_?$AAH?$AAW?$AA?$AA@ 0049bb38     dxerr8:dxerr8.obj
 0002:0000bb60       ??_C@_1DC@OOAEGDPM@?$AAV?$AAF?$AAW?$AA_?$AAE?$AA_?$AAN?$AAO?$AA_?$AAT?$AAI?$AAM?$AAE?$AA_?$AAF?$AAO?$AAR?$AAM?$AAA?$AAT@ 0049bb60     dxerr8:dxerr8.obj
 0002:0000bb94       ??_C@_1DC@IPBPLNGF@?$AAV?$AAF?$AAW?$AA_?$AAE?$AA_?$AAM?$AAE?$AAD?$AAI?$AAA?$AA_?$AAT?$AAI?$AAM?$AAE?$AA_?$AAN?$AAO?$AAT@ 0049bb94     dxerr8:dxerr8.obj
 0002:0000bbc8       ??_C@_1DE@CEAGPPIG@?$AAV?$AAF?$AAW?$AA_?$AAE?$AA_?$AAS?$AAA?$AAM?$AAP?$AAL?$AAE?$AA_?$AAT?$AAI?$AAM?$AAE?$AA_?$AAN?$AAO@ 0049bbc8     dxerr8:dxerr8.obj
 0002:0000bbfc       ??_C@_1DC@IHCBLPKH@?$AAV?$AAF?$AAW?$AA_?$AAE?$AA_?$AAI?$AAN?$AAV?$AAA?$AAL?$AAI?$AAD?$AA_?$AAM?$AAE?$AAD?$AAI?$AAA?$AA_@ 0049bbfc     dxerr8:dxerr8.obj
 0002:0000bc30       ??_C@_1CI@CPGELJEJ@?$AAV?$AAF?$AAW?$AA_?$AAE?$AA_?$AAI?$AAN?$AAV?$AAA?$AAL?$AAI?$AAD?$AA_?$AAC?$AAL?$AAS?$AAI?$AAD?$AA?$AA@ 0049bc30     dxerr8:dxerr8.obj
 0002:0000bc58       ??_C@_1DG@MOHKOCBP@?$AAV?$AAF?$AAW?$AA_?$AAE?$AA_?$AAI?$AAN?$AAV?$AAA?$AAL?$AAI?$AAD?$AA_?$AAF?$AAI?$AAL?$AAE?$AA_?$AAV@ 0049bc58     dxerr8:dxerr8.obj
 0002:0000bc90       ??_C@_1CK@POIOOFMA@?$AAV?$AAF?$AAW?$AA_?$AAE?$AA_?$AAF?$AAI?$AAL?$AAE?$AA_?$AAT?$AAO?$AAO?$AA_?$AAS?$AAH?$AAO?$AAR?$AAT@ 0049bc90     dxerr8:dxerr8.obj
 0002:0000bcc0       ??_C@_1EA@BFCDNJPI@?$AAV?$AAF?$AAW?$AA_?$AAE?$AA_?$AAC?$AAA?$AAN?$AAN?$AAO?$AAT?$AA_?$AAL?$AAO?$AAA?$AAD?$AA_?$AAS?$AAO@ 0049bcc0     dxerr8:dxerr8.obj
 0002:0000bd00       ??_C@_1DA@GKGOFNIK@?$AAV?$AAF?$AAW?$AA_?$AAE?$AA_?$AAU?$AAN?$AAK?$AAN?$AAO?$AAW?$AAN?$AA_?$AAF?$AAI?$AAL?$AAE?$AA_?$AAT@ 0049bd00     dxerr8:dxerr8.obj
 0002:0000bd30       ??_C@_1DC@FEBDEGCA@?$AAV?$AAF?$AAW?$AA_?$AAE?$AA_?$AAI?$AAN?$AA_?$AAF?$AAU?$AAL?$AAL?$AAS?$AAC?$AAR?$AAE?$AAE?$AAN?$AA_@ 0049bd30     dxerr8:dxerr8.obj
 0002:0000bd64       ??_C@_1CI@MECLALOI@?$AAV?$AAF?$AAW?$AA_?$AAE?$AA_?$AAN?$AAO?$AA_?$AAF?$AAU?$AAL?$AAL?$AAS?$AAC?$AAR?$AAE?$AAE?$AAN?$AA?$AA@ 0049bd64     dxerr8:dxerr8.obj
 0002:0000bd8c       ??_C@_1CI@PNJPEAEN@?$AAV?$AAF?$AAW?$AA_?$AAE?$AA_?$AAN?$AAO?$AA_?$AAA?$AAD?$AAV?$AAI?$AAS?$AAE?$AA_?$AAS?$AAE?$AAT?$AA?$AA@ 0049bd8c     dxerr8:dxerr8.obj
 0002:0000bdb4       ??_C@_1DC@JIKMHHJJ@?$AAV?$AAF?$AAW?$AA_?$AAE?$AA_?$AAN?$AAO?$AA_?$AAM?$AAO?$AAD?$AAE?$AAX?$AA_?$AAA?$AAV?$AAA?$AAI?$AAL@ 0049bdb4     dxerr8:dxerr8.obj
 0002:0000bde8       ??_C@_1DC@IHDILNNA@?$AAV?$AAF?$AAW?$AA_?$AAE?$AA_?$AAA?$AAD?$AAV?$AAI?$AAS?$AAE?$AA_?$AAA?$AAL?$AAR?$AAE?$AAA?$AAD?$AAY@ 0049bde8     dxerr8:dxerr8.obj
 0002:0000be1c       ??_C@_1DC@CGGHPODG@?$AAV?$AAF?$AAW?$AA_?$AAE?$AA_?$AAC?$AAO?$AAR?$AAR?$AAU?$AAP?$AAT?$AA_?$AAG?$AAR?$AAA?$AAP?$AAH?$AA_@ 0049be1c     dxerr8:dxerr8.obj
 0002:0000be50       ??_C@_1DA@NJENKGAK@?$AAV?$AAF?$AAW?$AA_?$AAE?$AA_?$AAA?$AAL?$AAR?$AAE?$AAA?$AAD?$AAY?$AA_?$AAC?$AAA?$AAN?$AAC?$AAE?$AAL@ 0049be50     dxerr8:dxerr8.obj
 0002:0000be80       ??_C@_1DE@GKPIIBHA@?$AAV?$AAF?$AAW?$AA_?$AAE?$AA_?$AAT?$AAI?$AAM?$AAE?$AA_?$AAA?$AAL?$AAR?$AAE?$AAA?$AAD?$AAY?$AA_?$AAP@ 0049be80     dxerr8:dxerr8.obj
 0002:0000beb4       ??_C@_1DE@GFFIEIPL@?$AAV?$AAF?$AAW?$AA_?$AAE?$AA_?$AAN?$AAO?$AAT?$AA_?$AAA?$AAL?$AAL?$AAO?$AAW?$AAE?$AAD?$AA_?$AAT?$AAO@ 0049beb4     dxerr8:dxerr8.obj
 0002:0000bee8       ??_C@_1CK@CCKEBDCI@?$AAV?$AAF?$AAW?$AA_?$AAE?$AA_?$AAC?$AAI?$AAR?$AAC?$AAU?$AAL?$AAA?$AAR?$AA_?$AAG?$AAR?$AAA?$AAP?$AAH@ 0049bee8     dxerr8:dxerr8.obj
 0002:0000bf14       ??_C@_1DA@IIFOHGGP@?$AAV?$AAF?$AAW?$AA_?$AAE?$AA_?$AAE?$AAN?$AAU?$AAM?$AA_?$AAO?$AAU?$AAT?$AA_?$AAO?$AAF?$AA_?$AAR?$AAA@ 0049bf14     dxerr8:dxerr8.obj
 0002:0000bf44       ??_C@_1DE@OHCAMLDJ@?$AAV?$AAF?$AAW?$AA_?$AAE?$AA_?$AAI?$AAN?$AAV?$AAA?$AAL?$AAI?$AAD?$AA_?$AAF?$AAI?$AAL?$AAE?$AA_?$AAF@ 0049bf44     dxerr8:dxerr8.obj
 0002:0000bf78       ??_C@_1BM@JBPBLGCC@?$AAV?$AAF?$AAW?$AA_?$AAE?$AA_?$AAT?$AAI?$AAM?$AAE?$AAO?$AAU?$AAT?$AA?$AA@ 0049bf78     dxerr8:dxerr8.obj
 0002:0000bf94       ??_C@_1CK@NMMEAEHF@?$AAV?$AAF?$AAW?$AA_?$AAE?$AA_?$AAD?$AAU?$AAP?$AAL?$AAI?$AAC?$AAA?$AAT?$AAE?$AA_?$AAN?$AAA?$AAM?$AAE@ 0049bf94     dxerr8:dxerr8.obj
 0002:0000bfc0       ??_C@_1DE@LNHDALCC@?$AAV?$AAF?$AAW?$AA_?$AAE?$AA_?$AAS?$AAA?$AAM?$AAP?$AAL?$AAE?$AA_?$AAR?$AAE?$AAJ?$AAE?$AAC?$AAT?$AAE@ 0049bfc0     dxerr8:dxerr8.obj
 0002:0000bff4       ??_C@_1CM@DIJPLHBM@?$AAV?$AAF?$AAW?$AA_?$AAE?$AA_?$AAS?$AAA?$AAM?$AAP?$AAL?$AAE?$AA_?$AAR?$AAE?$AAJ?$AAE?$AAC?$AAT?$AAE@ 0049bff4     dxerr8:dxerr8.obj
 0002:0000c020       ??_C@_1DA@IKOACBOL@?$AAV?$AAF?$AAW?$AA_?$AAE?$AA_?$AAT?$AAY?$AAP?$AAE?$AA_?$AAN?$AAO?$AAT?$AA_?$AAA?$AAC?$AAC?$AAE?$AAP@ 0049c020     dxerr8:dxerr8.obj
 0002:0000c050       ??_C@_1CG@PMICOLOK@?$AAV?$AAF?$AAW?$AA_?$AAE?$AA_?$AAI?$AAN?$AAV?$AAA?$AAL?$AAI?$AAD?$AA_?$AAR?$AAE?$AAC?$AAT?$AA?$AA@ 0049c050     dxerr8:dxerr8.obj
 0002:0000c078       ??_C@_1DG@PKFLMCAF@?$AAV?$AAF?$AAW?$AA_?$AAE?$AA_?$AAS?$AAT?$AAA?$AAR?$AAT?$AA_?$AAT?$AAI?$AAM?$AAE?$AA_?$AAA?$AAF?$AAT@ 0049c078     dxerr8:dxerr8.obj
 0002:0000c0b0       ??_C@_1CE@DHDEBMJC@?$AAV?$AAF?$AAW?$AA_?$AAE?$AA_?$AAW?$AAR?$AAO?$AAN?$AAG?$AA_?$AAS?$AAT?$AAA?$AAT?$AAE?$AA?$AA@ 0049c0b0     dxerr8:dxerr8.obj
 0002:0000c0d4       ??_C@_1CE@GENMENPA@?$AAV?$AAF?$AAW?$AA_?$AAE?$AA_?$AAN?$AAO?$AAT?$AA_?$AAR?$AAU?$AAN?$AAN?$AAI?$AAN?$AAG?$AA?$AA@ 0049c0d4     dxerr8:dxerr8.obj
 0002:0000c0f8       ??_C@_1CC@CJKLJHGI@?$AAV?$AAF?$AAW?$AA_?$AAE?$AA_?$AAN?$AAO?$AAT?$AA_?$AAP?$AAA?$AAU?$AAS?$AAE?$AAD?$AA?$AA@ 0049c0f8     dxerr8:dxerr8.obj
 0002:0000c11c       ??_C@_1CE@OOPPLFAO@?$AAV?$AAF?$AAW?$AA_?$AAE?$AA_?$AAN?$AAO?$AAT?$AA_?$AAS?$AAT?$AAO?$AAP?$AAP?$AAE?$AAD?$AA?$AA@ 0049c11c     dxerr8:dxerr8.obj
 0002:0000c140       ??_C@_1CI@DNNLGAJD@?$AAV?$AAF?$AAW?$AA_?$AAE?$AA_?$AAS?$AAT?$AAA?$AAT?$AAE?$AA_?$AAC?$AAH?$AAA?$AAN?$AAG?$AAE?$AAD?$AA?$AA@ 0049c140     dxerr8:dxerr8.obj
 0002:0000c168       ??_C@_1CM@EPHPPAFE@?$AAV?$AAF?$AAW?$AA_?$AAE?$AA_?$AAT?$AAO?$AAO?$AA_?$AAM?$AAA?$AAN?$AAY?$AA_?$AAC?$AAO?$AAL?$AAO?$AAR@ 0049c168     dxerr8:dxerr8.obj
 0002:0000c194       ??_C@_1DC@KNDHFOCF@?$AAV?$AAF?$AAW?$AA_?$AAE?$AA_?$AAN?$AAO?$AA_?$AAD?$AAI?$AAS?$AAP?$AAL?$AAA?$AAY?$AA_?$AAP?$AAA?$AAL@ 0049c194     dxerr8:dxerr8.obj
 0002:0000c1c8       ??_C@_1DG@NNNFKNPO@?$AAV?$AAF?$AAW?$AA_?$AAE?$AA_?$AAN?$AAO?$AA_?$AAP?$AAA?$AAL?$AAE?$AAT?$AAT?$AAE?$AA_?$AAA?$AAV?$AAA@ 0049c1c8     dxerr8:dxerr8.obj
 0002:0000c200       ??_C@_1DC@JLINPLLJ@?$AAV?$AAF?$AAW?$AA_?$AAE?$AA_?$AAN?$AAO?$AA_?$AAC?$AAO?$AAL?$AAO?$AAR?$AA_?$AAK?$AAE?$AAY?$AA_?$AAF@ 0049c200     dxerr8:dxerr8.obj
 0002:0000c234       ??_C@_1CI@JHLBNHIA@?$AAV?$AAF?$AAW?$AA_?$AAE?$AA_?$AAC?$AAO?$AAL?$AAO?$AAR?$AA_?$AAK?$AAE?$AAY?$AA_?$AAS?$AAE?$AAT?$AA?$AA@ 0049c234     dxerr8:dxerr8.obj
 0002:0000c25c       ??_C@_1CE@EBHOCHLI@?$AAV?$AAF?$AAW?$AA_?$AAE?$AA_?$AAP?$AAA?$AAL?$AAE?$AAT?$AAT?$AAE?$AA_?$AAS?$AAE?$AAT?$AA?$AA@ 0049c25c     dxerr8:dxerr8.obj
 0002:0000c280       ??_C@_1DI@EJDBGPCK@?$AAV?$AAF?$AAW?$AA_?$AAE?$AA_?$AAN?$AAO?$AAT?$AA_?$AAS?$AAA?$AAM?$AAP?$AAL?$AAE?$AA_?$AAC?$AAO?$AAN@ 0049c280     dxerr8:dxerr8.obj
 0002:0000c2b8       ??_C@_1DK@JCIPCPOC@?$AAV?$AAF?$AAW?$AA_?$AAE?$AA_?$AAN?$AAO?$AAT?$AA_?$AAO?$AAV?$AAE?$AAR?$AAL?$AAA?$AAY?$AA_?$AAC?$AAO@ 0049c2b8     dxerr8:dxerr8.obj
 0002:0000c2f4       ??_C@_1CO@NFDFLEGP@?$AAV?$AAF?$AAW?$AA_?$AAE?$AA_?$AAN?$AAO?$AA_?$AAC?$AAO?$AAL?$AAO?$AAR?$AA_?$AAK?$AAE?$AAY?$AA_?$AAS@ 0049c2f4     dxerr8:dxerr8.obj
 0002:0000c324       ??_C@_1CM@HIECDGLO@?$AAV?$AAF?$AAW?$AA_?$AAE?$AA_?$AAC?$AAH?$AAA?$AAN?$AAG?$AAI?$AAN?$AAG?$AA_?$AAF?$AAO?$AAR?$AAM?$AAA@ 0049c324     dxerr8:dxerr8.obj
 0002:0000c350       ??_C@_1CI@DLBHJIFE@?$AAV?$AAF?$AAW?$AA_?$AAE?$AA_?$AAC?$AAA?$AAN?$AAN?$AAO?$AAT?$AA_?$AAR?$AAE?$AAN?$AAD?$AAE?$AAR?$AA?$AA@ 0049c350     dxerr8:dxerr8.obj
 0002:0000c378       ??_C@_1CK@CBLMBEKH@?$AAV?$AAF?$AAW?$AA_?$AAE?$AA_?$AAC?$AAA?$AAN?$AAN?$AAO?$AAT?$AA_?$AAC?$AAO?$AAN?$AAN?$AAE?$AAC?$AAT@ 0049c378     dxerr8:dxerr8.obj
 0002:0000c3a4       ??_C@_1CA@DHJKHIEI@?$AAV?$AAF?$AAW?$AA_?$AAE?$AA_?$AAN?$AAO?$AAT?$AA_?$AAF?$AAO?$AAU?$AAN?$AAD?$AA?$AA@ 0049c3a4     dxerr8:dxerr8.obj
 0002:0000c3c4       ??_C@_1CG@DNGHIJNH@?$AAV?$AAF?$AAW?$AA_?$AAE?$AA_?$AAN?$AAO?$AA_?$AAI?$AAN?$AAT?$AAE?$AAR?$AAF?$AAA?$AAC?$AAE?$AA?$AA@ 0049c3c4     dxerr8:dxerr8.obj
 0002:0000c3ec       ??_C@_1BM@BGDAEHPM@?$AAV?$AAF?$AAW?$AA_?$AAE?$AA_?$AAN?$AAO?$AA_?$AAS?$AAI?$AAN?$AAK?$AA?$AA@ 0049c3ec     dxerr8:dxerr8.obj
 0002:0000c408       ??_C@_1BO@NGGMBHMF@?$AAV?$AAF?$AAW?$AA_?$AAE?$AA_?$AAN?$AAO?$AA_?$AAC?$AAL?$AAO?$AAC?$AAK?$AA?$AA@ 0049c408     dxerr8:dxerr8.obj
 0002:0000c428       ??_C@_1CC@GMPIBFE@?$AAV?$AAF?$AAW?$AA_?$AAE?$AA_?$AAS?$AAI?$AAZ?$AAE?$AAN?$AAO?$AAT?$AAS?$AAE?$AAT?$AA?$AA@ 0049c428     dxerr8:dxerr8.obj
 0002:0000c44c       ??_C@_1CI@PMADMMOH@?$AAV?$AAF?$AAW?$AA_?$AAE?$AA_?$AAN?$AAO?$AAT?$AA_?$AAC?$AAO?$AAM?$AAM?$AAI?$AAT?$AAT?$AAE?$AAD?$AA?$AA@ 0049c44c     dxerr8:dxerr8.obj
 0002:0000c474       ??_C@_1DE@BMPFHBFL@?$AAV?$AAF?$AAW?$AA_?$AAE?$AA_?$AAB?$AAU?$AAF?$AAF?$AAE?$AAR?$AAS?$AA_?$AAO?$AAU?$AAT?$AAS?$AAT?$AAA@ 0049c474     dxerr8:dxerr8.obj
 0002:0000c4a8       ??_C@_1DA@LMBOPDPC@?$AAV?$AAF?$AAW?$AA_?$AAE?$AA_?$AAA?$AAL?$AAR?$AAE?$AAA?$AAD?$AAY?$AA_?$AAC?$AAO?$AAM?$AAM?$AAI?$AAT@ 0049c4a8     dxerr8:dxerr8.obj
 0002:0000c4d8       ??_C@_1BO@EFIGLKNJ@?$AAV?$AAF?$AAW?$AA_?$AAE?$AA_?$AAB?$AAA?$AAD?$AAA?$AAL?$AAI?$AAG?$AAN?$AA?$AA@ 0049c4d8     dxerr8:dxerr8.obj
 0002:0000c4f8       ??_C@_1CM@MGDLLLDE@?$AAV?$AAF?$AAW?$AA_?$AAE?$AA_?$AAB?$AAU?$AAF?$AAF?$AAE?$AAR?$AA_?$AAO?$AAV?$AAE?$AAR?$AAF?$AAL?$AAO@ 0049c4f8     dxerr8:dxerr8.obj
 0002:0000c524       ??_C@_1CI@ENKKJNAF@?$AAV?$AAF?$AAW?$AA_?$AAE?$AA_?$AAB?$AAU?$AAF?$AAF?$AAE?$AAR?$AA_?$AAN?$AAO?$AAT?$AAS?$AAE?$AAT?$AA?$AA@ 0049c524     dxerr8:dxerr8.obj
 0002:0000c550       ??_C@_1FA@DDDMJDBD@?$AAD?$AAI?$AAE?$AAR?$AAR?$AA_?$AAM?$AAA?$AAP?$AAF?$AAI?$AAL?$AAE?$AAF?$AAA?$AAI?$AAL?$AA?5?$AA?$CG?$AA?5@ 0049c550     dxerr8:dxerr8.obj
 0002:0000c5a0       ??_C@_1EM@IJKPOJJB@?$AAD?$AAI?$AAE?$AAR?$AAR?$AA_?$AAR?$AAE?$AAP?$AAO?$AAR?$AAT?$AAF?$AAU?$AAL?$AAL?$AA?5?$AA?$CG?$AA?5?$AAV@ 0049c5a0     dxerr8:dxerr8.obj
 0002:0000c5f0       ??_C@_1EM@MHGPIMAH@?$AAD?$AAI?$AAE?$AAR?$AAR?$AA_?$AAU?$AAN?$AAP?$AAL?$AAU?$AAG?$AAG?$AAE?$AAD?$AA?5?$AA?$CG?$AA?5?$AAV?$AAF@ 0049c5f0     dxerr8:dxerr8.obj
 0002:0000c640       ??_C@_1FM@JMMHDOFO@?$AAD?$AAI?$AAE?$AAR?$AAR?$AA_?$AAE?$AAF?$AAF?$AAE?$AAC?$AAT?$AAP?$AAL?$AAA?$AAY?$AAI?$AAN?$AAG?$AA?5@ 0049c640     dxerr8:dxerr8.obj
 0002:0000c6a0       ??_C@_1FM@MLBNMKDP@?$AAD?$AAI?$AAE?$AAR?$AAR?$AA_?$AAN?$AAO?$AAT?$AAB?$AAU?$AAF?$AAF?$AAE?$AAR?$AAE?$AAD?$AA?5?$AA?$CG?$AA?5@ 0049c6a0     dxerr8:dxerr8.obj
 0002:0000c700       ??_C@_1IA@JAOMKGKF@?$AAD?$AAI?$AAE?$AAR?$AAR?$AA_?$AAH?$AAA?$AAS?$AAE?$AAF?$AAF?$AAE?$AAC?$AAT?$AAS?$AA?5?$AA?$CG?$AA?5?$AAV@ 0049c700     dxerr8:dxerr8.obj
 0002:0000c780       ??_C@_1JG@EKCIBHCI@?$AAD?$AAI?$AAE?$AAR?$AAR?$AA_?$AAN?$AAO?$AAT?$AAE?$AAX?$AAC?$AAL?$AAU?$AAS?$AAI?$AAV?$AAE?$AAA?$AAC@ 0049c780     dxerr8:dxerr8.obj
 0002:0000c818       ??_C@_1HM@HJKLBBEI@?$AAD?$AAI?$AAE?$AAR?$AAR?$AA_?$AAI?$AAN?$AAC?$AAO?$AAM?$AAP?$AAL?$AAE?$AAT?$AAE?$AAE?$AAF?$AAF?$AAE@ 0049c818     dxerr8:dxerr8.obj
 0002:0000c898       ??_C@_1IE@MMGCGEKC@?$AAD?$AAI?$AAE?$AAR?$AAR?$AA_?$AAN?$AAO?$AAT?$AAD?$AAO?$AAW?$AAN?$AAL?$AAO?$AAA?$AAD?$AAE?$AAD?$AA?5@ 0049c898     dxerr8:dxerr8.obj
 0002:0000c91c       ??_C@_1DA@OPOMIGCN@?$AAC?$AAO?$AA_?$AAE?$AA_?$AAA?$AAL?$AAR?$AAE?$AAA?$AAD?$AAY?$AAI?$AAN?$AAI?$AAT?$AAI?$AAA?$AAL?$AAI@ 0049c91c     dxerr8:dxerr8.obj
 0002:0000c950       ??_C@_1GC@HCMIPGF@?$AAD?$AAI?$AAE?$AAR?$AAR?$AA_?$AAI?$AAN?$AAS?$AAU?$AAF?$AAF?$AAI?$AAC?$AAI?$AAE?$AAN?$AAT?$AAP?$AAR@ 0049c950     dxerr8:dxerr8.obj
 0002:0000c9b8       ??_C@_1IG@ODGGFIDG@?$AAD?$AAI?$AAE?$AAR?$AAR?$AA_?$AAD?$AAE?$AAV?$AAI?$AAC?$AAE?$AAF?$AAU?$AAL?$AAL?$AA?5?$AA?$CG?$AA?5?$AAV@ 0049c9b8     dxerr8:dxerr8.obj
 0002:0000ca40       ??_C@_1GM@ELAPHOEH@?$AAD?$AAI?$AAE?$AAR?$AAR?$AA_?$AAM?$AAO?$AAR?$AAE?$AAD?$AAA?$AAT?$AAA?$AA?5?$AA?$CG?$AA?5?$AAV?$AAF?$AAW@ 0049ca40     dxerr8:dxerr8.obj
 0002:0000caac       ??_C@_1CI@PGGCNJIE@?$AAC?$AAO?$AA_?$AAE?$AA_?$AAN?$AAO?$AAT?$AAI?$AAN?$AAI?$AAT?$AAI?$AAA?$AAL?$AAI?$AAZ?$AAE?$AAD?$AA?$AA@ 0049caac     dxerr8:dxerr8.obj
 0002:0000cad4       ??_C@_1O@CKLHNDGM@?$AAE?$AA_?$AAF?$AAA?$AAI?$AAL?$AA?$AA@ 0049cad4     dxerr8:dxerr8.obj
 0002:0000cae4       ??_C@_1BK@GCCGLFCK@?$AAE?$AA_?$AAU?$AAN?$AAE?$AAX?$AAP?$AAE?$AAC?$AAT?$AAE?$AAD?$AA?$AA@ 0049cae4     dxerr8:dxerr8.obj
 0002:0000cb00       ??_C@_1CM@BINHHBA@?$AAC?$AAL?$AAA?$AAS?$AAS?$AA_?$AAE?$AA_?$AAN?$AAO?$AAA?$AAG?$AAG?$AAR?$AAE?$AAG?$AAA?$AAT?$AAI?$AAO@ 0049cb00     dxerr8:dxerr8.obj
 0002:0000cb2c       ??_C@_1CI@INIFDMJL@?$AAR?$AAE?$AAG?$AAD?$AAB?$AA_?$AAE?$AA_?$AAC?$AAL?$AAA?$AAS?$AAS?$AAN?$AAO?$AAT?$AAR?$AAE?$AAG?$AA?$AA@ 0049cb2c     dxerr8:dxerr8.obj
 0002:0000cb54       ??_C@_1BA@PCOBCNGH@?$AAE?$AA_?$AAA?$AAB?$AAO?$AAR?$AAT?$AA?$AA@ 0049cb54     dxerr8:dxerr8.obj
 0002:0000cb64       ??_C@_1BE@MKAKNMPJ@?$AAE?$AA_?$AAP?$AAE?$AAN?$AAD?$AAI?$AAN?$AAG?$AA?$AA@ 0049cb64     dxerr8:dxerr8.obj
 0002:0000cb78       ??_C@_1BE@KHNOKKGK@?$AAE?$AA_?$AAN?$AAO?$AAT?$AAI?$AAM?$AAP?$AAL?$AA?$AA@ 0049cb78     dxerr8:dxerr8.obj
 0002:0000cb8c       ??_C@_1BM@JAILJAJM@?$AAE?$AA_?$AAN?$AAO?$AAI?$AAN?$AAT?$AAE?$AAR?$AAF?$AAA?$AAC?$AAE?$AA?$AA@ 0049cb8c     dxerr8:dxerr8.obj
 0002:0000cba8       ??_C@_1BE@JBDJAMLA@?$AAE?$AA_?$AAP?$AAO?$AAI?$AAN?$AAT?$AAE?$AAR?$AA?$AA@ 0049cba8     dxerr8:dxerr8.obj
 0002:0000cbc0       ??_C@_0CDH@GCMOAKAJ@Returned?5from?5IDirectMusicPerfor@ 0049cbc0     dxerr8:dxerr8.obj
 0002:0000cdf8       ??_C@_0KO@NPMNKJJN@Although?5the?5audio?5output?5from?5t@ 0049cdf8     dxerr8:dxerr8.obj
 0002:0000cea8       ??_C@_0IB@NGCINMH@The?5requested?5operation?5was?5not?5@ 0049cea8     dxerr8:dxerr8.obj
 0002:0000cf2c       ??_C@_03EKLFPLOI@n?1a?$AA@ 0049cf2c     dxerr8:dxerr8.obj
 0002:0000cf30       ??_C@_0CDE@HLPAMBPK@Returned?5from?5IDirectMusicPerfor@ 0049cf30     dxerr8:dxerr8.obj
 0002:0000d168       ??_C@_0HI@EIOBNHHF@Return?5value?5from?5IDirectMusicTr@ 0049d168     dxerr8:dxerr8.obj
 0002:0000d1e0       ??_C@_0DL@ENHEOFCO@Returned?5string?5has?5been?5truncat@ 0049d1e0     dxerr8:dxerr8.obj
 0002:0000d220       ??_C@_0KN@FEMHLEKB@Returned?5from?5IDirectMusicGraph?3@ 0049d220     dxerr8:dxerr8.obj
 0002:0000d2d0       ??_C@_0BHP@IPCLFGMD@Returned?5from?5IDirectMusicPerfor@ 0049d2d0     dxerr8:dxerr8.obj
 0002:0000d450       ??_C@_0IB@KOPFHLJJ@Return?5value?5from?5IDirectMusicTo@ 0049d450     dxerr8:dxerr8.obj
 0002:0000d4d8       ??_C@_0BCA@MLKMMEGN@The?5object?5could?5only?5load?5parti@ 0049d4d8     dxerr8:dxerr8.obj
 0002:0000d5f8       ??_C@_0OH@NOCKGBMH@Return?5value?5from?5IDirectMusicBa@ 0049d5f8     dxerr8:dxerr8.obj
 0002:0000d6e0       ??_C@_0IG@CEABNMBP@Return?5value?5from?5IDirectMusicTo@ 0049d6e0     dxerr8:dxerr8.obj
 0002:0000d768       ??_C@_0EH@JDDMNNBE@The?5call?5succeeded?0?5but?5not?5all?5@ 0049d768     dxerr8:dxerr8.obj
 0002:0000d7b0       ??_C@_0M@FJDFIHOM@Full?5duplex?$AA@ 0049d7b0     dxerr8:dxerr8.obj
 0002:0000d7bc       ??_C@_0M@DLAFGJCF@Half?5duplex?$AA@ 0049d7bc     dxerr8:dxerr8.obj
 0002:0000d7c8       ??_C@_07GGOCKMHG@Pending?$AA@ 0049d7c8     dxerr8:dxerr8.obj
 0002:0000d7d0       ??_C@_0DO@EINJOBLH@The?5call?5succeeded?0?5but?5we?5had?5t@ 0049d7d0     dxerr8:dxerr8.obj
 0002:0000d810       ??_C@_0DA@CFHOEPDL@The?5seek?5into?5the?5movie?5was?5not?5@ 0049d810     dxerr8:dxerr8.obj
 0002:0000d840       ??_C@_0HC@EPFCMEBN@There?5was?5no?5preview?5pin?5availab@ 0049d840     dxerr8:dxerr8.obj
 0002:0000d8b8       ??_C@_0HL@DMLCEMFL@The?5current?5title?5was?5not?5a?5sequ@ 0049d8b8     dxerr8:dxerr8.obj
 0002:0000d938       ??_C@_0GD@OKHHEJKI@The?5audio?5stream?5did?5not?5contain@ 0049d938     dxerr8:dxerr8.obj
 0002:0000d99c       ??_C@_0CK@GMOEINLN@The?5stop?5time?5for?5the?5sample?5was@ 0049d99c     dxerr8:dxerr8.obj
 0002:0000d9c8       ??_C@_0EO@KAMBMJEF@The?5value?5returned?5had?5to?5be?5est@ 0049d9c8     dxerr8:dxerr8.obj
 0002:0000da18       ??_C@_0EI@EFNCBJIO@This?5success?5code?5is?5reserved?5fo@ 0049da18     dxerr8:dxerr8.obj
 0002:0000da60       ??_C@_0CA@GKMJGFLD@The?5stream?5has?5been?5turned?5off?4?$AA@ 0049da60     dxerr8:dxerr8.obj
 0002:0000da80       ??_C@_0DM@FCJPLLMI@The?5graph?5can?8t?5be?5cued?5because?5@ 0049da80     dxerr8:dxerr8.obj
 0002:0000dac0       ??_C@_0ED@IKAACIDI@Cannot?5play?5back?5the?5video?5strea@ 0049dac0     dxerr8:dxerr8.obj
 0002:0000db04       ??_C@_0CM@LANNIDHE@The?5resource?5specified?5is?5no?5lon@ 0049db04     dxerr8:dxerr8.obj
 0002:0000db30       ??_C@_0HM@LNDNHCAG@A?5connection?5could?5not?5be?5made?5w@ 0049db30     dxerr8:dxerr8.obj
 0002:0000dbb0       ??_C@_0EM@EJEHAIAH@Cannot?5play?5back?5the?5video?5strea@ 0049dbb0     dxerr8:dxerr8.obj
 0002:0000dc00       ??_C@_0ED@DCAGFODF@Cannot?5play?5back?5the?5audio?5strea@ 0049dc00     dxerr8:dxerr8.obj
 0002:0000dc44       ??_C@_0DF@JGCLGOMN@Some?5connections?5have?5failed?5and@ 0049dc44     dxerr8:dxerr8.obj
 0002:0000dc80       ??_C@_0FB@KAGLDFBA@An?5attempt?5to?5add?5a?5filter?5with?5@ 0049dc80     dxerr8:dxerr8.obj
 0002:0000dcd4       ??_C@_0CI@NHLOBGBK@The?5state?5transition?5has?5not?5com@ 0049dcd4     dxerr8:dxerr8.obj
 0002:0000dd00       ??_C@_0EA@GFNODELP@Some?5of?5the?5streams?5in?5this?5movi@ 0049dd00     dxerr8:dxerr8.obj
 0002:0000dd40       ??_C@_0DO@LNPCEFDB@The?5file?5contained?5some?5property@ 0049dd40     dxerr8:dxerr8.obj
 0002:0000dd80       ??_C@_0CG@FFPAEANJ@The?5end?5of?5the?5list?5has?5been?5rea@ 0049dd80     dxerr8:dxerr8.obj
 0002:0000dda8       ??_C@_0CO@DAHNPCCB@The?5storage?5control?5block?5addres@ 0049dda8     dxerr8:dxerr8.obj
 0002:0000ddd8       ??_C@_0BO@FDLJAMNE@The?5environment?5is?5incorrect?4?$AA@ 0049ddd8     dxerr8:dxerr8.obj
 0002:0000ddf8       ??_C@_0EA@IKIAOELF@An?5attempt?5was?5made?5to?5load?5a?5pr@ 0049ddf8     dxerr8:dxerr8.obj
 0002:0000de38       ??_C@_0CM@LHGKHJBE@The?5system?5cannot?5find?5the?5drive@ 0049de38     dxerr8:dxerr8.obj
 0002:0000de64       ??_C@_0DJ@GLEOJCHN@Not?5enough?5storage?5is?5available?5@ 0049de64     dxerr8:dxerr8.obj
 0002:0000dea0       ??_C@_0CL@OHDEIFPG@The?5system?5cannot?5find?5the?5path?5@ 0049dea0     dxerr8:dxerr8.obj
 0002:0000decc       ??_C@_0CB@KCGJPFGN@The?5system?5cannot?5open?5the?5file?4@ 0049decc     dxerr8:dxerr8.obj
 0002:0000def0       ??_C@_0BC@NCLBKKPJ@Access?5is?5denied?4?$AA@ 0049def0     dxerr8:dxerr8.obj
 0002:0000df04       ??_C@_0BH@DFPDIJEH@The?5handle?5is?5invalid?4?$AA@ 0049df04     dxerr8:dxerr8.obj
 0002:0000df1c       ??_C@_0CL@IPMMFMCP@The?5system?5cannot?5find?5the?5file?5@ 0049df1c     dxerr8:dxerr8.obj
 0002:0000df48       ??_C@_0CE@KLHNENBG@Call?5successful?0?5but?5returned?5FA@ 0049df48     dxerr8:dxerr8.obj
 0002:0000df6c       ??_C@_0CE@GHFENJAB@The?5function?5completed?5successfu@ 0049df6c     dxerr8:dxerr8.obj
 0002:0000df90       ??_C@_0DE@HHMMLAHH@The?5file?5does?5not?5contain?5a?5vali@ 0049df90     dxerr8:dxerr8.obj
 0002:0000dfc8       ??_C@_0GD@JFLCFPLI@Attempt?5was?5made?5to?5create?5an?5au@ 0049dfc8     dxerr8:dxerr8.obj
 0002:0000e02c       ??_C@_0CN@PKFMPCAO@Invalid?5data?5was?5found?5in?5a?5RIFF@ 0049e02c     dxerr8:dxerr8.obj
 0002:0000e060       ??_C@_0EP@FIOBPIBA@Attempt?5was?5made?5to?5play?5segment@ 0049e060     dxerr8:dxerr8.obj
 0002:0000e0b0       ??_C@_0FA@CPAFJDJK@An?5audiopath?5could?5not?5be?5used?5f@ 0049e0b0     dxerr8:dxerr8.obj
 0002:0000e100       ??_C@_0EP@HCGOFEKA@An?5audiopath?5failed?5to?5create?5be@ 0049e100     dxerr8:dxerr8.obj
 0002:0000e150       ??_C@_0EA@MJKAAGLB@An?5audiopath?5is?5inactive?0?5perhap@ 0049e150     dxerr8:dxerr8.obj
 0002:0000e190       ??_C@_0FN@LMGJCFKC@A?5segment?5or?5song?5was?5asked?5for?5@ 0049e190     dxerr8:dxerr8.obj
 0002:0000e1f0       ??_C@_0KA@CNFIBACF@This?5is?5the?5inverse?5of?5the?5previ@ 0049e1f0     dxerr8:dxerr8.obj
 0002:0000e290       ??_C@_0IC@CFJACHJP@The?5Performance?5has?5set?5up?5some?5@ 0049e290     dxerr8:dxerr8.obj
 0002:0000e318       ??_C@_0NB@MAGELEFA@A?5script?5routine?5written?5in?5Audi@ 0049e318     dxerr8:dxerr8.obj
 0002:0000e3f0       ??_C@_0OD@JEPBPLNC@A?5script?5routine?5written?5in?5Audi@ 0049e3f0     dxerr8:dxerr8.obj
 0002:0000e4d8       ??_C@_0II@NAPJAHNB@A?5script?5written?5in?5AudioVBScrip@ 0049e4d8     dxerr8:dxerr8.obj
 0002:0000e560       ??_C@_0DG@GJFPNGD@The?5file?5contains?5an?5invalid?5par@ 0049e560     dxerr8:dxerr8.obj
 0002:0000e598       ??_C@_0CL@FJCHOLBN@The?5file?5contains?5an?5invalid?5lyr@ 0049e598     dxerr8:dxerr8.obj
 0002:0000e5c4       ??_C@_0DE@FCFNCNNK@The?5file?5contains?5an?5invalid?5seg@ 0049e5c4     dxerr8:dxerr8.obj
 0002:0000e5f8       ??_C@_0HC@EEJCEKJD@Attempt?5was?5made?5to?5set?5a?5script@ 0049e5f8     dxerr8:dxerr8.obj
 0002:0000e670       ??_C@_0GB@KKCMPPOM@Attempt?5was?5made?5to?5set?5a?5script@ 0049e670     dxerr8:dxerr8.obj
 0002:0000e6d8       ??_C@_0FA@GANJPPJN@Scripts?5variables?5for?5content?5re@ 0049e6d8     dxerr8:dxerr8.obj
 0002:0000e728       ??_C@_0DP@JBMFMJJB@The?5script?5does?5not?5contain?5a?5ro@ 0049e728     dxerr8:dxerr8.obj
 0002:0000e768       ??_C@_0EA@IEGKHAPN@The?5script?5does?5not?5contain?5a?5va@ 0049e768     dxerr8:dxerr8.obj
 0002:0000e7a8       ??_C@_0CL@EPKBPEFJ@The?5file?5contains?5an?5invalid?5scr@ 0049e7a8     dxerr8:dxerr8.obj
 0002:0000e7d4       ??_C@_0BM@ECDKLJII@The?5script?5file?5is?5invalid?4?$AA@ 0049e7d4     dxerr8:dxerr8.obj
 0002:0000e7f0       ??_C@_0HA@DOOFCBNP@An?5error?5occured?5while?5parsing?5a@ 0049e7f0     dxerr8:dxerr8.obj
 0002:0000e860       ??_C@_0PD@JAGJOBDA@Loading?5of?5oleaut32?4dll?5failed?4?5@ 0049e860     dxerr8:dxerr8.obj
 0002:0000e958       ??_C@_0JE@NJKJMCKL@An?5error?5was?5encountered?5while?5p@ 0049e958     dxerr8:dxerr8.obj
 0002:0000e9f0       ??_C@_0EJ@GKCCAHBM@A?5varient?5was?5used?5that?5had?5a?5ty@ 0049e9f0     dxerr8:dxerr8.obj
 0002:0000ea40       ??_C@_0FL@BCGBNCGM@The?5activeX?5scripting?5engine?5for@ 0049ea40     dxerr8:dxerr8.obj
 0002:0000eaa0       ??_C@_0EK@GGEBNADE@An?5attempt?5to?5use?5this?5object?5fa@ 0049eaa0     dxerr8:dxerr8.obj
 0002:0000eaf0       ??_C@_0HA@CPFAEHJG@DMUS_E_DESCEND_CHUNK_FAIL?5is?5ret@ 0049eaf0     dxerr8:dxerr8.obj
 0002:0000eb60       ??_C@_0NH@GIMBLBEM@A?5call?5to?5MIDIToMusic?$CI?$CJ?5or?5Music@ 0049eb60     dxerr8:dxerr8.obj
 0002:0000ec38       ??_C@_0CN@KEBEIIHP@The?5default?5system?5port?5could?5no@ 0049ec38     dxerr8:dxerr8.obj
 0002:0000ec68       ??_C@_0KF@GNAGHAAD@The?5DMUS_PMSG?5was?5either?5not?5all@ 0049ec68     dxerr8:dxerr8.obj
 0002:0000ed10       ??_C@_0GH@CDKAADBD@The?5DMUS_PMSG?5has?5already?5been?5s@ 0049ed10     dxerr8:dxerr8.obj
 0002:0000ed78       ??_C@_0DD@HEFMCFPC@The?5file?5name?5is?5missing?5from?5th@ 0049ed78     dxerr8:dxerr8.obj
 0002:0000edac       ??_C@_0CI@BEDHLOCL@The?5file?5requested?5is?5not?5a?5vali@ 0049edac     dxerr8:dxerr8.obj
 0002:0000edd8       ??_C@_0ED@CNFDPKEL@The?5tool?5is?5already?5contained?5in@ 0049edd8     dxerr8:dxerr8.obj
 0002:0000ee20       ??_C@_0FF@NEKKGDKC@Value?5is?5out?5of?5range?0?5for?5insta@ 0049ee20     dxerr8:dxerr8.obj
 0002:0000ee78       ??_C@_0EP@LGGMK@Segment?5initialization?5failed?0?5m@ 0049ee78     dxerr8:dxerr8.obj
 0002:0000eec8       ??_C@_0BG@LMBHPPIC@Object?5was?5not?5found?4?$AA@ 0049eec8     dxerr8:dxerr8.obj
 0002:0000eee0       ??_C@_0ED@BIPLALCE@The?5class?5id?5field?5is?5required?5a@ 0049eee0     dxerr8:dxerr8.obj
 0002:0000ef24       ??_C@_0CE@GLGHPOEE@The?5requested?5file?5path?5is?5inval@ 0049ef24     dxerr8:dxerr8.obj
 0002:0000ef48       ??_C@_0DL@EKMAHFEK@File?5open?5failed?5?9?5either?5file?5d@ 0049ef48     dxerr8:dxerr8.obj
 0002:0000ef84       ??_C@_0CD@NHHCHEOL@Search?5data?5type?5is?5not?5supporte@ 0049ef84     dxerr8:dxerr8.obj
 0002:0000efa8       ??_C@_0CB@LPDPLFDI@Unable?5to?5find?5or?5create?5object?4@ 0049efa8     dxerr8:dxerr8.obj
 0002:0000efd0       ??_C@_0FO@NLNCHOAH@There?5is?5no?5master?5clock?5in?5the?5@ 0049efd0     dxerr8:dxerr8.obj
 0002:0000f030       ??_C@_0DM@HGPPIDIC@The?5track?5does?5not?5support?5clock@ 0049f030     dxerr8:dxerr8.obj
 0002:0000f06c       ??_C@_0DF@BJKCNAGP@The?5requested?5track?5is?5not?5conta@ 0049f06c     dxerr8:dxerr8.obj
 0002:0000f0a4       ??_C@_0DM@LNJEHMME@The?5time?5is?5in?5the?5past?0?5and?5the@ 0049f0a4     dxerr8:dxerr8.obj
 0002:0000f0e0       ??_C@_0DN@MLGEHAGL@The?5requested?5parameter?5type?5is?5@ 0049f0e0     dxerr8:dxerr8.obj
 0002:0000f120       ??_C@_0IA@GPJILFOH@The?5requested?5parameter?5type?5is?5@ 0049f120     dxerr8:dxerr8.obj
 0002:0000f1a0       ??_C@_0DO@MOFOKBHK@A?5required?5object?5is?5not?5initial@ 0049f1a0     dxerr8:dxerr8.obj
 0002:0000f1e0       ??_C@_0LD@NCDKHDMF@The?5segment?5object?5was?5unable?5to@ 0049f1e0     dxerr8:dxerr8.obj
 0002:0000f298       ??_C@_0KP@HJJKMJPC@The?5graph?5object?5was?5unable?5to?5l@ 0049f298     dxerr8:dxerr8.obj
 0002:0000f348       ??_C@_0IP@DFIAINHI@The?5IStream?$CK?5object?8s?5data?5conta@ 0049f348     dxerr8:dxerr8.obj
 0002:0000f3d8       ??_C@_0JC@MDEJICCG@The?5IStream?$CK?5object?8s?5data?5conta@ 0049f3d8     dxerr8:dxerr8.obj
 0002:0000f470       ??_C@_0HO@HPJHMDOM@The?5IStream?$CK?5object?8s?5data?5does?5@ 0049f470     dxerr8:dxerr8.obj
 0002:0000f4f0       ??_C@_0IB@LAHIOCJC@The?5IStream?$CK?5object?8s?5data?5does?5@ 0049f4f0     dxerr8:dxerr8.obj
 0002:0000f574       ??_C@_0CI@MKEKIFEJ@The?5file?5does?5not?5contain?5a?5vali@ 0049f574     dxerr8:dxerr8.obj
 0002:0000f59c       ??_C@_0CJ@PNIJFAME@The?5object?5has?5already?5been?5init@ 0049f59c     dxerr8:dxerr8.obj
 0002:0000f5c8       ??_C@_0EL@KOMPFHIP@The?5IStream?$CK?5object?5does?5not?5con@ 0049f5c8     dxerr8:dxerr8.obj
 0002:0000f618       ??_C@_0JC@EDBOOMCO@The?5given?5event?5is?5invalid?5?$CIeith@ 0049f618     dxerr8:dxerr8.obj
 0002:0000f6b0       ??_C@_0FK@OHELNOEF@IDirectMusic?3?3SetDirectSound?5has@ 0049f6b0     dxerr8:dxerr8.obj
 0002:0000f710       ??_C@_0EH@CEKCAHI@The?5operation?5cannot?5be?5carried?5@ 0049f710     dxerr8:dxerr8.obj
 0002:0000f758       ??_C@_0DE@OIFIMAOD@Invalid?5buffer?5format?5was?5handed@ 0049f758     dxerr8:dxerr8.obj
 0002:0000f78c       ??_C@_0DA@LJFLINGC@Invalid?5DirectSound?5buffer?5was?5h@ 0049f78c     dxerr8:dxerr8.obj
 0002:0000f7bc       ??_C@_0DO@LEEDKGFE@The?5operation?5cannot?5be?5carried?5@ 0049f7bc     dxerr8:dxerr8.obj
 0002:0000f800       ??_C@_0NB@IDINNENM@The?5port?5could?5not?5be?5created?5be@ 0049f800     dxerr8:dxerr8.obj
 0002:0000f8d8       ??_C@_0FA@PANPLKDG@The?5given?5operation?5could?5not?5be@ 0049f8d8     dxerr8:dxerr8.obj
 0002:0000f928       ??_C@_0FB@PPCALNLL@The?5given?5operation?5could?5not?5be@ 0049f928     dxerr8:dxerr8.obj
 0002:0000f980       ??_C@_0EH@EKOFHFFC@There?5is?5insufficient?5space?5to?5i@ 0049f980     dxerr8:dxerr8.obj
 0002:0000f9c8       ??_C@_0CM@NHIEACPF@There?5was?5no?5data?5in?5the?5referen@ 0049f9c8     dxerr8:dxerr8.obj
 0002:0000f9f8       ??_C@_0KK@IOMBHBIB@The?5operation?5cannot?5be?5performe@ 0049f9f8     dxerr8:dxerr8.obj
 0002:0000faa8       ??_C@_0EF@MIANPEHH@An?5error?5occurred?5while?5attempti@ 0049faa8     dxerr8:dxerr8.obj
 0002:0000faf0       ??_C@_0EF@PGADOLMH@The?5operation?5cannot?5be?5carried?5@ 0049faf0     dxerr8:dxerr8.obj
 0002:0000fb38       ??_C@_0GE@ICHPCCH@The?5operation?5could?5not?5be?5compl@ 0049fb38     dxerr8:dxerr8.obj
 0002:0000fba0       ??_C@_0FC@MLJMNNMN@An?5attempt?5was?5made?5to?5close?5the@ 0049fba0     dxerr8:dxerr8.obj
 0002:0000fbf8       ??_C@_0FB@GKOFCAGN@An?5attempt?5was?5made?5to?5open?5the?5@ 0049fbf8     dxerr8:dxerr8.obj
 0002:0000fc50       ??_C@_0FH@CKPBPIKG@The?5operation?5could?5not?5be?5compl@ 0049fc50     dxerr8:dxerr8.obj
 0002:0000fca8       ??_C@_0CJ@HAAJOGLC@Attempted?5to?5download?5unknown?5da@ 0049fca8     dxerr8:dxerr8.obj
 0002:0000fcd4       ??_C@_0CO@OBCNDKMP@Offset?5Table?5for?5download?5buffer@ 0049fcd4     dxerr8:dxerr8.obj
 0002:0000fd04       ??_C@_0CB@HBCIFHEP@Bad?5wave?5chunk?5in?5DLS?5collection@ 0049fd04     dxerr8:dxerr8.obj
 0002:0000fd28       ??_C@_0CK@BLLNKDE@Downoaded?5DLS?5wave?5is?5not?5in?5PCM@ 0049fd28     dxerr8:dxerr8.obj
 0002:0000fd54       ??_C@_0DI@EJJOFKHC@Articulation?5missing?5from?5instru@ 0049fd54     dxerr8:dxerr8.obj
 0002:0000fd8c       ??_C@_0DJ@OAGBPNGD@Wavelink?5chunk?5in?5DLS?5collection@ 0049fd8c     dxerr8:dxerr8.obj
 0002:0000fdc8       ??_C@_0CM@CNBKHOCL@Invalid?5instrument?5chunk?5in?5DLS?5@ 0049fdc8     dxerr8:dxerr8.obj
 0002:0000fdf4       ??_C@_0CO@DLLDJFKJ@Invalid?5articulation?5chunk?5in?5DL@ 0049fdf4     dxerr8:dxerr8.obj
 0002:0000fe28       ??_C@_0EM@HAIJEDLI@Wave?5chunk?5has?5more?5than?5one?5int@ 0049fe28     dxerr8:dxerr8.obj
 0002:0000fe78       ??_C@_0EL@ILIFLAMH@?$CK?5The?5specified?5property?5item?5ma@ 0049fe78     dxerr8:dxerr8.obj
 0002:0000fec8       ??_C@_0EB@FGICBMBL@The?5specified?5property?5item?5may?5@ 0049fec8     dxerr8:dxerr8.obj
 0002:0000ff10       ??_C@_0EF@JBDJHGJO@The?5specified?5property?5item?5was?5@ 0049ff10     dxerr8:dxerr8.obj
 0002:0000ff58       ??_C@_0CI@JABDINMC@Buffer?5was?5already?5downloaded?5to@ 0049ff58     dxerr8:dxerr8.obj
 0002:0000ff80       ??_C@_0EK@HHAOOIGI@Tried?5to?5unload?5an?5object?5that?5w@ 0049ff80     dxerr8:dxerr8.obj
 0002:0000ffd0       ??_C@_0EL@HNKEEHFI@Invalid?5download?5id?5was?5used?5in?5@ 0049ffd0     dxerr8:dxerr8.obj
 0002:00010020       ??_C@_0EF@OADJFHAH@The?5RIFF?5parser?5doesn?8t?5contain?5@ 004a0020     dxerr8:dxerr8.obj
 0002:00010068       ??_C@_0CG@MPOMLMOF@The?5IStream?$CK?5doesn?8t?5support?5Wri@ 004a0068     dxerr8:dxerr8.obj
 0002:00010090       ??_C@_0CF@BOEDGBHL@The?5IStream?$CK?5doesn?8t?5support?5See@ 004a0090     dxerr8:dxerr8.obj
 0002:000100b8       ??_C@_0EE@IILIKHOO@There?5is?5no?5instrument?5in?5the?5co@ 004a00b8     dxerr8:dxerr8.obj
 0002:00010100       ??_C@_0EB@HLFGFPFJ@Error?5reading?5wave?5data?5from?5DLS@ 004a0100     dxerr8:dxerr8.obj
 0002:00010148       ??_C@_0EL@DHONKPPH@The?5object?5requested?5was?5not?5fou@ 004a0148     dxerr8:dxerr8.obj
 0002:00010198       ??_C@_0EB@KHKOHIJJ@Second?5attempt?5to?5load?5a?5DLS?5col@ 004a0198     dxerr8:dxerr8.obj
 0002:000101dc       ??_C@_0DN@DACCKPGF@Wave?5chunks?5in?5DLS?5collection?5fi@ 004a01dc     dxerr8:dxerr8.obj
 0002:0001021c       ??_C@_0CP@GBGKOEIL@Error?5parsing?5DLS?5collection?4?5Fi@ 004a021c     dxerr8:dxerr8.obj
 0002:00010250       ??_C@_0EG@EOJPCOBL@Download?5failed?5due?5to?5inability@ 004a0250     dxerr8:dxerr8.obj
 0002:00010298       ??_C@_0CO@FDGMAEDD@No?5buffer?5was?5prepared?5for?5the?5d@ 004a0298     dxerr8:dxerr8.obj
 0002:000102c8       ??_C@_0DE@CMFLJKFB@Buffer?5is?5not?5large?5enough?5for?5r@ 004a02c8     dxerr8:dxerr8.obj
 0002:00010300       ??_C@_0GK@NBPHMKFM@The?5requested?5device?5is?5already?5@ 004a0300     dxerr8:dxerr8.obj
 0002:00010370       ??_C@_0GO@MGAHKDCH@The?5requested?5operation?5cannot?5b@ 004a0370     dxerr8:dxerr8.obj
 0002:000103e0       ??_C@_0GO@KLIGCNGP@An?5unexpected?5error?5was?5returned@ 004a03e0     dxerr8:dxerr8.obj
 0002:00010450       ??_C@_0EM@MKBMILCF@The?5GUID?5specified?5in?5an?5audiopa@ 004a0450     dxerr8:dxerr8.obj
 0002:000104a0       ??_C@_0FB@KPLHOJMI@Tried?5to?5create?5a?5DSBCAPS_CTRLFX@ 004a04a0     dxerr8:dxerr8.obj
 0002:000104f8       ??_C@_0EK@KHGIPBL@Attempt?5to?5use?5DirectSound?58?5fun@ 004a04f8     dxerr8:dxerr8.obj
 0002:00010544       ??_C@_0CN@BKMJNJNK@A?5circular?5loop?5of?5send?5effects?5@ 004a0544     dxerr8:dxerr8.obj
 0002:00010574       ??_C@_0CF@OJICFBNP@No?5sound?5driver?5is?5available?5for@ 004a0574     dxerr8:dxerr8.obj
 0002:0001059c       ??_C@_0DG@GEIGLDEH@The?5buffer?5memory?5has?5been?5lost?0@ 004a059c     dxerr8:dxerr8.obj
 0002:000105d8       ??_C@_0EO@ONCGGPFI@Another?5app?5has?5a?5higher?5priorit@ 004a05d8     dxerr8:dxerr8.obj
 0002:00010628       ??_C@_0CL@NAGJJKLB@The?5specified?5WAVE?5format?5is?5not@ 004a0628     dxerr8:dxerr8.obj
 0002:00010658       ??_C@_0EG@NOFGMCNG@The?5control?5?$CIvol?0?5pan?0?5etc?4?$CJ?5req@ 004a0658     dxerr8:dxerr8.obj
 0002:000106a0       ??_C@_0DM@IGHAAEFB@This?5call?5is?5not?5valid?5for?5the?5c@ 004a06a0     dxerr8:dxerr8.obj
 0002:000106e0       ??_C@_0FB@OIHCHJOE@The?5caller?5does?5not?5have?5the?5pri@ 004a06e0     dxerr8:dxerr8.obj
 0002:00010738       ??_C@_0GH@FKEFEOHE@The?5call?5failed?5because?5resource@ 004a0738     dxerr8:dxerr8.obj
 0002:000107a0       ??_C@_0BB@MJIHEKGD@Cannot?5attr?5sort?$AA@ 004a07a0     dxerr8:dxerr8.obj
 0002:000107b4       ??_C@_0BH@LFJHCBEB@Skinning?5not?5supported?$AA@ 004a07b4     dxerr8:dxerr8.obj
 0002:000107cc       ??_C@_0BE@DKFJPCDO@Too?5many?5influences?$AA@ 004a07cc     dxerr8:dxerr8.obj
 0002:000107e0       ??_C@_0N@OONCBFLH@Invalid?5data?$AA@ 004a07e0     dxerr8:dxerr8.obj
 0002:000107f0       ??_C@_0N@LICNENFN@Invalid?5mesh?$AA@ 004a07f0     dxerr8:dxerr8.obj
 0002:00010800       ??_C@_0N@PLGJEFCC@Invalid?5call?$AA@ 004a0800     dxerr8:dxerr8.obj
 0002:00010810       ??_C@_0BE@MDDHNFOC@Driver?5invalid?5call?$AA@ 004a0810     dxerr8:dxerr8.obj
 0002:00010824       ??_C@_0BM@LDKPHGGJ@Can?5not?5modify?5index?5buffer?$AA@ 004a0824     dxerr8:dxerr8.obj
 0002:00010840       ??_C@_0P@LAKHOBEE@Invalid?5device?$AA@ 004a0840     dxerr8:dxerr8.obj
 0002:00010850       ??_C@_09EIKHOPE@More?5data?$AA@ 004a0850     dxerr8:dxerr8.obj
 0002:0001085c       ??_C@_0M@DPHOJLIL@Device?5lost?$AA@ 004a085c     dxerr8:dxerr8.obj
 0002:00010868       ??_C@_0BB@BIJBHCHM@Device?5not?5reset?$AA@ 004a0868     dxerr8:dxerr8.obj
 0002:0001087c       ??_C@_0O@IAMKGBIO@Not?5available?$AA@ 004a087c     dxerr8:dxerr8.obj
 0002:0001088c       ??_C@_09CCINFMOF@Not?5found?$AA@ 004a088c     dxerr8:dxerr8.obj
 0002:00010898       ??_C@_0BG@MLECPLL@Driver?5internal?5error?$AA@ 004a0898     dxerr8:dxerr8.obj
 0002:000108b0       ??_C@_0BM@JHDCEELD@Conflicting?5texture?5palette?$AA@ 004a08b0     dxerr8:dxerr8.obj
 0002:000108cc       ??_C@_0BL@KBGLEMPN@Unsupported?5texture?5filter?$AA@ 004a08cc     dxerr8:dxerr8.obj
 0002:000108e8       ??_C@_0BJ@CBBPPHLF@Conflicting?5render?5state?$AA@ 004a08e8     dxerr8:dxerr8.obj
 0002:00010904       ??_C@_0BJ@FIDNLECG@Unsupported?5factor?5value?$AA@ 004a0904     dxerr8:dxerr8.obj
 0002:00010920       ??_C@_0BL@JGADNLHO@Conflicting?5texture?5filter?$AA@ 004a0920     dxerr8:dxerr8.obj
 0002:0001093c       ??_C@_0BE@BEIPHDFA@Too?5many?5operations?$AA@ 004a093c     dxerr8:dxerr8.obj
 0002:00010950       ??_C@_0BG@HMBEHEJJ@Unsupported?5alpha?5arg?$AA@ 004a0950     dxerr8:dxerr8.obj
 0002:00010968       ??_C@_0BM@IMGHGGHP@Unsupported?5alpha?5operation?$AA@ 004a0968     dxerr8:dxerr8.obj
 0002:00010984       ??_C@_0BG@CKJNPCLO@Unsupported?5color?5arg?$AA@ 004a0984     dxerr8:dxerr8.obj
 0002:0001099c       ??_C@_0BM@FAAILNHA@Unsupported?5color?5operation?$AA@ 004a099c     dxerr8:dxerr8.obj
 0002:000109b8       ??_C@_0BF@HHNKELBC@Wrong?5texture?5format?$AA@ 004a09b8     dxerr8:dxerr8.obj
 0002:000109d0       ??_C@_0M@PJBCFFFB@No?5internet?$AA@ 004a09d0     dxerr8:dxerr8.obj
 0002:000109dc       ??_C@_0P@MLDCFLDF@Bad?5cache?5file?$AA@ 004a09dc     dxerr8:dxerr8.obj
 0002:000109ec       ??_C@_0N@DMBILCGF@No?5more?5data?$AA@ 004a09ec     dxerr8:dxerr8.obj
 0002:000109fc       ??_C@_0BH@HDJPIIEH@No?5more?5stream?5handles?$AA@ 004a09fc     dxerr8:dxerr8.obj
 0002:00010a14       ??_C@_0P@LAHKLBBH@Bad?5intrinsics?$AA@ 004a0a14     dxerr8:dxerr8.obj
 0002:00010a24       ??_C@_0BA@FFCECMCP@No?5more?5objects?$AA@ 004a0a24     dxerr8:dxerr8.obj
 0002:00010a34       ??_C@_0P@DHEBFDOP@Internal?5error?$AA@ 004a0a34     dxerr8:dxerr8.obj
 0002:00010a44       ??_C@_0BD@CACODLFF@Bad?5data?5reference?$AA@ 004a0a44     dxerr8:dxerr8.obj
 0002:00010a58       ??_C@_0P@OLOGKEIM@Bad?5array?5size?$AA@ 004a0a58     dxerr8:dxerr8.obj
 0002:00010a68       ??_C@_0M@JBCEHFPG@No?5template?$AA@ 004a0a68     dxerr8:dxerr8.obj
 0002:00010a74       ??_C@_0M@BLAMFKK@Parse?5error?$AA@ 004a0a74     dxerr8:dxerr8.obj
 0002:00010a80       ??_C@_08IEJNJKPH@Bad?5file?$AA@ 004a0a80     dxerr8:dxerr8.obj
 0002:00010a8c       ??_C@_0BK@CBONIGEJ@Bad?5file?5compression?5type?$AA@ 004a0a8c     dxerr8:dxerr8.obj
 0002:00010aa8       ??_C@_0BE@MIPBGIFH@Bad?5file?5float?5size?$AA@ 004a0aa8     dxerr8:dxerr8.obj
 0002:00010abc       ??_C@_0BB@GMILBKHA@Bad?5file?5version?$AA@ 004a0abc     dxerr8:dxerr8.obj
 0002:00010ad0       ??_C@_0O@NDHPKAPM@Bad?5file?5type?$AA@ 004a0ad0     dxerr8:dxerr8.obj
 0002:00010ae0       ??_C@_0N@PBJOIEBG@Bad?5resource?$AA@ 004a0ae0     dxerr8:dxerr8.obj
 0002:00010af0       ??_C@_0O@INCFIMOF@Url?5not?5found?$AA@ 004a0af0     dxerr8:dxerr8.obj
 0002:00010b00       ??_C@_0BD@EGJGMIJC@Resource?5not?5found?$AA@ 004a0b00     dxerr8:dxerr8.obj
 0002:00010b14       ??_C@_0P@DBCHBMCI@File?5not?5found?$AA@ 004a0b14     dxerr8:dxerr8.obj
 0002:00010b24       ??_C@_0N@LFMNELHL@Not?5done?5yet?$AA@ 004a0b24     dxerr8:dxerr8.obj
 0002:00010b34       ??_C@_09LFPPPIFP@Bad?5alloc?$AA@ 004a0b34     dxerr8:dxerr8.obj
 0002:00010b40       ??_C@_0BC@GJHFFMFH@Bad?5stream?5handle?$AA@ 004a0b40     dxerr8:dxerr8.obj
 0002:00010b54       ??_C@_08NLJIFDJO@Bad?5type?$AA@ 004a0b54     dxerr8:dxerr8.obj
 0002:00010b60       ??_C@_09BEFHIPON@Bad?5value?$AA@ 004a0b60     dxerr8:dxerr8.obj
 0002:00010b6c       ??_C@_0L@DKPKAAIG@Bad?5object?$AA@ 004a0b6c     dxerr8:dxerr8.obj
 0002:00010b78       ??_C@_0GC@OLMCHACP@Surfaces?5created?5by?5one?5direct?5d@ 004a0b78     dxerr8:dxerr8.obj
 0002:00010bdc       ??_C@_0DK@OCKHMNED@The?5driver?5does?5not?5enumerate?5di@ 004a0bdc     dxerr8:dxerr8.obj
 0002:00010c18       ??_C@_0CF@OJEEBDBB@The?5monitor?5does?5not?5have?5EDID?5d@ 004a0c18     dxerr8:dxerr8.obj
 0002:00010c40       ??_C@_0BN@KDDPOIJO@The?5video?5port?5is?5not?5active?$AA@ 004a0c40     dxerr8:dxerr8.obj
 0002:00010c60       ??_C@_0CC@LCMKBOO@D3D?5has?5not?5yet?5been?5initialized@ 004a0c60     dxerr8:dxerr8.obj
 0002:00010c84       ??_C@_0CK@IBKMIKIG@The?5mode?5test?5has?5switched?5to?5a?5@ 004a0c84     dxerr8:dxerr8.obj
 0002:00010cb0       ??_C@_0CG@MIFIOLJE@The?5mode?5test?5has?5finished?5execu@ 004a0cb0     dxerr8:dxerr8.obj
 0002:00010cd8       ??_C@_0DH@NNJOLPBE@The?5data?5has?5expired?5and?5is?5ther@ 004a0cd8     dxerr8:dxerr8.obj
 0002:00010d10       ??_C@_0EH@HBNMFFDE@There?5is?5more?5data?5available?5tha@ 004a0d10     dxerr8:dxerr8.obj
 0002:00010d58       ??_C@_0EN@PAMBDIBN@An?5attempt?5was?5made?5to?5page?5unlo@ 004a0d58     dxerr8:dxerr8.obj
 0002:00010da8       ??_C@_0CN@KNBMEILP@The?5attempt?5to?5page?5unlock?5a?5sur@ 004a0da8     dxerr8:dxerr8.obj
 0002:00010dd8       ??_C@_0CL@NGLNPAPG@The?5attempt?5to?5page?5lock?5a?5surfa@ 004a0dd8     dxerr8:dxerr8.obj
 0002:00010e08       ??_C@_0HD@FGLBFCJP@An?5attempt?5was?5made?5to?5allocate?5@ 004a0e08     dxerr8:dxerr8.obj
 0002:00010e80       ??_C@_0FL@DKNOJDI@A?5DC?5has?5already?5been?5returned?5f@ 004a0e80     dxerr8:dxerr8.obj
 0002:00010edc       ??_C@_0DH@FBNIHHEO@Attempt?5was?5made?5to?5set?5a?5palett@ 004a0edc     dxerr8:dxerr8.obj
 0002:00010f18       ??_C@_0FJ@KGICIIAI@Attempt?5was?5made?5to?5create?5or?5se@ 004a0f18     dxerr8:dxerr8.obj
 0002:00010f78       ??_C@_0EL@MLDDMBBH@Surface?5is?5an?5optimized?5surface?0@ 004a0f78     dxerr8:dxerr8.obj
 0002:00010fc8       ??_C@_0FJ@GMGIHANM@Device?5does?5not?5support?5optimize@ 004a0fc8     dxerr8:dxerr8.obj
 0002:00011028       ??_C@_0FH@KIOGHHFB@The?5requested?5action?5could?5not?5b@ 004a1028     dxerr8:dxerr8.obj
 0002:00011080       ??_C@_0GO@KEDLPJMI@Operation?5could?5not?5be?5carried?5o@ 004a1080     dxerr8:dxerr8.obj
 0002:000110f0       ??_C@_0DA@JJMNDDNA@The?5display?5is?5currently?5in?5an?5u@ 004a10f0     dxerr8:dxerr8.obj
 0002:00011120       ??_C@_0DG@NIOIGKI@The?5surface?5being?5used?5is?5not?5a?5@ 004a1120     dxerr8:dxerr8.obj
 0002:00011158       ??_C@_0EO@MLDMACAO@This?5surface?5can?5not?5be?5restored@ 004a1158     dxerr8:dxerr8.obj
 0002:000111a8       ??_C@_0EN@IKLJDHPJ@This?5surface?5can?5not?5be?5restored@ 004a11a8     dxerr8:dxerr8.obj
 0002:000111f8       ??_C@_0CJ@PGLCBLIH@No?5DC?5was?5ever?5created?5for?5this?5@ 004a11f8     dxerr8:dxerr8.obj
 0002:00011228       ??_C@_0OK@LONONGJD@Windows?5can?5not?5create?5any?5more?5@ 004a1228     dxerr8:dxerr8.obj
 0002:00011318       ??_C@_0HM@NHHIDGKF@Surface?5was?5not?5locked?4?5?5An?5atte@ 004a1318     dxerr8:dxerr8.obj
 0002:00011398       ??_C@_0FA@POJAKNBB@Can?8t?5duplicate?5primary?5?$CG?53D?5sur@ 004a1398     dxerr8:dxerr8.obj
 0002:000113e8       ??_C@_0EC@FMLBJEAK@An?5attempt?5has?5been?5made?5to?5flip@ 004a13e8     dxerr8:dxerr8.obj
 0002:00011430       ??_C@_0FH@MJINBAC@An?5attempt?5was?5made?5to?5set?5the?5c@ 004a1430     dxerr8:dxerr8.obj
 0002:00011488       ??_C@_0EE@BJHENODN@returned?5when?5an?5overlay?5member?5@ 004a1488     dxerr8:dxerr8.obj
 0002:000114d0       ??_C@_0GI@IPAHFNIK@returned?5when?5the?5position?5of?5th@ 004a14d0     dxerr8:dxerr8.obj
 0002:00011538       ??_C@_0IB@DLAPINFA@returned?5when?5GetOverlayPosition@ 004a1538     dxerr8:dxerr8.obj
 0002:000115bc       ??_C@_0DP@PCNOIDKM@returned?5when?5GetOverlayPosition@ 004a15bc     dxerr8:dxerr8.obj
 0002:000115fc       ??_C@_0BM@NFFEGJAD@No?5DirectDraw?5ROP?5hardware?4?$AA@ 004a15fc     dxerr8:dxerr8.obj
 0002:00011618       ??_C@_09NJGNOKHI@No?5blter?4?$AA@ 004a1618     dxerr8:dxerr8.obj
 0002:00011628       ??_C@_0FC@NMKNHING@If?5a?5clipper?5object?5is?5attached?5@ 004a1628     dxerr8:dxerr8.obj
 0002:0001167c       ??_C@_0DC@PJMIBLJE@No?5hardware?5support?5for?516?5or?525@ 004a167c     dxerr8:dxerr8.obj
 0002:000116b0       ??_C@_0CM@OKLOIJNP@No?5palette?5object?5attached?5to?5th@ 004a16b0     dxerr8:dxerr8.obj
 0002:000116e0       ??_C@_0HI@DCJNEJCF@The?5CooperativeLevel?5HWND?5has?5al@ 004a16e0     dxerr8:dxerr8.obj
 0002:00011758       ??_C@_0GN@LCCJEOLA@HWND?5used?5by?5DirectDraw?5Cooperat@ 004a1758     dxerr8:dxerr8.obj
 0002:000117c8       ??_C@_0GH@NENFCBNK@Clipper?5notification?5requires?5an@ 004a17c8     dxerr8:dxerr8.obj
 0002:00011830       ??_C@_0CN@CCOALNLM@No?5clipper?5object?5attached?5to?5su@ 004a1830     dxerr8:dxerr8.obj
 0002:00011860       ??_C@_0FP@BLEPKEKF@an?5attempt?5was?5made?5to?5set?5a?5cli@ 004a1860     dxerr8:dxerr8.obj
 0002:000118c0       ??_C@_0DE@ODDMFACJ@region?5passed?5to?5Clipper?3?3GetCli@ 004a18c0     dxerr8:dxerr8.obj
 0002:000118f4       ??_C@_0CC@FHLGGOIA@software?5emulation?5not?5available@ 004a18f4     dxerr8:dxerr8.obj
 0002:00011918       ??_C@_0DD@MLINOAEH@this?5process?5already?5has?5created@ 004a1918     dxerr8:dxerr8.obj
 0002:00011950       ??_C@_0GG@FKMHAJNM@A?5hardware?5only?5DirectDraw?5objec@ 004a1950     dxerr8:dxerr8.obj
 0002:000119b8       ??_C@_0FI@GOGCMLHC@A?5DirectDraw?5object?5representing@ 004a19b8     dxerr8:dxerr8.obj
 0002:00011a10       ??_C@_0FB@NCEBDCPJ@The?5GUID?5passed?5to?5DirectDrawCre@ 004a1a10     dxerr8:dxerr8.obj
 0002:00011a68       ??_C@_0EC@IBLKHHAJ@Rectangle?5provided?5was?5not?5horiz@ 004a1a68     dxerr8:dxerr8.obj
 0002:00011ab0       ??_C@_0EG@CIEILGKO@The?5specified?5surface?5type?5requi@ 004a1ab0     dxerr8:dxerr8.obj
 0002:00011af8       ??_C@_0HB@BMJAPBHK@Informs?5DirectDraw?5that?5the?5prev@ 004a1af8     dxerr8:dxerr8.obj
 0002:00011b6c       ??_C@_0BO@LCPJEMJC@vertical?5blank?5is?5in?5progress?$AA@ 004a1b6c     dxerr8:dxerr8.obj
 0002:00011b8c       ??_C@_0CL@FEPBDNCF@The?5specified?5stream?5contains?5in@ 004a1b8c     dxerr8:dxerr8.obj
 0002:00011bb8       ??_C@_0ED@NPGCMAGE@Bitmask?5in?5the?5pixel?5format?5requ@ 004a1bb8     dxerr8:dxerr8.obj
 0002:00011c00       ??_C@_0FG@KBFCKKBJ@Size?5requested?5by?5DirectDraw?5is?5@ 004a1c00     dxerr8:dxerr8.obj
 0002:00011c58       ??_C@_0CM@PGPNKPOC@Width?5requested?5by?5DirectDraw?5is@ 004a1c58     dxerr8:dxerr8.obj
 0002:00011c84       ??_C@_0DE@DKLEJLCP@Pixel?5format?5requested?5is?5unsupp@ 004a1c84     dxerr8:dxerr8.obj
 0002:00011cb8       ??_C@_0CN@JBIGMBNK@Height?5requested?5by?5DirectDraw?5i@ 004a1cb8     dxerr8:dxerr8.obj
 0002:00011ce8       ??_C@_0BBC@FBGCGAHF@Access?5to?5this?5surface?5is?5being?5@ 004a1ce8     dxerr8:dxerr8.obj
 0002:00011dfc       ??_C@_0DH@BCDNLJGO@Access?5to?5Surface?5refused?5becaus@ 004a1dfc     dxerr8:dxerr8.obj
 0002:00011e38       ??_C@_0JO@ILPIPFCO@Access?5to?5this?5surface?5is?5being?5@ 004a1e38     dxerr8:dxerr8.obj
 0002:00011ed8       ??_C@_0CH@NBHJPNMH@The?5requested?5surface?5is?5not?5att@ 004a1ed8     dxerr8:dxerr8.obj
 0002:00011f00       ??_C@_0GB@PKDGEDIE@Access?5to?5this?5surface?5is?5being?5@ 004a1f00     dxerr8:dxerr8.obj
 0002:00011f68       ??_C@_0GB@ILOMPIOP@Access?5to?5this?5palette?5is?5being?5@ 004a1f68     dxerr8:dxerr8.obj
 0002:00011fcc       ??_C@_0CP@OBDMAKNP@No?5src?5color?5key?5specified?5for?5t@ 004a1fcc     dxerr8:dxerr8.obj
 0002:00012000       ??_C@_0EJ@MJJAHJI@This?5surface?5is?5already?5attached@ 004a2000     dxerr8:dxerr8.obj
 0002:00012050       ??_C@_0FG@HFCBDGGN@This?5surface?5is?5already?5a?5depend@ 004a2050     dxerr8:dxerr8.obj
 0002:000120a8       ??_C@_0DM@BBGHEIFE@Can?5only?5have?5ony?5color?5key?5acti@ 004a20a8     dxerr8:dxerr8.obj
 0002:000120e8       ??_C@_0HO@ONPEKNIP@Overlay?5surfaces?5could?5not?5be?5z?5@ 004a20e8     dxerr8:dxerr8.obj
 0002:00012168       ??_C@_0EM@EELGIDIE@The?5hardware?5needed?5for?5the?5requ@ 004a2168     dxerr8:dxerr8.obj
 0002:000121b4       ??_C@_0BE@BCNDIAIA@Out?5of?5video?5memory?$AA@ 004a21b4     dxerr8:dxerr8.obj
 0002:000121c8       ??_C@_0CL@KKOFAEIC@hardware?5does?5not?5support?5clippe@ 004a21c8     dxerr8:dxerr8.obj
 0002:000121f8       ??_C@_0FM@PNADPFKE@Operation?5could?5not?5be?5carried?5o@ 004a21f8     dxerr8:dxerr8.obj
 0002:00012258       ??_C@_0GA@HGPIPOPG@DirectDraw?5Surface?5is?5not?5in?58?5b@ 004a2258     dxerr8:dxerr8.obj
 0002:000122b8       ??_C@_0GG@EKIEHJAM@Operation?5could?5not?5be?5carried?5o@ 004a22b8     dxerr8:dxerr8.obj
 0002:00012320       ??_C@_0HE@PKELAKG@Operation?5could?5not?5be?5carried?5o@ 004a2320     dxerr8:dxerr8.obj
 0002:00012398       ??_C@_0HG@LFKOEPKO@DirectDrawSurface?5is?5not?5in?54?5bi@ 004a2398     dxerr8:dxerr8.obj
 0002:00012410       ??_C@_0GM@JNJEAEGI@Operation?5could?5not?5be?5carried?5o@ 004a2410     dxerr8:dxerr8.obj
 0002:00012480       ??_C@_0FP@JDGAGAEO@Operation?5could?5not?5be?5carried?5o@ 004a2480     dxerr8:dxerr8.obj
 0002:000124e0       ??_C@_0FH@ONBADNOM@Operation?5could?5not?5be?5carried?5o@ 004a24e0     dxerr8:dxerr8.obj
 0002:00012538       ??_C@_0GK@IPGIBAK@DirectDrawSurface?5is?5not?5in?54?5bi@ 004a2538     dxerr8:dxerr8.obj
 0002:000125a8       ??_C@_0IB@LGCPIFIM@Operation?5could?5not?5be?5carried?5o@ 004a25a8     dxerr8:dxerr8.obj
 0002:00012630       ??_C@_0FG@OFJHNOHB@Operation?5could?5not?5be?5carried?5o@ 004a2630     dxerr8:dxerr8.obj
 0002:00012688       ??_C@_0BN@OCIGLCLO@Requested?5item?5was?5not?5found?$AA@ 004a2688     dxerr8:dxerr8.obj
 0002:000126a8       ??_C@_0FO@LFKMBAOB@Operation?5could?5not?5be?5carried?5o@ 004a26a8     dxerr8:dxerr8.obj
 0002:00012708       ??_C@_0BJ@FKFKNCIF@There?5is?5no?5GDI?5present?4?$AA@ 004a2708     dxerr8:dxerr8.obj
 0002:00012728       ??_C@_0FP@MOAIOPAE@Operation?5could?5not?5be?5carried?5o@ 004a2728     dxerr8:dxerr8.obj
 0002:00012788       ??_C@_0DL@NCMACPCF@No?5DirectDraw?5support?5possible?5w@ 004a2788     dxerr8:dxerr8.obj
 0002:000127c8       ??_C@_0GM@BMBFBGIP@Operation?5requires?5the?5applicati@ 004a27c8     dxerr8:dxerr8.obj
 0002:00012834       ??_C@_0CM@NHMMBKAL@Flipping?5visible?5surfaces?5is?5not@ 004a2834     dxerr8:dxerr8.obj
 0002:00012860       ??_C@_0CL@IILHAEHG@Surface?5doesn?8t?5currently?5have?5a@ 004a2860     dxerr8:dxerr8.obj
 0002:0001288c       ??_C@_0BH@CGHKOHGE@no?5clip?5list?5available?$AA@ 004a288c     dxerr8:dxerr8.obj
 0002:000128a8       ??_C@_0GH@BOIPDPM@Operation?5could?5not?5be?5carried?5o@ 004a28a8     dxerr8:dxerr8.obj
 0002:00012910       ??_C@_0FK@PACAMKCG@Create?5function?5called?5without?5D@ 004a2910     dxerr8:dxerr8.obj
 0002:00012970       ??_C@_0GH@FGMEPHD@Operation?5could?5not?5be?5carried?5o@ 004a2970     dxerr8:dxerr8.obj
 0002:000129d8       ??_C@_0EL@ODIFPDDB@Operation?5could?5not?5be?5carried?5o@ 004a29d8     dxerr8:dxerr8.obj
 0002:00012a24       ??_C@_0BI@KHKAHFJG@There?5is?5no?53D?5present?4?$AA@ 004a2a24     dxerr8:dxerr8.obj
 0002:00012a40       ??_C@_0GI@JJNDILEJ@Operation?5could?5not?5be?5carried?5o@ 004a2a40     dxerr8:dxerr8.obj
 0002:00012aa8       ??_C@_0FN@PPEGPILJ@Operation?5could?5not?5be?5carried?5o@ 004a2aa8     dxerr8:dxerr8.obj
 0002:00012b08       ??_C@_0CA@LDCKNMJJ@Rectangle?5provided?5was?5invalid?4?$AA@ 004a2b08     dxerr8:dxerr8.obj
 0002:00012b28       ??_C@_0CP@MJOLGEID@DirectDraw?5does?5not?5support?5prov@ 004a2b28     dxerr8:dxerr8.obj
 0002:00012b58       ??_C@_0CP@NFGPPABH@DirectDraw?5does?5not?5support?5the?5@ 004a2b58     dxerr8:dxerr8.obj
 0002:00012b88       ??_C@_0EF@KJAIAJHH@DirectDraw?5received?5a?5pointer?5th@ 004a2b88     dxerr8:dxerr8.obj
 0002:00012bd0       ??_C@_0CG@ODCNAFHA@pixel?5format?5was?5invalid?5as?5spec@ 004a2bd0     dxerr8:dxerr8.obj
 0002:00012bf8       ??_C@_0ED@BFFHDLIA@One?5or?5more?5of?5the?5caps?5bits?5pas@ 004a2bf8     dxerr8:dxerr8.obj
 0002:00012c3c       ??_C@_0CE@PMBNGEOI@Support?5is?5currently?5not?5availab@ 004a2c3c     dxerr8:dxerr8.obj
 0002:00012c60       ??_C@_0EG@IAEAGAAM@An?5exception?5was?5encountered?5whi@ 004a2c60     dxerr8:dxerr8.obj
 0002:00012ca8       ??_C@_0EB@LCFDNCCF@Height?5of?5rectangle?5provided?5is?5@ 004a2ca8     dxerr8:dxerr8.obj
 0002:00012cf0       ??_C@_0FA@CJKLCPNO@Unable?5to?5match?5primary?5surface?5@ 004a2cf0     dxerr8:dxerr8.obj
 0002:00012d40       ??_C@_0DN@LEFGIDN@This?5surface?5can?5not?5be?5detached@ 004a2d40     dxerr8:dxerr8.obj
 0002:00012d80       ??_C@_0M@KGOMFAGJ@User?5cancel?$AA@ 004a2d80     dxerr8:dxerr8.obj
 0002:00012d8c       ??_C@_0DL@BBJLNAKM@This?5surface?5can?5not?5be?5attached@ 004a2d8c     dxerr8:dxerr8.obj
 0002:00012dc8       ??_C@_0O@MGDGCKO@Uninitialized?$AA@ 004a2dc8     dxerr8:dxerr8.obj
 0002:00012dd8       ??_C@_0P@BDCFMGMJ@Send?5too?5large?$AA@ 004a2dd8     dxerr8:dxerr8.obj
 0002:00012de8       ??_C@_0N@GJLMIAHJ@Session?5full?$AA@ 004a2de8     dxerr8:dxerr8.obj
 0002:00012df8       ??_C@_0L@ILNPDBPF@Table?5full?$AA@ 004a2df8     dxerr8:dxerr8.obj
 0002:00012e04       ??_C@_09OGKCMDDI@Timed?5out?$AA@ 004a2e04     dxerr8:dxerr8.obj
 0002:00012e10       ??_C@_0BF@CCFOOLFB@Player?5not?5reachable?$AA@ 004a2e10     dxerr8:dxerr8.obj
 0002:00012e28       ??_C@_08MOAFMBPP@Not?5host?$AA@ 004a2e28     dxerr8:dxerr8.obj
 0002:00012e34       ??_C@_09NNPKCNML@Not?5ready?$AA@ 004a2e34     dxerr8:dxerr8.obj
 0002:00012e40       ??_C@_0P@EDONKIPN@Not?5registered?$AA@ 004a2e40     dxerr8:dxerr8.obj
 0002:00012e50       ??_C@_0M@EGIJAAKK@Player?5lost?$AA@ 004a2e50     dxerr8:dxerr8.obj
 0002:00012e5c       ??_C@_0M@GOGBAOIF@Not?5allowed?$AA@ 004a2e5c     dxerr8:dxerr8.obj
 0002:00012e68       ??_C@_0O@IIKJJNKF@No?5connection?$AA@ 004a2e68     dxerr8:dxerr8.obj
 0002:00012e78       ??_C@_0P@LAIIOFHI@No?5host?5player?$AA@ 004a2e78     dxerr8:dxerr8.obj
 0002:00012e88       ??_C@_0BL@GHEEBPND@No?5more?5address?5components?$AA@ 004a2e88     dxerr8:dxerr8.obj
 0002:00012ea4       ??_C@_0M@MPFDJHOM@No?5response?$AA@ 004a2ea4     dxerr8:dxerr8.obj
 0002:00012eb0       ??_C@_07NBHDBGON@No?5caps?$AA@ 004a2eb0     dxerr8:dxerr8.obj
 0002:00012eb8       ??_C@_0P@BFDKMFCL@Invalid?5string?$AA@ 004a2eb8     dxerr8:dxerr8.obj
 0002:00012ec8       ??_C@_0M@JCBPHPEG@Invalid?5url?$AA@ 004a2ec8     dxerr8:dxerr8.obj
 0002:00012ed4       ??_C@_0BA@GHAKPKJA@Invalid?5version?$AA@ 004a2ed4     dxerr8:dxerr8.obj
 0002:00012ee4       ??_C@_0BB@DJNGMPIE@Invalid?5priority?$AA@ 004a2ee4     dxerr8:dxerr8.obj
 0002:00012ef8       ??_C@_0BC@NEMBHIDN@Invalid?5interface?$AA@ 004a2ef8     dxerr8:dxerr8.obj
 0002:00012f0c       ??_C@_0P@BDLKGDCN@Invalid?5object?$AA@ 004a2f0c     dxerr8:dxerr8.obj
 0002:00012f1c       ??_C@_0BB@GKDCDICO@Invalid?5password?$AA@ 004a2f1c     dxerr8:dxerr8.obj
 0002:00012f30       ??_C@_0P@IHOOOMHI@Invalid?5player?$AA@ 004a2f30     dxerr8:dxerr8.obj
 0002:00012f40       ??_C@_0BB@PNJHBDFB@Invalid?5instance?$AA@ 004a2f40     dxerr8:dxerr8.obj
 0002:00012f54       ??_C@_0O@IHOLGAKK@Invalid?5flags?$AA@ 004a2f54     dxerr8:dxerr8.obj
 0002:00012f64       ??_C@_0O@EHDHMJAC@Invalid?5group?$AA@ 004a2f64     dxerr8:dxerr8.obj
 0002:00012f74       ??_C@_0P@EFDAIKIF@Invalid?5handle?$AA@ 004a2f74     dxerr8:dxerr8.obj
 0002:00012f84       ??_C@_0BF@BFJDNCBJ@Invalid?5host?5address?$AA@ 004a2f84     dxerr8:dxerr8.obj
 0002:00012f9c       ??_C@_0BC@HKBIKIJA@Invalid?5end?5point?$AA@ 004a2f9c     dxerr8:dxerr8.obj
 0002:00012fb0       ??_C@_0BH@LAAGKOAG@Invalid?5address?5format?$AA@ 004a2fb0     dxerr8:dxerr8.obj
 0002:00012fc8       ??_C@_0BE@DIPINGKH@Invalid?5application?$AA@ 004a2fc8     dxerr8:dxerr8.obj
 0002:00012fdc       ??_C@_0BA@OEOIKJGO@Invalid?5command?$AA@ 004a2fdc     dxerr8:dxerr8.obj
 0002:00012fec       ??_C@_0BH@LDLNAHGI@Invalid?5device?5address?$AA@ 004a2fec     dxerr8:dxerr8.obj
 0002:00013004       ??_C@_0BD@HJDPCGEH@Incomplete?5address?$AA@ 004a3004     dxerr8:dxerr8.obj
 0002:00013018       ??_C@_0BA@OFKPHIIJ@Group?5not?5empty?$AA@ 004a3018     dxerr8:dxerr8.obj
 0002:00013028       ??_C@_07LCGEFPGB@Hosting?$AA@ 004a3028     dxerr8:dxerr8.obj
 0002:00013030       ??_C@_0BJ@JHCAPMKC@Host?5rejected?5connection?$AA@ 004a3030     dxerr8:dxerr8.obj
 0002:0001304c       ??_C@_0BI@PDFBJONH@Host?5terminated?5session?$AA@ 004a304c     dxerr8:dxerr8.obj
 0002:00013064       ??_C@_0BI@HLNIABEO@Enum?5response?5too?5large?$AA@ 004a3064     dxerr8:dxerr8.obj
 0002:0001307c       ??_C@_0L@NKGNILAL@Conversion?$AA@ 004a307c     dxerr8:dxerr8.obj
 0002:00013088       ??_C@_0P@MDBBGOGL@Data?5too?5large?$AA@ 004a3088     dxerr8:dxerr8.obj
 0002:00013098       ??_C@_0P@BFHEFHJC@Does?5not?5exist?$AA@ 004a3098     dxerr8:dxerr8.obj
 0002:000130a8       ??_C@_0BC@IOOHIMIO@Duplicate?5command?$AA@ 004a30a8     dxerr8:dxerr8.obj
 0002:000130bc       ??_C@_0BI@GDGKKDCB@End?5point?5not?5receiving?$AA@ 004a30bc     dxerr8:dxerr8.obj
 0002:000130d4       ??_C@_0BF@NBHAFDBB@Enum?5query?5too?5large?$AA@ 004a30d4     dxerr8:dxerr8.obj
 0002:000130ec       ??_C@_0P@IJBIKKDP@Can?5not?5cancel?$AA@ 004a30ec     dxerr8:dxerr8.obj
 0002:000130fc       ??_C@_0BC@HCJPPMMG@Cant?5create?5group?$AA@ 004a30fc     dxerr8:dxerr8.obj
 0002:00013110       ??_C@_0BD@BLNCECOE@Cant?5create?5player?$AA@ 004a3110     dxerr8:dxerr8.obj
 0002:00013124       ??_C@_0BI@HKHKCJP@Cant?5launch?5application?$AA@ 004a3124     dxerr8:dxerr8.obj
 0002:0001313c       ??_C@_0L@NPJJHNMF@Connecting?$AA@ 004a313c     dxerr8:dxerr8.obj
 0002:00013148       ??_C@_0BB@OLKJDAH@Buffer?5too?5small?$AA@ 004a3148     dxerr8:dxerr8.obj
 0002:0001315c       ??_C@_0L@HANJEPIC@Addressing?$AA@ 004a315c     dxerr8:dxerr8.obj
 0002:00013168       ??_C@_0BA@CMGKMNNF@Already?5closing?$AA@ 004a3168     dxerr8:dxerr8.obj
 0002:00013178       ??_C@_0BC@GIMHDJLL@Already?5connected?$AA@ 004a3178     dxerr8:dxerr8.obj
 0002:0001318c       ??_C@_0BG@IOIKOEGG@Already?5disconnecting?$AA@ 004a318c     dxerr8:dxerr8.obj
 0002:000131a4       ??_C@_0BE@LNLBJNNO@Already?5initialized?$AA@ 004a31a4     dxerr8:dxerr8.obj
 0002:000131b8       ??_C@_0BD@ICHBHOK@Already?5registered?$AA@ 004a31b8     dxerr8:dxerr8.obj
 0002:000131cc       ??_C@_07LCKDCBKK@Aborted?$AA@ 004a31cc     dxerr8:dxerr8.obj
 0002:000131d4       ??_C@_0O@JDGJMEPC@Locked?5buffer?$AA@ 004a31d4     dxerr8:dxerr8.obj
 0002:000131e4       ??_C@_0P@OJCMKJBF@Invalid?5buffer?$AA@ 004a31e4     dxerr8:dxerr8.obj
 0002:000131f4       ??_C@_0BF@DGEOIIJ@No?5rec?5vol?5available?$AA@ 004a31f4     dxerr8:dxerr8.obj
 0002:0001320c       ??_C@_09MCMGDMCA@User?5back?$AA@ 004a320c     dxerr8:dxerr8.obj
 0002:00013218       ??_C@_0BE@MLLEEMED@Transport?5no?5player?$AA@ 004a3218     dxerr8:dxerr8.obj
 0002:0001322c       ??_C@_0BF@FFPBJENF@Transport?5no?5session?$AA@ 004a322c     dxerr8:dxerr8.obj
 0002:00013244       ??_C@_0BD@GPJMAFLF@Transport?5not?5init?$AA@ 004a3244     dxerr8:dxerr8.obj
 0002:00013258       ??_C@_0M@DHHGLLPK@No?5callback?$AA@ 004a3258     dxerr8:dxerr8.obj
 0002:00013264       ??_C@_0N@IGICHJNN@No?5transport?$AA@ 004a3264     dxerr8:dxerr8.obj
 0002:00013274       ??_C@_0M@OJIBHFOA@Initialized?$AA@ 004a3274     dxerr8:dxerr8.obj
 0002:00013280       ??_C@_0BF@LOJHAHJO@Incompatible?5version?$AA@ 004a3280     dxerr8:dxerr8.obj
 0002:00013298       ??_C@_09FEEAKPKH@Run?5setup?$AA@ 004a3298     dxerr8:dxerr8.obj
 0002:000132a4       ??_C@_0L@JMICFNB@Send?5error?$AA@ 004a32a4     dxerr8:dxerr8.obj
 0002:000132b0       ??_C@_0BG@CLFPAIPJ@Playback?5system?5error?$AA@ 004a32b0     dxerr8:dxerr8.obj
 0002:000132c8       ??_C@_0BE@KPJBJBJK@Record?5system?5error?$AA@ 004a32c8     dxerr8:dxerr8.obj
 0002:000132dc       ??_C@_0M@DCMIIFGA@Not?5hosting?$AA@ 004a32dc     dxerr8:dxerr8.obj
 0002:000132e8       ??_C@_0N@JDAHGBLC@Not?5buffered?$AA@ 004a32e8     dxerr8:dxerr8.obj
 0002:000132f8       ??_C@_0BB@JJLDNLMF@Already?5buffered?$AA@ 004a32f8     dxerr8:dxerr8.obj
 0002:0001330c       ??_C@_0M@NEEENAEO@No?53d?5sound?$AA@ 004a330c     dxerr8:dxerr8.obj
 0002:00013318       ??_C@_0BA@GEILFDJB@Connect?5aborted?$AA@ 004a3318     dxerr8:dxerr8.obj
 0002:00013328       ??_C@_08PAFJCNGP@Time?5out?$AA@ 004a3328     dxerr8:dxerr8.obj
 0002:00013334       ??_C@_0BD@NDDDF@Sound?5init?5failure?$AA@ 004a3334     dxerr8:dxerr8.obj
 0002:00013348       ??_C@_0BA@FCFKCGPJ@Already?5pending?$AA@ 004a3348     dxerr8:dxerr8.obj
 0002:00013358       ??_C@_0BK@DJJOLLBG@Compression?5not?5supported?$AA@ 004a3358     dxerr8:dxerr8.obj
 0002:00013374       ??_C@_0BD@PLPBGNMG@Transport?5not?5host?$AA@ 004a3374     dxerr8:dxerr8.obj
 0002:00013388       ??_C@_0P@OODLBMN@Invalid?5target?$AA@ 004a3388     dxerr8:dxerr8.obj
 0002:00013398       ??_C@_09NJLBODLJ@Connected?$AA@ 004a3398     dxerr8:dxerr8.obj
 0002:000133a4       ??_C@_0O@KGKMGJJO@Not?5connected?$AA@ 004a33a4     dxerr8:dxerr8.obj
 0002:000133b4       ??_C@_0BB@OKJBOPIP@Connect?5aborting?$AA@ 004a33b4     dxerr8:dxerr8.obj
 0002:000133c8       ??_C@_0BA@DOCJNCKG@Not?5initialized?$AA@ 004a33c8     dxerr8:dxerr8.obj
 0002:000133d8       ??_C@_0N@IJMJFDDH@Session?5lost?$AA@ 004a33d8     dxerr8:dxerr8.obj
 0002:000133e8       ??_C@_0BB@NBIODJFA@No?5voice?5session?$AA@ 004a33e8     dxerr8:dxerr8.obj
 0002:000133fc       ??_C@_0BA@DADPBCNM@Connection?5lost?$AA@ 004a33fc     dxerr8:dxerr8.obj
 0002:0001340c       ??_C@_09FBNMMHMJ@Exception?$AA@ 004a340c     dxerr8:dxerr8.obj
 0002:00013418       ??_C@_0FC@JKEOGOBE@The?5application?5was?5written?5for?5@ 004a3418     dxerr8:dxerr8.obj
 0002:00013470       ??_C@_0EL@PGKNOKIL@The?5specified?5property?5ID?5is?5not@ 004a3470     dxerr8:dxerr8.obj
 0002:000134bc       ??_C@_0CN@NFGMPPBI@The?5Specified?5property?5set?5is?5no@ 004a34bc     dxerr8:dxerr8.obj
 0002:000134ec       ??_C@_0CD@LPKILENK@This?5object?5is?5already?5initializ@ 004a34ec     dxerr8:dxerr8.obj
 0002:00013510       ??_C@_0DJ@OLJPAKH@The?5application?5requires?5a?5newer@ 004a3510     dxerr8:dxerr8.obj
 0002:0001354c       ??_C@_0DK@OBLIOAMB@An?5invalid?5parameter?5was?5passed?5@ 004a354c     dxerr8:dxerr8.obj
 0002:00013588       ??_C@_0HF@GBNFACBO@The?5object?5could?5not?5be?5created?5@ 004a3588     dxerr8:dxerr8.obj
 0002:00013600       ??_C@_0EA@ONANPFNB@The?5operation?5cannot?5be?5performe@ 004a3600     dxerr8:dxerr8.obj
 0002:00013640       ??_C@_0P@EFMPFNBN@No?5more?5items?4?$AA@ 004a3640     dxerr8:dxerr8.obj
 0002:00013650       ??_C@_0DN@KMGMMLHF@Access?5to?5the?5device?5has?5been?5lo@ 004a3650     dxerr8:dxerr8.obj
 0002:00013690       ??_C@_0BB@GAPJAJOJ@Access?5is?5denied?$AA@ 004a3690     dxerr8:dxerr8.obj
 0002:000136a8       ??_C@_0EB@HMPBFFNH@The?5operation?5cannot?5be?5performe@ 004a36a8     dxerr8:dxerr8.obj
 0002:000136ec       ??_C@_0BC@FPMNDDMD@Ran?5out?5of?5memory?$AA@ 004a36ec     dxerr8:dxerr8.obj
 0002:00013700       ??_C@_0CF@DLMJAOLG@This?5object?5has?5not?5been?5initial@ 004a3700     dxerr8:dxerr8.obj
 0002:00013728       ??_C@_0CF@DGOMOPNJ@The?5requested?5object?5does?5not?5ex@ 004a3728     dxerr8:dxerr8.obj
 0002:00013750       ??_C@_0BJ@NHOBODPE@Device?5installer?5errors?4?$AA@ 004a3750     dxerr8:dxerr8.obj
 0002:00013770       ??_C@_0FA@EKGONBFH@Registry?5entry?5or?5DLL?5for?5class?5@ 004a3770     dxerr8:dxerr8.obj
 0002:000137c0       ??_C@_0CK@JJCEANAJ@The?5user?5cancelled?5the?5install?5o@ 004a37c0     dxerr8:dxerr8.obj
 0002:000137f0       ??_C@_0FF@HFJIDMEP@The?5INF?5file?5for?5the?5selected?5de@ 004a37f0     dxerr8:dxerr8.obj
 0002:00013848       ??_C@_0BN@DFCJGEOE@A?5registry?5entry?5is?5corrupt?4?$AA@ 004a3848     dxerr8:dxerr8.obj
 0002:00013868       ??_C@_0LJ@HFOFIEGK@Device?5driver?9specific?5codes?4?5Un@ 004a3868     dxerr8:dxerr8.obj
 0002:00013924       ??_C@_0DE@BOIPBPGJ@An?5operation?5failed?5due?5to?5a?5cer@ 004a3924     dxerr8:dxerr8.obj
 0002:00013958       ??_C@_0IK@NOKFNAID@IPinFlowControl?3?3Block?$CI?$CJ?5has?5bee@ 004a3958     dxerr8:dxerr8.obj
 0002:000139e8       ??_C@_0GL@EOHKKFFC@This?5thread?5has?5already?5blocked?5@ 004a39e8     dxerr8:dxerr8.obj
 0002:00013a54       ??_C@_0CK@IONJBFHP@There?5is?5currently?5no?5resume?5inf@ 004a3a54     dxerr8:dxerr8.obj
 0002:00013a80       ??_C@_0DH@DALGDGPA@The?5specified?5path?5does?5not?5poin@ 004a3a80     dxerr8:dxerr8.obj
 0002:00013ab8       ??_C@_0KF@PBIMNBHE@The?5operation?5depends?5on?5the?5cur@ 004a3ab8     dxerr8:dxerr8.obj
 0002:00013b60       ??_C@_0DJ@NDDINHJP@The?5specified?5stream?5is?5disabled@ 004a3b60     dxerr8:dxerr8.obj
 0002:00013b9c       ??_C@_0DD@NPHGAPPL@Frame?5step?5is?5not?5supported?5on?5t@ 004a3b9c     dxerr8:dxerr8.obj
 0002:00013bd0       ??_C@_0CK@OGFEMFKM@The?5current?5audio?5is?5not?5karaoke@ 004a3bd0     dxerr8:dxerr8.obj
 0002:00013bfc       ??_C@_0CI@FEMHMOGJ@The?5current?5parental?5level?5was?5t@ 004a3bfc     dxerr8:dxerr8.obj
 0002:00013c28       ??_C@_0EI@HAIMBGHD@Currently?5there?5is?5no?5GoUp?5?$CIAnne@ 004a3c28     dxerr8:dxerr8.obj
 0002:00013c70       ??_C@_0DD@COFMOONE@The?5requested?5DVD?5stream?5attribu@ 004a3c70     dxerr8:dxerr8.obj
 0002:00013ca4       ??_C@_0DG@JJAPKMAL@The?5region?5was?5not?5compatible?5wi@ 004a3ca4     dxerr8:dxerr8.obj
 0002:00013cdc       ??_C@_0CJ@ONONFJKD@The?5state?5data?5is?5from?5a?5differe@ 004a3cdc     dxerr8:dxerr8.obj
 0002:00013d08       ??_C@_0BM@HLFAOGDD@The?5state?5data?5was?5corrupt?4?$AA@ 004a3d08     dxerr8:dxerr8.obj
 0002:00013d24       ??_C@_0CP@MNHNFJKA@The?5data?5did?5not?5contain?5a?5recog@ 004a3d24     dxerr8:dxerr8.obj
 0002:00013d58       ??_C@_0EA@PEBPGFPF@The?5specified?5command?5was?5either@ 004a3d58     dxerr8:dxerr8.obj
 0002:00013d98       ??_C@_0CC@IMHICAE@The?5specified?5menu?5doesn?8t?5exist@ 004a3d98     dxerr8:dxerr8.obj
 0002:00013dc0       ??_C@_0EB@OBLPNMIO@The?5operation?5cannot?5be?5performe@ 004a3dc0     dxerr8:dxerr8.obj
 0002:00013e04       ??_C@_0DM@JIPBICOD@This?5object?5cannot?5be?5used?5anymo@ 004a3e04     dxerr8:dxerr8.obj
 0002:00013e40       ??_C@_0GN@MGCJBLFO@Copy?5protection?5cannot?5be?5enable@ 004a3e40     dxerr8:dxerr8.obj
 0002:00013eb0       ??_C@_0FH@NJOOAMMM@Version?5number?5of?5DirectDraw?5not@ 004a3eb0     dxerr8:dxerr8.obj
 0002:00013f08       ??_C@_0EK@EFLKFKOL@DVD?9Video?5playback?5graph?5could?5n@ 004a3f08     dxerr8:dxerr8.obj
 0002:00013f54       ??_C@_0CK@ENDDNCBN@DVD?9Video?5playback?5graph?5buildin@ 004a3f54     dxerr8:dxerr8.obj
 0002:00013f80       ??_C@_0DB@CAJGEIJG@DVD?9Video?5playback?5graph?5has?5not@ 004a3f80     dxerr8:dxerr8.obj
 0002:00013fb8       ??_C@_0IA@MBBIIGMN@The?5specified?5button?5is?5invalid?5@ 004a3fb8     dxerr8:dxerr8.obj
 0002:00014038       ??_C@_0DH@NDADHMNJ@This?5Operation?5is?5not?5permitted?5@ 004a4038     dxerr8:dxerr8.obj
 0002:00014070       ??_C@_0DO@GLJPNHEP@This?5User?5Operation?5is?5inhibited@ 004a4070     dxerr8:dxerr8.obj
 0002:000140b0       ??_C@_0EF@GIJIKINM@No?5Capture?5hardware?5is?5available@ 004a40b0     dxerr8:dxerr8.obj
 0002:000140f8       ??_C@_0EH@KCEPAFE@No?5VideoPort?5hardware?5is?5availab@ 004a40f8     dxerr8:dxerr8.obj
 0002:00014140       ??_C@_0IJ@MIJNGCBP@Either?5DirectDraw?5has?5not?5been?5i@ 004a4140     dxerr8:dxerr8.obj
 0002:000141cc       ??_C@_0DJ@KGLODDLI@The?5VideoPort?5connection?5negotia@ 004a41cc     dxerr8:dxerr8.obj
 0002:00014208       ??_C@_0HC@KLOEHNHP@There?5is?5not?5enough?5Video?5Memory@ 004a4208     dxerr8:dxerr8.obj
 0002:00014280       ??_C@_0EO@FPDKNHPP@The?5Video?5CD?5can?8t?5be?5read?5corre@ 004a4280     dxerr8:dxerr8.obj
 0002:000142d0       ??_C@_0DO@LDEODCKD@Pins?5cannot?5connect?5due?5to?5not?5s@ 004a42d0     dxerr8:dxerr8.obj
 0002:00014310       ??_C@_0DJ@LFPJEHDE@Cannot?5play?5back?5the?5file?4?5?5The?5@ 004a4310     dxerr8:dxerr8.obj
 0002:0001434c       ??_C@_0BP@PCEDLIME@The?5buffer?5is?5not?5full?5enough?4?$AA@ 004a434c     dxerr8:dxerr8.obj
 0002:00014370       ??_C@_0FO@MPLNHMCD@The?5connection?5cannot?5be?5made?5be@ 004a4370     dxerr8:dxerr8.obj
 0002:000143d0       ??_C@_0GJ@HPKHMPBE@Cannot?5get?5or?5set?5time?5related?5i@ 004a43d0     dxerr8:dxerr8.obj
 0002:00014440       ??_C@_0FE@HNBMGIC@Cannot?5perform?5the?5requested?5fun@ 004a4440     dxerr8:dxerr8.obj
 0002:00014498       ??_C@_0FN@MOELHLEI@ActiveMovie?5cannot?5play?5this?5vid@ 004a4498     dxerr8:dxerr8.obj
 0002:000144f8       ??_C@_0EG@HDJAADCH@Cannot?5play?5back?5the?5video?5strea@ 004a44f8     dxerr8:dxerr8.obj
 0002:00014540       ??_C@_0EG@EENBBBLN@Cannot?5play?5back?5the?5audio?5strea@ 004a4540     dxerr8:dxerr8.obj
 0002:00014588       ??_C@_0DH@HFJCECBC@ActiveMovie?5cannot?5play?5MPEG?5mov@ 004a4588     dxerr8:dxerr8.obj
 0002:000145c0       ??_C@_0GG@BNPOLCON@Cannot?5play?5back?5the?5audio?5strea@ 004a45c0     dxerr8:dxerr8.obj
 0002:00014628       ??_C@_0DJ@HPNMOPGB@Cannot?5change?5balance?5because?5au@ 004a4628     dxerr8:dxerr8.obj
 0002:00014664       ??_C@_0CI@JPEPPNIA@No?5media?5time?5format?5has?5been?5se@ 004a4664     dxerr8:dxerr8.obj
 0002:0001468c       ??_C@_0DC@POMNAHAM@No?5media?5time?5stamp?5has?5been?5set@ 004a468c     dxerr8:dxerr8.obj
 0002:000146c0       ??_C@_0CM@FFHHFIED@No?5time?5stamp?5has?5been?5set?5for?5t@ 004a46c0     dxerr8:dxerr8.obj
 0002:000146ec       ??_C@_0DJ@PEMJPBDL@This?5file?5is?5corrupt?3?5it?5contain@ 004a46ec     dxerr8:dxerr8.obj
 0002:00014728       ??_C@_0DP@HANILJBG@This?5file?5is?5corrupt?3?5it?5contain@ 004a4728     dxerr8:dxerr8.obj
 0002:00014768       ??_C@_0CL@IBLGOGJF@The?5version?5number?5of?5the?5file?5i@ 004a4768     dxerr8:dxerr8.obj
 0002:00014794       ??_C@_0CC@JEDACNKK@A?5file?5appeared?5to?5be?5incomplete@ 004a4794     dxerr8:dxerr8.obj
 0002:000147b8       ??_C@_0DF@MJJPBPIH@The?5source?5filter?5for?5this?5file?5@ 004a47b8     dxerr8:dxerr8.obj
 0002:000147f0       ??_C@_0CP@ICJBOIE@The?5media?5type?5of?5this?5file?5is?5n@ 004a47f0     dxerr8:dxerr8.obj
 0002:00014820       ??_C@_0DM@NNALILJP@Cannot?5call?5IVideoWindow?5methods@ 004a4820     dxerr8:dxerr8.obj
 0002:0001485c       ??_C@_0CF@BPHJLFJI@A?5full?9screen?5mode?5is?5not?5availa@ 004a485c     dxerr8:dxerr8.obj
 0002:00014888       ??_C@_0EE@GJOHLMPG@This?5Advise?5cannot?5be?5canceled?5b@ 004a4888     dxerr8:dxerr8.obj
 0002:000148cc       ??_C@_0CE@GLFIKNEO@No?5full?9screen?5modes?5are?5availab@ 004a48cc     dxerr8:dxerr8.obj
 0002:000148f0       ??_C@_0CH@OCFFGKDK@An?5overlay?5advise?5link?5already?5e@ 004a48f0     dxerr8:dxerr8.obj
 0002:00014918       ??_C@_0CO@KEILENCE@Cannot?5render?5the?5file?5because?5i@ 004a4918     dxerr8:dxerr8.obj
 0002:00014948       ??_C@_0CO@GJOALHPN@The?5queued?5command?5has?5already?5b@ 004a4948     dxerr8:dxerr8.obj
 0002:00014978       ??_C@_0DP@DEKOHNMP@An?5attempt?5was?5made?5to?5queue?5a?5c@ 004a4978     dxerr8:dxerr8.obj
 0002:000149b8       ??_C@_0CH@OEFELGPG@Updates?5are?5not?5allowed?5in?5this?5@ 004a49b8     dxerr8:dxerr8.obj
 0002:000149e0       ??_C@_0BO@FIEEKJMP@The?5filter?5graph?5is?5circular?4?$AA@ 004a49e0     dxerr8:dxerr8.obj
 0002:00014a00       ??_C@_0CF@OFBBMAEK@The?5list?5has?5already?5been?5exhaus@ 004a4a00     dxerr8:dxerr8.obj
 0002:00014a28       ??_C@_0BM@CEPCCJON@The?5file?5format?5is?5invalid?4?$AA@ 004a4a28     dxerr8:dxerr8.obj
 0002:00014a44       ??_C@_0BI@KHNHHDA@A?5time?9out?5has?5expired?4?$AA@ 004a4a44     dxerr8:dxerr8.obj
 0002:00014a5c       ??_C@_0DJ@FCCHENLK@An?5attempt?5to?5add?5a?5filter?5with?5@ 004a4a5c     dxerr8:dxerr8.obj
 0002:00014a98       ??_C@_0EP@PPLGIFJN@This?5sample?5cannot?5be?5rendered?5b@ 004a4a98     dxerr8:dxerr8.obj
 0002:00014ae8       ??_C@_0CA@EDGHGFKD@This?5sample?5cannot?5be?5rendered?4?$AA@ 004a4ae8     dxerr8:dxerr8.obj
 0002:00014b08       ??_C@_0CN@BGHNBKCB@This?5pin?5cannot?5use?5the?5supplied@ 004a4b08     dxerr8:dxerr8.obj
 0002:00014b38       ??_C@_0CD@COIJJGHL@The?5supplied?5rectangle?5is?5invali@ 004a4b38     dxerr8:dxerr8.obj
 0002:00014b5c       ??_C@_0DE@LCEJBLBI@The?5sample?5start?5time?5is?5after?5t@ 004a4b5c     dxerr8:dxerr8.obj
 0002:00014b90       ??_C@_0EP@NAFAJOAF@The?5operation?5could?5not?5be?5perfo@ 004a4b90     dxerr8:dxerr8.obj
 0002:00014be0       ??_C@_0EI@LMAHMELG@The?5operation?5could?5not?5be?5perfo@ 004a4be0     dxerr8:dxerr8.obj
 0002:00014c28       ??_C@_0EH@PLLOHBJH@The?5operation?5could?5not?5be?5perfo@ 004a4c28     dxerr8:dxerr8.obj
 0002:00014c70       ??_C@_0EI@EAMKHEJP@The?5operation?5could?5not?5be?5perfo@ 004a4c70     dxerr8:dxerr8.obj
 0002:00014cb8       ??_C@_0DH@PPBJAJCC@The?5state?5changed?5while?5waiting?5@ 004a4cb8     dxerr8:dxerr8.obj
 0002:00014cf0       ??_C@_0DC@HBFPFGIA@Too?5many?5colors?5for?5the?5current?5@ 004a4cf0     dxerr8:dxerr8.obj
 0002:00014d24       ??_C@_0CA@PGNGIGPC@Display?5does?5not?5use?5a?5palette?4?$AA@ 004a4d24     dxerr8:dxerr8.obj
 0002:00014d44       ??_C@_0BJ@PIOFCHON@No?5palette?5is?5available?4?$AA@ 004a4d44     dxerr8:dxerr8.obj
 0002:00014d60       ??_C@_0CE@NMHDBIFK@No?5matching?5color?5key?5is?5availab@ 004a4d60     dxerr8:dxerr8.obj
 0002:00014d88       ??_C@_0EB@KFLLKNGO@Setting?5a?5palette?5would?5conflict@ 004a4d88     dxerr8:dxerr8.obj
 0002:00014dd0       ??_C@_0EB@CFPJGJKB@Setting?5a?5color?5key?5would?5confli@ 004a4dd0     dxerr8:dxerr8.obj
 0002:00014e18       ??_C@_0EA@CLENOJBO@Current?5pin?5connection?5is?5not?5us@ 004a4e18     dxerr8:dxerr8.obj
 0002:00014e58       ??_C@_0DM@BIPHJCNJ@Current?5pin?5connection?5is?5not?5us@ 004a4e58     dxerr8:dxerr8.obj
 0002:00014e94       ??_C@_0BL@NGBBIMCP@No?5color?5key?5has?5been?5set?4?$AA@ 004a4e94     dxerr8:dxerr8.obj
 0002:00014eb0       ??_C@_0CG@MEFLGNDC@Could?5not?5change?5formats?5dynamic@ 004a4eb0     dxerr8:dxerr8.obj
 0002:00014ed8       ??_C@_0DP@CIMONMOC@No?5combination?5of?5filters?5could?5@ 004a4ed8     dxerr8:dxerr8.obj
 0002:00014f18       ??_C@_0EO@HMNKCGLC@No?5combination?5of?5intermediate?5f@ 004a4f18     dxerr8:dxerr8.obj
 0002:00014f68       ??_C@_0CB@EODODMEB@An?5object?5or?5name?5was?5not?5found?4@ 004a4f68     dxerr8:dxerr8.obj
 0002:00014f8c       ??_C@_0CP@IICCLAOJ@A?5required?5interface?5has?5not?5bee@ 004a4f8c     dxerr8:dxerr8.obj
 0002:00014fc0       ??_C@_0EN@IEKOAEMP@Quality?5messages?5could?5not?5be?5se@ 004a4fc0     dxerr8:dxerr8.obj
 0002:00015010       ??_C@_0ED@LAKOBNBK@Cannot?5lock?5for?5synchronization?5@ 004a5010     dxerr8:dxerr8.obj
 0002:00015054       ??_C@_0DF@CCGHIKHE@Cannot?5allocate?5memory?5because?5n@ 004a5054     dxerr8:dxerr8.obj
 0002:0001508c       ??_C@_0DL@GKLBLILJ@Cannot?5allocate?5a?5sample?5when?5th@ 004a508c     dxerr8:dxerr8.obj
 0002:000150c8       ??_C@_0CG@IMMPKPDP@One?5or?5more?5buffers?5are?5still?5ac@ 004a50c8     dxerr8:dxerr8.obj
 0002:000150f0       ??_C@_0DL@LNLMEAFO@Cannot?5change?5allocated?5memory?5w@ 004a50f0     dxerr8:dxerr8.obj
 0002:0001512c       ??_C@_0CE@FKHHPKPN@An?5invalid?5alignment?5was?5specifi@ 004a512c     dxerr8:dxerr8.obj
 0002:00015150       ??_C@_0BO@EPNLBFFE@The?5buffer?5is?5not?5big?5enough?4?$AA@ 004a5150     dxerr8:dxerr8.obj
 0002:00015170       ??_C@_0BN@GEKHEEEO@No?5buffer?5space?5has?5been?5set?$AA@ 004a5170     dxerr8:dxerr8.obj
 0002:00015190       ??_C@_0HM@JANHEBME@A?5mapper?5file?5function?5failed?5be@ 004a5190     dxerr8:dxerr8.obj
 0002:00015210       ??_C@_0BDG@GOALGNDK@SendDeviceData?5failed?5because?5mo@ 004a5210     dxerr8:dxerr8.obj
 0002:00015348       ??_C@_0JD@JJIEENFP@The?5operation?5could?5not?5be?5compl@ 004a5348     dxerr8:dxerr8.obj
 0002:000153e0       ??_C@_0OG@LCMBINDA@An?5attempt?5was?5made?5to?5modify?5pa@ 004a53e0     dxerr8:dxerr8.obj
 0002:000154c8       ??_C@_0HP@CLILIEMK@Attempted?5to?5read?5buffered?5devic@ 004a54c8     dxerr8:dxerr8.obj
 0002:00015548       ??_C@_0JO@LMEKAFII@The?5device?5cannot?5be?5reinitializ@ 004a5548     dxerr8:dxerr8.obj
 0002:000155e8       ??_C@_0JM@EFFHACIP@The?5operation?5cannot?5be?5performe@ 004a55e8     dxerr8:dxerr8.obj
 0002:00015688       ??_C@_0PA@GFMNGLBB@The?5effect?5could?5not?5be?5download@ 004a5688     dxerr8:dxerr8.obj
 0002:00015778       ??_C@_0ED@DHIIMIPF@The?5effect?5is?5not?5downloaded?4?5?$CG?5@ 004a5778     dxerr8:dxerr8.obj
 0002:000157bc       ??_C@_0CG@KJOKJKBL@CoInitialize?5has?5already?5been?5ca@ 004a57bc     dxerr8:dxerr8.obj
 0002:000157e8       ??_C@_0KJ@PIAKFIOK@Unable?5to?5IDirectInputJoyConfig_@ 004a57e8     dxerr8:dxerr8.obj
 0002:00015894       ??_C@_0DO@MPCGLOHK@The?5device?5is?5full?4?5?$CG?5An?5invalid@ 004a5894     dxerr8:dxerr8.obj
 0002:000158d8       ??_C@_0HC@BEFCOMJL@Not?5all?5the?5requested?5informatio@ 004a58d8     dxerr8:dxerr8.obj
 0002:0001594c       ??_C@_0CC@GPLGCPBE@CoInitialize?5has?5not?5been?5called@ 004a594c     dxerr8:dxerr8.obj
 0002:00015970       ??_C@_0BP@FICGBMMK@An?5undetermined?5error?5occurred?$AA@ 004a5970     dxerr8:dxerr8.obj
 0002:00015990       ??_C@_0BF@PGMCHMAN@Catastrophic?5failure?$AA@ 004a5990     dxerr8:dxerr8.obj
 0002:000159a8       ??_C@_0CJ@NLODGJCN@This?5object?5does?5not?5support?5agg@ 004a59a8     dxerr8:dxerr8.obj
 0002:000159d4       ??_C@_0BF@JBKDOPCP@Class?5not?5registered?$AA@ 004a59d4     dxerr8:dxerr8.obj
 0002:000159ec       ??_C@_0BC@NMPPIIEF@Operation?5aborted?$AA@ 004a59ec     dxerr8:dxerr8.obj
 0002:00015a00       ??_C@_0EE@JOAMAAIB@The?5data?5necessary?5to?5complete?5t@ 004a5a00     dxerr8:dxerr8.obj
 0002:00015a44       ??_C@_0DC@JGPOFOHN@The?5function?5called?5is?5not?5suppo@ 004a5a44     dxerr8:dxerr8.obj
 0002:00015a78       ??_C@_0CN@MMEFHKBH@The?5requested?5COM?5interface?5is?5n@ 004a5a78     dxerr8:dxerr8.obj
 0002:00015aa8       ??_C@_0BA@LNOHFKPL@Invalid?5pointer?$AA@ 004a5aa8     dxerr8:dxerr8.obj
 0002:00015ab8       ??_C@_1EGO@IKGIDLAP@?$AAR?$AAe?$AAt?$AAu?$AAr?$AAn?$AAe?$AAd?$AA?5?$AAf?$AAr?$AAo?$AAm?$AA?5?$AAI?$AAD?$AAi?$AAr?$AAe?$AAc@ 004a5ab8     dxerr8:dxerr8.obj
 0002:00015f28       ??_C@_1BFM@DCFMPAEO@?$AAA?$AAl?$AAt?$AAh?$AAo?$AAu?$AAg?$AAh?$AA?5?$AAt?$AAh?$AAe?$AA?5?$AAa?$AAu?$AAd?$AAi?$AAo?$AA?5?$AAo@ 004a5f28     dxerr8:dxerr8.obj
 0002:00016088       ??_C@_1BAC@HLDEEKBO@?$AAT?$AAh?$AAe?$AA?5?$AAr?$AAe?$AAq?$AAu?$AAe?$AAs?$AAt?$AAe?$AAd?$AA?5?$AAo?$AAp?$AAe?$AAr?$AAa?$AAt@ 004a6088     dxerr8:dxerr8.obj
 0002:0001618c       ??_C@_17CKNMLFJK@?$AAn?$AA?1?$AAa?$AA?$AA@ 004a618c     dxerr8:dxerr8.obj
 0002:00016198       ??_C@_1EGI@GAADEKJC@?$AAR?$AAe?$AAt?$AAu?$AAr?$AAn?$AAe?$AAd?$AA?5?$AAf?$AAr?$AAo?$AAm?$AA?5?$AAI?$AAD?$AAi?$AAr?$AAe?$AAc@ 004a6198     dxerr8:dxerr8.obj
 0002:00016600       ??_C@_1PA@GBOLLCLH@?$AAR?$AAe?$AAt?$AAu?$AAr?$AAn?$AA?5?$AAv?$AAa?$AAl?$AAu?$AAe?$AA?5?$AAf?$AAr?$AAo?$AAm?$AA?5?$AAI?$AAD@ 004a6600     dxerr8:dxerr8.obj
 0002:000166f0       ??_C@_1HG@FIGMKAAD@?$AAR?$AAe?$AAt?$AAu?$AAr?$AAn?$AAe?$AAd?$AA?5?$AAs?$AAt?$AAr?$AAi?$AAn?$AAg?$AA?5?$AAh?$AAa?$AAs?$AA?5@ 004a66f0     dxerr8:dxerr8.obj
 0002:00016768       ??_C@_1BFK@KFGAEHEO@?$AAR?$AAe?$AAt?$AAu?$AAr?$AAn?$AAe?$AAd?$AA?5?$AAf?$AAr?$AAo?$AAm?$AA?5?$AAI?$AAD?$AAi?$AAr?$AAe?$AAc@ 004a6768     dxerr8:dxerr8.obj
 0002:000168c8       ??_C@_1CPO@KFNPENOG@?$AAR?$AAe?$AAt?$AAu?$AAr?$AAn?$AAe?$AAd?$AA?5?$AAf?$AAr?$AAo?$AAm?$AA?5?$AAI?$AAD?$AAi?$AAr?$AAe?$AAc@ 004a68c8     dxerr8:dxerr8.obj
 0002:00016bc8       ??_C@_1BAC@CDPMEANA@?$AAR?$AAe?$AAt?$AAu?$AAr?$AAn?$AA?5?$AAv?$AAa?$AAl?$AAu?$AAe?$AA?5?$AAf?$AAr?$AAo?$AAm?$AA?5?$AAI?$AAD@ 004a6bc8     dxerr8:dxerr8.obj
 0002:00016cd0       ??_C@_1CEA@ICNPJHMM@?$AAT?$AAh?$AAe?$AA?5?$AAo?$AAb?$AAj?$AAe?$AAc?$AAt?$AA?5?$AAc?$AAo?$AAu?$AAl?$AAd?$AA?5?$AAo?$AAn?$AAl@ 004a6cd0     dxerr8:dxerr8.obj
 0002:00016f10       ??_C@_1BMO@CMEMIFMJ@?$AAR?$AAe?$AAt?$AAu?$AAr?$AAn?$AA?5?$AAv?$AAa?$AAl?$AAu?$AAe?$AA?5?$AAf?$AAr?$AAo?$AAm?$AA?5?$AAI?$AAD@ 004a6f10     dxerr8:dxerr8.obj
 0002:000170e0       ??_C@_1BAM@MEIAJKFO@?$AAR?$AAe?$AAt?$AAu?$AAr?$AAn?$AA?5?$AAv?$AAa?$AAl?$AAu?$AAe?$AA?5?$AAf?$AAr?$AAo?$AAm?$AA?5?$AAI?$AAD@ 004a70e0     dxerr8:dxerr8.obj
 0002:000171f0       ??_C@_1IO@BNOKKJIE@?$AAT?$AAh?$AAe?$AA?5?$AAc?$AAa?$AAl?$AAl?$AA?5?$AAs?$AAu?$AAc?$AAc?$AAe?$AAe?$AAd?$AAe?$AAd?$AA?0?$AA?5@ 004a71f0     dxerr8:dxerr8.obj
 0002:00017280       ??_C@_1BI@NEGIEGEO@?$AAF?$AAu?$AAl?$AAl?$AA?5?$AAd?$AAu?$AAp?$AAl?$AAe?$AAx?$AA?$AA@ 004a7280     dxerr8:dxerr8.obj
 0002:00017298       ??_C@_1BI@FBILDEGO@?$AAH?$AAa?$AAl?$AAf?$AA?5?$AAd?$AAu?$AAp?$AAl?$AAe?$AAx?$AA?$AA@ 004a7298     dxerr8:dxerr8.obj
 0002:000172b0       ??_C@_1BA@JBKHJMJG@?$AAP?$AAe?$AAn?$AAd?$AAi?$AAn?$AAg?$AA?$AA@ 004a72b0     dxerr8:dxerr8.obj
 0002:000172c0       ??_C@_1HM@MHICALCP@?$AAT?$AAh?$AAe?$AA?5?$AAc?$AAa?$AAl?$AAl?$AA?5?$AAs?$AAu?$AAc?$AAc?$AAe?$AAe?$AAd?$AAe?$AAd?$AA?0?$AA?5@ 004a72c0     dxerr8:dxerr8.obj
 0002:00017340       ??_C@_1GA@EADIKJEC@?$AAT?$AAh?$AAe?$AA?5?$AAs?$AAe?$AAe?$AAk?$AA?5?$AAi?$AAn?$AAt?$AAo?$AA?5?$AAt?$AAh?$AAe?$AA?5?$AAm?$AAo@ 004a7340     dxerr8:dxerr8.obj
 0002:000173a0       ??_C@_1OE@HIBDNAGD@?$AAT?$AAh?$AAe?$AAr?$AAe?$AA?5?$AAw?$AAa?$AAs?$AA?5?$AAn?$AAo?$AA?5?$AAp?$AAr?$AAe?$AAv?$AAi?$AAe?$AAw@ 004a73a0     dxerr8:dxerr8.obj
 0002:00017488       ??_C@_1PG@HEIHIFE@?$AAT?$AAh?$AAe?$AA?5?$AAc?$AAu?$AAr?$AAr?$AAe?$AAn?$AAt?$AA?5?$AAt?$AAi?$AAt?$AAl?$AAe?$AA?5?$AAw?$AAa@ 004a7488     dxerr8:dxerr8.obj
 0002:00017580       ??_C@_1MG@NIGLENOE@?$AAT?$AAh?$AAe?$AA?5?$AAa?$AAu?$AAd?$AAi?$AAo?$AA?5?$AAs?$AAt?$AAr?$AAe?$AAa?$AAm?$AA?5?$AAd?$AAi?$AAd@ 004a7580     dxerr8:dxerr8.obj
 0002:00017648       ??_C@_1FE@CBCOLLEG@?$AAT?$AAh?$AAe?$AA?5?$AAs?$AAt?$AAo?$AAp?$AA?5?$AAt?$AAi?$AAm?$AAe?$AA?5?$AAf?$AAo?$AAr?$AA?5?$AAt?$AAh@ 004a7648     dxerr8:dxerr8.obj
 0002:000176a0       ??_C@_1JM@GKMCMEEM@?$AAT?$AAh?$AAe?$AA?5?$AAv?$AAa?$AAl?$AAu?$AAe?$AA?5?$AAr?$AAe?$AAt?$AAu?$AAr?$AAn?$AAe?$AAd?$AA?5?$AAh@ 004a76a0     dxerr8:dxerr8.obj
 0002:00017740       ??_C@_1JA@OGJBNPL@?$AAT?$AAh?$AAi?$AAs?$AA?5?$AAs?$AAu?$AAc?$AAc?$AAe?$AAs?$AAs?$AA?5?$AAc?$AAo?$AAd?$AAe?$AA?5?$AAi?$AAs@ 004a7740     dxerr8:dxerr8.obj
 0002:000177d0       ??_C@_1EA@GFCOFLLI@?$AAT?$AAh?$AAe?$AA?5?$AAs?$AAt?$AAr?$AAe?$AAa?$AAm?$AA?5?$AAh?$AAa?$AAs?$AA?5?$AAb?$AAe?$AAe?$AAn?$AA?5@ 004a77d0     dxerr8:dxerr8.obj
 0002:00017810       ??_C@_1HI@MHKBICLM@?$AAT?$AAh?$AAe?$AA?5?$AAg?$AAr?$AAa?$AAp?$AAh?$AA?5?$AAc?$AAa?$AAn?$AA?8?$AAt?$AA?5?$AAb?$AAe?$AA?5?$AAc@ 004a7810     dxerr8:dxerr8.obj
 0002:00017888       ??_C@_1IG@CGKGHECN@?$AAC?$AAa?$AAn?$AAn?$AAo?$AAt?$AA?5?$AAp?$AAl?$AAa?$AAy?$AA?5?$AAb?$AAa?$AAc?$AAk?$AA?5?$AAt?$AAh?$AAe@ 004a7888     dxerr8:dxerr8.obj
 0002:00017910       ??_C@_1FI@MIABPGAH@?$AAT?$AAh?$AAe?$AA?5?$AAr?$AAe?$AAs?$AAo?$AAu?$AAr?$AAc?$AAe?$AA?5?$AAs?$AAp?$AAe?$AAc?$AAi?$AAf?$AAi@ 004a7910     dxerr8:dxerr8.obj
 0002:00017968       ??_C@_1PI@CAFFJJDB@?$AAA?$AA?5?$AAc?$AAo?$AAn?$AAn?$AAe?$AAc?$AAt?$AAi?$AAo?$AAn?$AA?5?$AAc?$AAo?$AAu?$AAl?$AAd?$AA?5?$AAn@ 004a7968     dxerr8:dxerr8.obj
 0002:00017a60       ??_C@_1JI@DCEOONOH@?$AAC?$AAa?$AAn?$AAn?$AAo?$AAt?$AA?5?$AAp?$AAl?$AAa?$AAy?$AA?5?$AAb?$AAa?$AAc?$AAk?$AA?5?$AAt?$AAh?$AAe@ 004a7a60     dxerr8:dxerr8.obj
 0002:00017af8       ??_C@_1IG@DOBCKKNG@?$AAC?$AAa?$AAn?$AAn?$AAo?$AAt?$AA?5?$AAp?$AAl?$AAa?$AAy?$AA?5?$AAb?$AAa?$AAc?$AAk?$AA?5?$AAt?$AAh?$AAe@ 004a7af8     dxerr8:dxerr8.obj
 0002:00017b80       ??_C@_1GK@FKDHOIKL@?$AAS?$AAo?$AAm?$AAe?$AA?5?$AAc?$AAo?$AAn?$AAn?$AAe?$AAc?$AAt?$AAi?$AAo?$AAn?$AAs?$AA?5?$AAh?$AAa?$AAv@ 004a7b80     dxerr8:dxerr8.obj
 0002:00017bf0       ??_C@_1KC@BFFNPIEG@?$AAA?$AAn?$AA?5?$AAa?$AAt?$AAt?$AAe?$AAm?$AAp?$AAt?$AA?5?$AAt?$AAo?$AA?5?$AAa?$AAd?$AAd?$AA?5?$AAa?$AA?5@ 004a7bf0     dxerr8:dxerr8.obj
 0002:00017c98       ??_C@_1FA@GLFMLIHB@?$AAT?$AAh?$AAe?$AA?5?$AAs?$AAt?$AAa?$AAt?$AAe?$AA?5?$AAt?$AAr?$AAa?$AAn?$AAs?$AAi?$AAt?$AAi?$AAo?$AAn@ 004a7c98     dxerr8:dxerr8.obj
 0002:00017ce8       ??_C@_1IA@LGNLHCPL@?$AAS?$AAo?$AAm?$AAe?$AA?5?$AAo?$AAf?$AA?5?$AAt?$AAh?$AAe?$AA?5?$AAs?$AAt?$AAr?$AAe?$AAa?$AAm?$AAs?$AA?5@ 004a7ce8     dxerr8:dxerr8.obj
 0002:00017d68       ??_C@_1HM@GELMGGDL@?$AAT?$AAh?$AAe?$AA?5?$AAf?$AAi?$AAl?$AAe?$AA?5?$AAc?$AAo?$AAn?$AAt?$AAa?$AAi?$AAn?$AAe?$AAd?$AA?5?$AAs@ 004a7d68     dxerr8:dxerr8.obj
 0002:00017de8       ??_C@_1EM@CCGDABCM@?$AAT?$AAh?$AAe?$AA?5?$AAe?$AAn?$AAd?$AA?5?$AAo?$AAf?$AA?5?$AAt?$AAh?$AAe?$AA?5?$AAl?$AAi?$AAs?$AAt?$AA?5@ 004a7de8     dxerr8:dxerr8.obj
 0002:00017e38       ??_C@_1FM@ELBEEMFB@?$AAT?$AAh?$AAe?$AA?5?$AAs?$AAt?$AAo?$AAr?$AAa?$AAg?$AAe?$AA?5?$AAc?$AAo?$AAn?$AAt?$AAr?$AAo?$AAl?$AA?5@ 004a7e38     dxerr8:dxerr8.obj
 0002:00017e94       ??_C@_1DM@JAJBJDIL@?$AAT?$AAh?$AAe?$AA?5?$AAe?$AAn?$AAv?$AAi?$AAr?$AAo?$AAn?$AAm?$AAe?$AAn?$AAt?$AA?5?$AAi?$AAs?$AA?5?$AAi@ 004a7e94     dxerr8:dxerr8.obj
 0002:00017ed0       ??_C@_1IA@FJOKHGGG@?$AAA?$AAn?$AA?5?$AAa?$AAt?$AAt?$AAe?$AAm?$AAp?$AAt?$AA?5?$AAw?$AAa?$AAs?$AA?5?$AAm?$AAa?$AAd?$AAe?$AA?5@ 004a7ed0     dxerr8:dxerr8.obj
 0002:00017f50       ??_C@_1FI@KGOFMBFB@?$AAT?$AAh?$AAe?$AA?5?$AAs?$AAy?$AAs?$AAt?$AAe?$AAm?$AA?5?$AAc?$AAa?$AAn?$AAn?$AAo?$AAt?$AA?5?$AAf?$AAi@ 004a7f50     dxerr8:dxerr8.obj
 0002:00017fa8       ??_C@_1HC@MPDMKAGA@?$AAN?$AAo?$AAt?$AA?5?$AAe?$AAn?$AAo?$AAu?$AAg?$AAh?$AA?5?$AAs?$AAt?$AAo?$AAr?$AAa?$AAg?$AAe?$AA?5?$AAi@ 004a7fa8     dxerr8:dxerr8.obj
 0002:00018020       ??_C@_1FG@DMAIPBKD@?$AAT?$AAh?$AAe?$AA?5?$AAs?$AAy?$AAs?$AAt?$AAe?$AAm?$AA?5?$AAc?$AAa?$AAn?$AAn?$AAo?$AAt?$AA?5?$AAf?$AAi@ 004a8020     dxerr8:dxerr8.obj
 0002:00018078       ??_C@_1EC@FOGHBGOJ@?$AAT?$AAh?$AAe?$AA?5?$AAs?$AAy?$AAs?$AAt?$AAe?$AAm?$AA?5?$AAc?$AAa?$AAn?$AAn?$AAo?$AAt?$AA?5?$AAo?$AAp@ 004a8078     dxerr8:dxerr8.obj
 0002:000180bc       ??_C@_1CE@NMIEOHO@?$AAA?$AAc?$AAc?$AAe?$AAs?$AAs?$AA?5?$AAi?$AAs?$AA?5?$AAd?$AAe?$AAn?$AAi?$AAe?$AAd?$AA?4?$AA?$AA@ 004a80bc     dxerr8:dxerr8.obj
 0002:000180e0       ??_C@_1CO@CAJKBGLL@?$AAT?$AAh?$AAe?$AA?5?$AAh?$AAa?$AAn?$AAd?$AAl?$AAe?$AA?5?$AAi?$AAs?$AA?5?$AAi?$AAn?$AAv?$AAa?$AAl?$AAi@ 004a80e0     dxerr8:dxerr8.obj
 0002:00018110       ??_C@_1FG@NODILCLJ@?$AAT?$AAh?$AAe?$AA?5?$AAs?$AAy?$AAs?$AAt?$AAe?$AAm?$AA?5?$AAc?$AAa?$AAn?$AAn?$AAo?$AAt?$AA?5?$AAf?$AAi@ 004a8110     dxerr8:dxerr8.obj
 0002:00018168       ??_C@_1EI@BCLAPACI@?$AAC?$AAa?$AAl?$AAl?$AA?5?$AAs?$AAu?$AAc?$AAc?$AAe?$AAs?$AAs?$AAf?$AAu?$AAl?$AA?0?$AA?5?$AAb?$AAu?$AAt@ 004a8168     dxerr8:dxerr8.obj
 0002:000181b0       ??_C@_1EI@GCFGPIEA@?$AAT?$AAh?$AAe?$AA?5?$AAf?$AAu?$AAn?$AAc?$AAt?$AAi?$AAo?$AAn?$AA?5?$AAc?$AAo?$AAm?$AAp?$AAl?$AAe?$AAt@ 004a81b0     dxerr8:dxerr8.obj
 0002:000181f8       ??_C@_1GI@BMMBKMOK@?$AAT?$AAh?$AAe?$AA?5?$AAf?$AAi?$AAl?$AAe?$AA?5?$AAd?$AAo?$AAe?$AAs?$AA?5?$AAn?$AAo?$AAt?$AA?5?$AAc?$AAo@ 004a81f8     dxerr8:dxerr8.obj
 0002:00018260       ??_C@_1MG@KOHBDAAM@?$AAA?$AAt?$AAt?$AAe?$AAm?$AAp?$AAt?$AA?5?$AAw?$AAa?$AAs?$AA?5?$AAm?$AAa?$AAd?$AAe?$AA?5?$AAt?$AAo?$AA?5@ 004a8260     dxerr8:dxerr8.obj
 0002:00018328       ??_C@_1FK@DJFKJENL@?$AAI?$AAn?$AAv?$AAa?$AAl?$AAi?$AAd?$AA?5?$AAd?$AAa?$AAt?$AAa?$AA?5?$AAw?$AAa?$AAs?$AA?5?$AAf?$AAo?$AAu@ 004a8328     dxerr8:dxerr8.obj
 0002:00018388       ??_C@_1JO@FMGGHCHL@?$AAA?$AAt?$AAt?$AAe?$AAm?$AAp?$AAt?$AA?5?$AAw?$AAa?$AAs?$AA?5?$AAm?$AAa?$AAd?$AAe?$AA?5?$AAt?$AAo?$AA?5@ 004a8388     dxerr8:dxerr8.obj
 0002:00018428       ??_C@_1KA@MBOPAEOM@?$AAA?$AAn?$AA?5?$AAa?$AAu?$AAd?$AAi?$AAo?$AAp?$AAa?$AAt?$AAh?$AA?5?$AAc?$AAo?$AAu?$AAl?$AAd?$AA?5?$AAn@ 004a8428     dxerr8:dxerr8.obj
 0002:000184c8       ??_C@_1JO@DOAOCEJN@?$AAA?$AAn?$AA?5?$AAa?$AAu?$AAd?$AAi?$AAo?$AAp?$AAa?$AAt?$AAh?$AA?5?$AAf?$AAa?$AAi?$AAl?$AAe?$AAd?$AA?5@ 004a84c8     dxerr8:dxerr8.obj
 0002:00018568       ??_C@_1IA@ICEGKBBG@?$AAA?$AAn?$AA?5?$AAa?$AAu?$AAd?$AAi?$AAo?$AAp?$AAa?$AAt?$AAh?$AA?5?$AAi?$AAs?$AA?5?$AAi?$AAn?$AAa?$AAc@ 004a8568     dxerr8:dxerr8.obj
 0002:000185e8       ??_C@_1LK@KEFCHPNP@?$AAA?$AA?5?$AAs?$AAe?$AAg?$AAm?$AAe?$AAn?$AAt?$AA?5?$AAo?$AAr?$AA?5?$AAs?$AAo?$AAn?$AAg?$AA?5?$AAw?$AAa@ 004a85e8     dxerr8:dxerr8.obj
 0002:000186a8       ??_C@_1BEA@JGCDPEDG@?$AAT?$AAh?$AAi?$AAs?$AA?5?$AAi?$AAs?$AA?5?$AAt?$AAh?$AAe?$AA?5?$AAi?$AAn?$AAv?$AAe?$AAr?$AAs?$AAe?$AA?5@ 004a86a8     dxerr8:dxerr8.obj
 0002:000187e8       ??_C@_1BAE@GLJNJJJF@?$AAT?$AAh?$AAe?$AA?5?$AAP?$AAe?$AAr?$AAf?$AAo?$AAr?$AAm?$AAa?$AAn?$AAc?$AAe?$AA?5?$AAh?$AAa?$AAs?$AA?5@ 004a87e8     dxerr8:dxerr8.obj
 0002:000188f0       ??_C@_1BKC@PBCIBPAL@?$AAA?$AA?5?$AAs?$AAc?$AAr?$AAi?$AAp?$AAt?$AA?5?$AAr?$AAo?$AAu?$AAt?$AAi?$AAn?$AAe?$AA?5?$AAw?$AAr?$AAi@ 004a88f0     dxerr8:dxerr8.obj
 0002:00018a98       ??_C@_1BMG@ICNLJFLH@?$AAA?$AA?5?$AAs?$AAc?$AAr?$AAi?$AAp?$AAt?$AA?5?$AAr?$AAo?$AAu?$AAt?$AAi?$AAn?$AAe?$AA?5?$AAw?$AAr?$AAi@ 004a8a98     dxerr8:dxerr8.obj
 0002:00018c60       ??_C@_1BBA@PGLNOOCJ@?$AAA?$AA?5?$AAs?$AAc?$AAr?$AAi?$AAp?$AAt?$AA?5?$AAw?$AAr?$AAi?$AAt?$AAt?$AAe?$AAn?$AA?5?$AAi?$AAn?$AA?5@ 004a8c60     dxerr8:dxerr8.obj
 0002:00018d70       ??_C@_1GM@CNDINJDH@?$AAT?$AAh?$AAe?$AA?5?$AAf?$AAi?$AAl?$AAe?$AA?5?$AAc?$AAo?$AAn?$AAt?$AAa?$AAi?$AAn?$AAs?$AA?5?$AAa?$AAn@ 004a8d70     dxerr8:dxerr8.obj
 0002:00018de0       ??_C@_1FG@ICIEOCMP@?$AAT?$AAh?$AAe?$AA?5?$AAf?$AAi?$AAl?$AAe?$AA?5?$AAc?$AAo?$AAn?$AAt?$AAa?$AAi?$AAn?$AAs?$AA?5?$AAa?$AAn@ 004a8de0     dxerr8:dxerr8.obj
 0002:00018e38       ??_C@_1GI@LMOKIPKG@?$AAT?$AAh?$AAe?$AA?5?$AAf?$AAi?$AAl?$AAe?$AA?5?$AAc?$AAo?$AAn?$AAt?$AAa?$AAi?$AAn?$AAs?$AA?5?$AAa?$AAn@ 004a8e38     dxerr8:dxerr8.obj
 0002:00018ea0       ??_C@_1OE@ENGAIMOB@?$AAA?$AAt?$AAt?$AAe?$AAm?$AAp?$AAt?$AA?5?$AAw?$AAa?$AAs?$AA?5?$AAm?$AAa?$AAd?$AAe?$AA?5?$AAt?$AAo?$AA?5@ 004a8ea0     dxerr8:dxerr8.obj
 0002:00018f88       ??_C@_1MC@CEECIGHI@?$AAA?$AAt?$AAt?$AAe?$AAm?$AAp?$AAt?$AA?5?$AAw?$AAa?$AAs?$AA?5?$AAm?$AAa?$AAd?$AAe?$AA?5?$AAt?$AAo?$AA?5@ 004a8f88     dxerr8:dxerr8.obj
 0002:00019050       ??_C@_1KA@OIBGOIBC@?$AAS?$AAc?$AAr?$AAi?$AAp?$AAt?$AAs?$AA?5?$AAv?$AAa?$AAr?$AAi?$AAa?$AAb?$AAl?$AAe?$AAs?$AA?5?$AAf?$AAo@ 004a9050     dxerr8:dxerr8.obj
 0002:000190f0       ??_C@_1HO@FMKENJPP@?$AAT?$AAh?$AAe?$AA?5?$AAs?$AAc?$AAr?$AAi?$AAp?$AAt?$AA?5?$AAd?$AAo?$AAe?$AAs?$AA?5?$AAn?$AAo?$AAt?$AA?5@ 004a90f0     dxerr8:dxerr8.obj
 0002:00019170       ??_C@_1IA@IPBFJNOO@?$AAT?$AAh?$AAe?$AA?5?$AAs?$AAc?$AAr?$AAi?$AAp?$AAt?$AA?5?$AAd?$AAo?$AAe?$AAs?$AA?5?$AAn?$AAo?$AAt?$AA?5@ 004a9170     dxerr8:dxerr8.obj
 0002:000191f0       ??_C@_1FG@NEANPJIE@?$AAT?$AAh?$AAe?$AA?5?$AAf?$AAi?$AAl?$AAe?$AA?5?$AAc?$AAo?$AAn?$AAt?$AAa?$AAi?$AAn?$AAs?$AA?5?$AAa?$AAn@ 004a91f0     dxerr8:dxerr8.obj
 0002:00019248       ??_C@_1DI@DLPJNIHO@?$AAT?$AAh?$AAe?$AA?5?$AAs?$AAc?$AAr?$AAi?$AAp?$AAt?$AA?5?$AAf?$AAi?$AAl?$AAe?$AA?5?$AAi?$AAs?$AA?5?$AAi@ 004a9248     dxerr8:dxerr8.obj
 0002:00019280       ??_C@_1OA@GCIHCONK@?$AAA?$AAn?$AA?5?$AAe?$AAr?$AAr?$AAo?$AAr?$AA?5?$AAo?$AAc?$AAc?$AAu?$AAr?$AAe?$AAd?$AA?5?$AAw?$AAh?$AAi@ 004a9280     dxerr8:dxerr8.obj
 0002:00019360       ??_C@_1BOG@BHDFOJFA@?$AAL?$AAo?$AAa?$AAd?$AAi?$AAn?$AAg?$AA?5?$AAo?$AAf?$AA?5?$AAo?$AAl?$AAe?$AAa?$AAu?$AAt?$AA3?$AA2?$AA?4@ 004a9360     dxerr8:dxerr8.obj
 0002:00019548       ??_C@_1BCI@EICBPDPK@?$AAA?$AAn?$AA?5?$AAe?$AAr?$AAr?$AAo?$AAr?$AA?5?$AAw?$AAa?$AAs?$AA?5?$AAe?$AAn?$AAc?$AAo?$AAu?$AAn?$AAt@ 004a9548     dxerr8:dxerr8.obj
 0002:00019670       ??_C@_1JC@IJCBNKEP@?$AAA?$AA?5?$AAv?$AAa?$AAr?$AAi?$AAe?$AAn?$AAt?$AA?5?$AAw?$AAa?$AAs?$AA?5?$AAu?$AAs?$AAe?$AAd?$AA?5?$AAt@ 004a9670     dxerr8:dxerr8.obj
 0002:00019708       ??_C@_1LG@HLLEGGPJ@?$AAT?$AAh?$AAe?$AA?5?$AAa?$AAc?$AAt?$AAi?$AAv?$AAe?$AAX?$AA?5?$AAs?$AAc?$AAr?$AAi?$AAp?$AAt?$AAi?$AAn@ 004a9708     dxerr8:dxerr8.obj
 0002:000197c0       ??_C@_1JE@CKJPJJMK@?$AAA?$AAn?$AA?5?$AAa?$AAt?$AAt?$AAe?$AAm?$AAp?$AAt?$AA?5?$AAt?$AAo?$AA?5?$AAu?$AAs?$AAe?$AA?5?$AAt?$AAh@ 004a97c0     dxerr8:dxerr8.obj
 0002:00019858       ??_C@_1OA@PLMAJHJI@?$AAD?$AAM?$AAU?$AAS?$AA_?$AAE?$AA_?$AAD?$AAE?$AAS?$AAC?$AAE?$AAN?$AAD?$AA_?$AAC?$AAH?$AAU?$AAN?$AAK@ 004a9858     dxerr8:dxerr8.obj
 0002:00019938       ??_C@_1BKO@ELNFLHOJ@?$AAA?$AA?5?$AAc?$AAa?$AAl?$AAl?$AA?5?$AAt?$AAo?$AA?5?$AAM?$AAI?$AAD?$AAI?$AAT?$AAo?$AAM?$AAu?$AAs?$AAi@ 004a9938     dxerr8:dxerr8.obj
 0002:00019ae8       ??_C@_1FK@DNGGICJA@?$AAT?$AAh?$AAe?$AA?5?$AAd?$AAe?$AAf?$AAa?$AAu?$AAl?$AAt?$AA?5?$AAs?$AAy?$AAs?$AAt?$AAe?$AAm?$AA?5?$AAp@ 004a9ae8     dxerr8:dxerr8.obj
 0002:00019b48       ??_C@_1BEK@PGDEACHC@?$AAT?$AAh?$AAe?$AA?5?$AAD?$AAM?$AAU?$AAS?$AA_?$AAP?$AAM?$AAS?$AAG?$AA?5?$AAw?$AAa?$AAs?$AA?5?$AAe?$AAi@ 004a9b48     dxerr8:dxerr8.obj
 0002:00019c98       ??_C@_1MO@GACMBEP@?$AAT?$AAh?$AAe?$AA?5?$AAD?$AAM?$AAU?$AAS?$AA_?$AAP?$AAM?$AAS?$AAG?$AA?5?$AAh?$AAa?$AAs?$AA?5?$AAa?$AAl@ 004a9c98     dxerr8:dxerr8.obj
 0002:00019d68       ??_C@_1GG@JGOLMAKJ@?$AAT?$AAh?$AAe?$AA?5?$AAf?$AAi?$AAl?$AAe?$AA?5?$AAn?$AAa?$AAm?$AAe?$AA?5?$AAi?$AAs?$AA?5?$AAm?$AAi?$AAs@ 004a9d68     dxerr8:dxerr8.obj
 0002:00019dd0       ??_C@_1FA@KFDFGAEN@?$AAT?$AAh?$AAe?$AA?5?$AAf?$AAi?$AAl?$AAe?$AA?5?$AAr?$AAe?$AAq?$AAu?$AAe?$AAs?$AAt?$AAe?$AAd?$AA?5?$AAi@ 004a9dd0     dxerr8:dxerr8.obj
 0002:00019e20       ??_C@_1IG@IPDJGCNP@?$AAT?$AAh?$AAe?$AA?5?$AAt?$AAo?$AAo?$AAl?$AA?5?$AAi?$AAs?$AA?5?$AAa?$AAl?$AAr?$AAe?$AAa?$AAd?$AAy?$AA?5@ 004a9e20     dxerr8:dxerr8.obj
 0002:00019ea8       ??_C@_1KK@CDLLOFME@?$AAV?$AAa?$AAl?$AAu?$AAe?$AA?5?$AAi?$AAs?$AA?5?$AAo?$AAu?$AAt?$AA?5?$AAo?$AAf?$AA?5?$AAr?$AAa?$AAn?$AAg@ 004a9ea8     dxerr8:dxerr8.obj
 0002:00019f58       ??_C@_1JO@EPIKMNOD@?$AAS?$AAe?$AAg?$AAm?$AAe?$AAn?$AAt?$AA?5?$AAi?$AAn?$AAi?$AAt?$AAi?$AAa?$AAl?$AAi?$AAz?$AAa?$AAt?$AAi@ 004a9f58     dxerr8:dxerr8.obj
 0002:00019ff8       ??_C@_1CM@JOHOGLNE@?$AAO?$AAb?$AAj?$AAe?$AAc?$AAt?$AA?5?$AAw?$AAa?$AAs?$AA?5?$AAn?$AAo?$AAt?$AA?5?$AAf?$AAo?$AAu?$AAn?$AAd@ 004a9ff8     dxerr8:dxerr8.obj
 0002:0001a028       ??_C@_1IG@PCMAOFII@?$AAT?$AAh?$AAe?$AA?5?$AAc?$AAl?$AAa?$AAs?$AAs?$AA?5?$AAi?$AAd?$AA?5?$AAf?$AAi?$AAe?$AAl?$AAd?$AA?5?$AAi@ 004aa028     dxerr8:dxerr8.obj
 0002:0001a0b0       ??_C@_1EI@BKNBGBLG@?$AAT?$AAh?$AAe?$AA?5?$AAr?$AAe?$AAq?$AAu?$AAe?$AAs?$AAt?$AAe?$AAd?$AA?5?$AAf?$AAi?$AAl?$AAe?$AA?5?$AAp@ 004aa0b0     dxerr8:dxerr8.obj
 0002:0001a0f8       ??_C@_1HG@KKBFPAJG@?$AAF?$AAi?$AAl?$AAe?$AA?5?$AAo?$AAp?$AAe?$AAn?$AA?5?$AAf?$AAa?$AAi?$AAl?$AAe?$AAd?$AA?5?$AA?9?$AA?5?$AAe@ 004aa0f8     dxerr8:dxerr8.obj
 0002:0001a170       ??_C@_1EG@FMELILFL@?$AAS?$AAe?$AAa?$AAr?$AAc?$AAh?$AA?5?$AAd?$AAa?$AAt?$AAa?$AA?5?$AAt?$AAy?$AAp?$AAe?$AA?5?$AAi?$AAs?$AA?5@ 004aa170     dxerr8:dxerr8.obj
 0002:0001a1b8       ??_C@_1EC@EPGIDOG@?$AAU?$AAn?$AAa?$AAb?$AAl?$AAe?$AA?5?$AAt?$AAo?$AA?5?$AAf?$AAi?$AAn?$AAd?$AA?5?$AAo?$AAr?$AA?5?$AAc?$AAr@ 004aa1b8     dxerr8:dxerr8.obj
 0002:0001a200       ??_C@_1LM@EGLGLGKJ@?$AAT?$AAh?$AAe?$AAr?$AAe?$AA?5?$AAi?$AAs?$AA?5?$AAn?$AAo?$AA?5?$AAm?$AAa?$AAs?$AAt?$AAe?$AAr?$AA?5?$AAc@ 004aa200     dxerr8:dxerr8.obj
 0002:0001a2c0       ??_C@_1HI@BNNGFKFN@?$AAT?$AAh?$AAe?$AA?5?$AAt?$AAr?$AAa?$AAc?$AAk?$AA?5?$AAd?$AAo?$AAe?$AAs?$AA?5?$AAn?$AAo?$AAt?$AA?5?$AAs@ 004aa2c0     dxerr8:dxerr8.obj
 0002:0001a338       ??_C@_1GK@GKJDKKIF@?$AAT?$AAh?$AAe?$AA?5?$AAr?$AAe?$AAq?$AAu?$AAe?$AAs?$AAt?$AAe?$AAd?$AA?5?$AAt?$AAr?$AAa?$AAc?$AAk?$AA?5@ 004aa338     dxerr8:dxerr8.obj
 0002:0001a3a8       ??_C@_1HI@OJADALEL@?$AAT?$AAh?$AAe?$AA?5?$AAt?$AAi?$AAm?$AAe?$AA?5?$AAi?$AAs?$AA?5?$AAi?$AAn?$AA?5?$AAt?$AAh?$AAe?$AA?5?$AAp@ 004aa3a8     dxerr8:dxerr8.obj
 0002:0001a420       ??_C@_1HK@HKKDOLOK@?$AAT?$AAh?$AAe?$AA?5?$AAr?$AAe?$AAq?$AAu?$AAe?$AAs?$AAt?$AAe?$AAd?$AA?5?$AAp?$AAa?$AAr?$AAa?$AAm?$AAe@ 004aa420     dxerr8:dxerr8.obj
 0002:0001a4a0       ??_C@_1BAA@NMGKHCNJ@?$AAT?$AAh?$AAe?$AA?5?$AAr?$AAe?$AAq?$AAu?$AAe?$AAs?$AAt?$AAe?$AAd?$AA?5?$AAp?$AAa?$AAr?$AAa?$AAm?$AAe@ 004aa4a0     dxerr8:dxerr8.obj
 0002:0001a5a0       ??_C@_1HM@FOJPENC@?$AAA?$AA?5?$AAr?$AAe?$AAq?$AAu?$AAi?$AAr?$AAe?$AAd?$AA?5?$AAo?$AAb?$AAj?$AAe?$AAc?$AAt?$AA?5?$AAi?$AAs@ 004aa5a0     dxerr8:dxerr8.obj
 0002:0001a620       ??_C@_1BGG@NDDEJOPN@?$AAT?$AAh?$AAe?$AA?5?$AAs?$AAe?$AAg?$AAm?$AAe?$AAn?$AAt?$AA?5?$AAo?$AAb?$AAj?$AAe?$AAc?$AAt?$AA?5?$AAw@ 004aa620     dxerr8:dxerr8.obj
 0002:0001a788       ??_C@_1BFO@MCGMKKMJ@?$AAT?$AAh?$AAe?$AA?5?$AAg?$AAr?$AAa?$AAp?$AAh?$AA?5?$AAo?$AAb?$AAj?$AAe?$AAc?$AAt?$AA?5?$AAw?$AAa?$AAs@ 004aa788     dxerr8:dxerr8.obj
 0002:0001a8e8       ??_C@_1BBO@FMKFNEEO@?$AAT?$AAh?$AAe?$AA?5?$AAI?$AAS?$AAt?$AAr?$AAe?$AAa?$AAm?$AA?$CK?$AA?5?$AAo?$AAb?$AAj?$AAe?$AAc?$AAt?$AA?8@ 004aa8e8     dxerr8:dxerr8.obj
 0002:0001aa08       ??_C@_1BCE@EKJKLKOF@?$AAT?$AAh?$AAe?$AA?5?$AAI?$AAS?$AAt?$AAr?$AAe?$AAa?$AAm?$AA?$CK?$AA?5?$AAo?$AAb?$AAj?$AAe?$AAc?$AAt?$AA?8@ 004aaa08     dxerr8:dxerr8.obj
 0002:0001ab30       ??_C@_1PM@IMDNNMGN@?$AAT?$AAh?$AAe?$AA?5?$AAI?$AAS?$AAt?$AAr?$AAe?$AAa?$AAm?$AA?$CK?$AA?5?$AAo?$AAb?$AAj?$AAe?$AAc?$AAt?$AA?8@ 004aab30     dxerr8:dxerr8.obj
 0002:0001ac30       ??_C@_1BAC@HNELHKMG@?$AAT?$AAh?$AAe?$AA?5?$AAI?$AAS?$AAt?$AAr?$AAe?$AAa?$AAm?$AA?$CK?$AA?5?$AAo?$AAb?$AAj?$AAe?$AAc?$AAt?$AA?8@ 004aac30     dxerr8:dxerr8.obj
 0002:0001ad38       ??_C@_1FA@IHLKGAON@?$AAT?$AAh?$AAe?$AA?5?$AAf?$AAi?$AAl?$AAe?$AA?5?$AAd?$AAo?$AAe?$AAs?$AA?5?$AAn?$AAo?$AAt?$AA?5?$AAc?$AAo@ 004aad38     dxerr8:dxerr8.obj
 0002:0001ad88       ??_C@_1FC@DAJGDEEF@?$AAT?$AAh?$AAe?$AA?5?$AAo?$AAb?$AAj?$AAe?$AAc?$AAt?$AA?5?$AAh?$AAa?$AAs?$AA?5?$AAa?$AAl?$AAr?$AAe?$AAa@ 004aad88     dxerr8:dxerr8.obj
 0002:0001ade0       ??_C@_1JG@GGNDEBLE@?$AAT?$AAh?$AAe?$AA?5?$AAI?$AAS?$AAt?$AAr?$AAe?$AAa?$AAm?$AA?$CK?$AA?5?$AAo?$AAb?$AAj?$AAe?$AAc?$AAt?$AA?5@ 004aade0     dxerr8:dxerr8.obj
 0002:0001ae78       ??_C@_1BCE@JHHIBCFF@?$AAT?$AAh?$AAe?$AA?5?$AAg?$AAi?$AAv?$AAe?$AAn?$AA?5?$AAe?$AAv?$AAe?$AAn?$AAt?$AA?5?$AAi?$AAs?$AA?5?$AAi@ 004aae78     dxerr8:dxerr8.obj
 0002:0001afa0       ??_C@_1LE@OONJPPDK@?$AAI?$AAD?$AAi?$AAr?$AAe?$AAc?$AAt?$AAM?$AAu?$AAs?$AAi?$AAc?$AA?3?$AA?3?$AAS?$AAe?$AAt?$AAD?$AAi?$AAr@ 004aafa0     dxerr8:dxerr8.obj
 0002:0001b058       ??_C@_1IO@HIANOJBD@?$AAT?$AAh?$AAe?$AA?5?$AAo?$AAp?$AAe?$AAr?$AAa?$AAt?$AAi?$AAo?$AAn?$AA?5?$AAc?$AAa?$AAn?$AAn?$AAo?$AAt@ 004ab058     dxerr8:dxerr8.obj
 0002:0001b0e8       ??_C@_1GI@BNNKPJF@?$AAI?$AAn?$AAv?$AAa?$AAl?$AAi?$AAd?$AA?5?$AAb?$AAu?$AAf?$AAf?$AAe?$AAr?$AA?5?$AAf?$AAo?$AAr?$AAm?$AAa@ 004ab0e8     dxerr8:dxerr8.obj
 0002:0001b150       ??_C@_1GA@PBGKCHAL@?$AAI?$AAn?$AAv?$AAa?$AAl?$AAi?$AAd?$AA?5?$AAD?$AAi?$AAr?$AAe?$AAc?$AAt?$AAS?$AAo?$AAu?$AAn?$AAd?$AA?5@ 004ab150     dxerr8:dxerr8.obj
 0002:0001b1b0       ??_C@_1HM@BILACAAA@?$AAT?$AAh?$AAe?$AA?5?$AAo?$AAp?$AAe?$AAr?$AAa?$AAt?$AAi?$AAo?$AAn?$AA?5?$AAc?$AAa?$AAn?$AAn?$AAo?$AAt@ 004ab1b0     dxerr8:dxerr8.obj
 0002:0001b230       ??_C@_1BKC@FNBGFKAO@?$AAT?$AAh?$AAe?$AA?5?$AAp?$AAo?$AAr?$AAt?$AA?5?$AAc?$AAo?$AAu?$AAl?$AAd?$AA?5?$AAn?$AAo?$AAt?$AA?5?$AAb@ 004ab230     dxerr8:dxerr8.obj
 0002:0001b3d8       ??_C@_1KA@JGGGOKNN@?$AAT?$AAh?$AAe?$AA?5?$AAg?$AAi?$AAv?$AAe?$AAn?$AA?5?$AAo?$AAp?$AAe?$AAr?$AAa?$AAt?$AAi?$AAo?$AAn?$AA?5@ 004ab3d8     dxerr8:dxerr8.obj
 0002:0001b478       ??_C@_1KC@OEDKAOEJ@?$AAT?$AAh?$AAe?$AA?5?$AAg?$AAi?$AAv?$AAe?$AAn?$AA?5?$AAo?$AAp?$AAe?$AAr?$AAa?$AAt?$AAi?$AAo?$AAn?$AA?5@ 004ab478     dxerr8:dxerr8.obj
 0002:0001b520       ??_C@_1IO@OMPFMKFA@?$AAT?$AAh?$AAe?$AAr?$AAe?$AA?5?$AAi?$AAs?$AA?5?$AAi?$AAn?$AAs?$AAu?$AAf?$AAf?$AAi?$AAc?$AAi?$AAe?$AAn@ 004ab520     dxerr8:dxerr8.obj
 0002:0001b5b0       ??_C@_1FI@OCHDMKGI@?$AAT?$AAh?$AAe?$AAr?$AAe?$AA?5?$AAw?$AAa?$AAs?$AA?5?$AAn?$AAo?$AA?5?$AAd?$AAa?$AAt?$AAa?$AA?5?$AAi?$AAn@ 004ab5b0     dxerr8:dxerr8.obj
 0002:0001b608       ??_C@_1BFE@KPMCACDI@?$AAT?$AAh?$AAe?$AA?5?$AAo?$AAp?$AAe?$AAr?$AAa?$AAt?$AAi?$AAo?$AAn?$AA?5?$AAc?$AAa?$AAn?$AAn?$AAo?$AAt@ 004ab608     dxerr8:dxerr8.obj
 0002:0001b760       ??_C@_1IK@PMPAHNHG@?$AAA?$AAn?$AA?5?$AAe?$AAr?$AAr?$AAo?$AAr?$AA?5?$AAo?$AAc?$AAc?$AAu?$AAr?$AAr?$AAe?$AAd?$AA?5?$AAw?$AAh@ 004ab760     dxerr8:dxerr8.obj
 0002:0001b7f0       ??_C@_1IK@OEGNGALD@?$AAT?$AAh?$AAe?$AA?5?$AAo?$AAp?$AAe?$AAr?$AAa?$AAt?$AAi?$AAo?$AAn?$AA?5?$AAc?$AAa?$AAn?$AAn?$AAo?$AAt@ 004ab7f0     dxerr8:dxerr8.obj
 0002:0001b880       ??_C@_1MI@JOCCAIBP@?$AAT?$AAh?$AAe?$AA?5?$AAo?$AAp?$AAe?$AAr?$AAa?$AAt?$AAi?$AAo?$AAn?$AA?5?$AAc?$AAo?$AAu?$AAl?$AAd?$AA?5@ 004ab880     dxerr8:dxerr8.obj
 0002:0001b948       ??_C@_1KE@FOOLMGFM@?$AAA?$AAn?$AA?5?$AAa?$AAt?$AAt?$AAe?$AAm?$AAp?$AAt?$AA?5?$AAw?$AAa?$AAs?$AA?5?$AAm?$AAa?$AAd?$AAe?$AA?5@ 004ab948     dxerr8:dxerr8.obj
 0002:0001b9f0       ??_C@_1KC@OCOBMEBH@?$AAA?$AAn?$AA?5?$AAa?$AAt?$AAt?$AAe?$AAm?$AAp?$AAt?$AA?5?$AAw?$AAa?$AAs?$AA?5?$AAm?$AAa?$AAd?$AAe?$AA?5@ 004ab9f0     dxerr8:dxerr8.obj
 0002:0001ba98       ??_C@_1KO@CFDONAOF@?$AAT?$AAh?$AAe?$AA?5?$AAo?$AAp?$AAe?$AAr?$AAa?$AAt?$AAi?$AAo?$AAn?$AA?5?$AAc?$AAo?$AAu?$AAl?$AAd?$AA?5@ 004aba98     dxerr8:dxerr8.obj
 0002:0001bb48       ??_C@_1FC@BPFHDJDH@?$AAA?$AAt?$AAt?$AAe?$AAm?$AAp?$AAt?$AAe?$AAd?$AA?5?$AAt?$AAo?$AA?5?$AAd?$AAo?$AAw?$AAn?$AAl?$AAo?$AAa@ 004abb48     dxerr8:dxerr8.obj
 0002:0001bba0       ??_C@_1FM@IHFPIMMF@?$AAO?$AAf?$AAf?$AAs?$AAe?$AAt?$AA?5?$AAT?$AAa?$AAb?$AAl?$AAe?$AA?5?$AAf?$AAo?$AAr?$AA?5?$AAd?$AAo?$AAw@ 004abba0     dxerr8:dxerr8.obj
 0002:0001bc00       ??_C@_1EC@JJCGDPJJ@?$AAB?$AAa?$AAd?$AA?5?$AAw?$AAa?$AAv?$AAe?$AA?5?$AAc?$AAh?$AAu?$AAn?$AAk?$AA?5?$AAi?$AAn?$AA?5?$AAD?$AAL@ 004abc00     dxerr8:dxerr8.obj
 0002:0001bc48       ??_C@_1FE@NHIIEMBO@?$AAD?$AAo?$AAw?$AAn?$AAo?$AAa?$AAd?$AAe?$AAd?$AA?5?$AAD?$AAL?$AAS?$AA?5?$AAw?$AAa?$AAv?$AAe?$AA?5?$AAi@ 004abc48     dxerr8:dxerr8.obj
 0002:0001bca0       ??_C@_1HA@DEMGKJOM@?$AAA?$AAr?$AAt?$AAi?$AAc?$AAu?$AAl?$AAa?$AAt?$AAi?$AAo?$AAn?$AA?5?$AAm?$AAi?$AAs?$AAs?$AAi?$AAn?$AAg@ 004abca0     dxerr8:dxerr8.obj
 0002:0001bd10       ??_C@_1HC@HMCBDGDF@?$AAW?$AAa?$AAv?$AAe?$AAl?$AAi?$AAn?$AAk?$AA?5?$AAc?$AAh?$AAu?$AAn?$AAk?$AA?5?$AAi?$AAn?$AA?5?$AAD?$AAL@ 004abd10     dxerr8:dxerr8.obj
 0002:0001bd88       ??_C@_1FI@EHNHNEEE@?$AAI?$AAn?$AAv?$AAa?$AAl?$AAi?$AAd?$AA?5?$AAi?$AAn?$AAs?$AAt?$AAr?$AAu?$AAm?$AAe?$AAn?$AAt?$AA?5?$AAc@ 004abd88     dxerr8:dxerr8.obj
 0002:0001bde0       ??_C@_1FM@MBGKIDKD@?$AAI?$AAn?$AAv?$AAa?$AAl?$AAi?$AAd?$AA?5?$AAa?$AAr?$AAt?$AAi?$AAc?$AAu?$AAl?$AAa?$AAt?$AAi?$AAo?$AAn@ 004abde0     dxerr8:dxerr8.obj
 0002:0001be40       ??_C@_1JI@HPFCILJI@?$AAW?$AAa?$AAv?$AAe?$AA?5?$AAc?$AAh?$AAu?$AAn?$AAk?$AA?5?$AAh?$AAa?$AAs?$AA?5?$AAm?$AAo?$AAr?$AAe?$AA?5@ 004abe40     dxerr8:dxerr8.obj
 0002:0001bed8       ??_C@_1JG@NNNLEEBE@?$AA?$CK?$AA?5?$AAT?$AAh?$AAe?$AA?5?$AAs?$AAp?$AAe?$AAc?$AAi?$AAf?$AAi?$AAe?$AAd?$AA?5?$AAp?$AAr?$AAo?$AAp@ 004abed8     dxerr8:dxerr8.obj
 0002:0001bf70       ??_C@_1IC@MCJCOJEO@?$AAT?$AAh?$AAe?$AA?5?$AAs?$AAp?$AAe?$AAc?$AAi?$AAf?$AAi?$AAe?$AAd?$AA?5?$AAp?$AAr?$AAo?$AAp?$AAe?$AAr@ 004abf70     dxerr8:dxerr8.obj
 0002:0001bff8       ??_C@_1IK@BMHCLMDM@?$AAT?$AAh?$AAe?$AA?5?$AAs?$AAp?$AAe?$AAc?$AAi?$AAf?$AAi?$AAe?$AAd?$AA?5?$AAp?$AAr?$AAo?$AAp?$AAe?$AAr@ 004abff8     dxerr8:dxerr8.obj
 0002:0001c088       ??_C@_1FA@FDGHNNPE@?$AAB?$AAu?$AAf?$AAf?$AAe?$AAr?$AA?5?$AAw?$AAa?$AAs?$AA?5?$AAa?$AAl?$AAr?$AAe?$AAa?$AAd?$AAy?$AA?5?$AAd@ 004ac088     dxerr8:dxerr8.obj
 0002:0001c0d8       ??_C@_1JE@LIEDDGOI@?$AAT?$AAr?$AAi?$AAe?$AAd?$AA?5?$AAt?$AAo?$AA?5?$AAu?$AAn?$AAl?$AAo?$AAa?$AAd?$AA?5?$AAa?$AAn?$AA?5?$AAo@ 004ac0d8     dxerr8:dxerr8.obj
 0002:0001c170       ??_C@_1JG@JOAKDLEK@?$AAI?$AAn?$AAv?$AAa?$AAl?$AAi?$AAd?$AA?5?$AAd?$AAo?$AAw?$AAn?$AAl?$AAo?$AAa?$AAd?$AA?5?$AAi?$AAd?$AA?5@ 004ac170     dxerr8:dxerr8.obj
 0002:0001c208       ??_C@_1IK@PMJLKOPI@?$AAT?$AAh?$AAe?$AA?5?$AAR?$AAI?$AAF?$AAF?$AA?5?$AAp?$AAa?$AAr?$AAs?$AAe?$AAr?$AA?5?$AAd?$AAo?$AAe?$AAs@ 004ac208     dxerr8:dxerr8.obj
 0002:0001c298       ??_C@_1EM@EGDJANPF@?$AAT?$AAh?$AAe?$AA?5?$AAI?$AAS?$AAt?$AAr?$AAe?$AAa?$AAm?$AA?$CK?$AA?5?$AAd?$AAo?$AAe?$AAs?$AAn?$AA?8?$AAt@ 004ac298     dxerr8:dxerr8.obj
 0002:0001c2e8       ??_C@_1EK@FNAIOLLD@?$AAT?$AAh?$AAe?$AA?5?$AAI?$AAS?$AAt?$AAr?$AAe?$AAa?$AAm?$AA?$CK?$AA?5?$AAd?$AAo?$AAe?$AAs?$AAn?$AA?8?$AAt@ 004ac2e8     dxerr8:dxerr8.obj
 0002:0001c338       ??_C@_1II@MCJHFFI@?$AAT?$AAh?$AAe?$AAr?$AAe?$AA?5?$AAi?$AAs?$AA?5?$AAn?$AAo?$AA?5?$AAi?$AAn?$AAs?$AAt?$AAr?$AAu?$AAm?$AAe@ 004ac338     dxerr8:dxerr8.obj
 0002:0001c3c0       ??_C@_1IC@OEPNJNOP@?$AAE?$AAr?$AAr?$AAo?$AAr?$AA?5?$AAr?$AAe?$AAa?$AAd?$AAi?$AAn?$AAg?$AA?5?$AAw?$AAa?$AAv?$AAe?$AA?5?$AAd@ 004ac3c0     dxerr8:dxerr8.obj
 0002:0001c448       ??_C@_1JG@GACFIJL@?$AAT?$AAh?$AAe?$AA?5?$AAo?$AAb?$AAj?$AAe?$AAc?$AAt?$AA?5?$AAr?$AAe?$AAq?$AAu?$AAe?$AAs?$AAt?$AAe?$AAd@ 004ac448     dxerr8:dxerr8.obj
 0002:0001c4e0       ??_C@_1IC@LGCEIMHK@?$AAS?$AAe?$AAc?$AAo?$AAn?$AAd?$AA?5?$AAa?$AAt?$AAt?$AAe?$AAm?$AAp?$AAt?$AA?5?$AAt?$AAo?$AA?5?$AAl?$AAo@ 004ac4e0     dxerr8:dxerr8.obj
 0002:0001c568       ??_C@_1HK@KCEFLDD@?$AAW?$AAa?$AAv?$AAe?$AA?5?$AAc?$AAh?$AAu?$AAn?$AAk?$AAs?$AA?5?$AAi?$AAn?$AA?5?$AAD?$AAL?$AAS?$AA?5?$AAc@ 004ac568     dxerr8:dxerr8.obj
 0002:0001c5e8       ??_C@_1FO@HFIBMCPH@?$AAE?$AAr?$AAr?$AAo?$AAr?$AA?5?$AAp?$AAa?$AAr?$AAs?$AAi?$AAn?$AAg?$AA?5?$AAD?$AAL?$AAS?$AA?5?$AAc?$AAo@ 004ac5e8     dxerr8:dxerr8.obj
 0002:0001c648       ??_C@_1IM@BEFJBDHJ@?$AAD?$AAo?$AAw?$AAn?$AAl?$AAo?$AAa?$AAd?$AA?5?$AAf?$AAa?$AAi?$AAl?$AAe?$AAd?$AA?5?$AAd?$AAu?$AAe?$AA?5@ 004ac648     dxerr8:dxerr8.obj
 0002:0001c6d8       ??_C@_1FM@OCCNFMOD@?$AAN?$AAo?$AA?5?$AAb?$AAu?$AAf?$AAf?$AAe?$AAr?$AA?5?$AAw?$AAa?$AAs?$AA?5?$AAp?$AAr?$AAe?$AAp?$AAa?$AAr@ 004ac6d8     dxerr8:dxerr8.obj
 0002:0001c738       ??_C@_1GI@NGPFKIHC@?$AAB?$AAu?$AAf?$AAf?$AAe?$AAr?$AA?5?$AAi?$AAs?$AA?5?$AAn?$AAo?$AAt?$AA?5?$AAl?$AAa?$AAr?$AAg?$AAe?$AA?5@ 004ac738     dxerr8:dxerr8.obj
 0002:0001c7a0       ??_C@_1NE@ICGALDFA@?$AAT?$AAh?$AAe?$AA?5?$AAr?$AAe?$AAq?$AAu?$AAe?$AAs?$AAt?$AAe?$AAd?$AA?5?$AAd?$AAe?$AAv?$AAi?$AAc?$AAe@ 004ac7a0     dxerr8:dxerr8.obj
 0002:0001c878       ??_C@_1NM@GMMJIHHH@?$AAT?$AAh?$AAe?$AA?5?$AAr?$AAe?$AAq?$AAu?$AAe?$AAs?$AAt?$AAe?$AAd?$AA?5?$AAo?$AAp?$AAe?$AAr?$AAa?$AAt@ 004ac878     dxerr8:dxerr8.obj
 0002:0001c958       ??_C@_1NM@NPOEPCNF@?$AAA?$AAn?$AA?5?$AAu?$AAn?$AAe?$AAx?$AAp?$AAe?$AAc?$AAt?$AAe?$AAd?$AA?5?$AAe?$AAr?$AAr?$AAo?$AAr?$AA?5@ 004ac958     dxerr8:dxerr8.obj
 0002:0001ca38       ??_C@_1JI@HEEDDLGC@?$AAT?$AAh?$AAe?$AA?5?$AAG?$AAU?$AAI?$AAD?$AA?5?$AAs?$AAp?$AAe?$AAc?$AAi?$AAf?$AAi?$AAe?$AAd?$AA?5?$AAi@ 004aca38     dxerr8:dxerr8.obj
 0002:0001cad0       ??_C@_1KC@CCMGDHLO@?$AAT?$AAr?$AAi?$AAe?$AAd?$AA?5?$AAt?$AAo?$AA?5?$AAc?$AAr?$AAe?$AAa?$AAt?$AAe?$AA?5?$AAa?$AA?5?$AAD?$AAS@ 004acad0     dxerr8:dxerr8.obj
 0002:0001cb78       ??_C@_1JE@HCIGEOPN@?$AAA?$AAt?$AAt?$AAe?$AAm?$AAp?$AAt?$AA?5?$AAt?$AAo?$AA?5?$AAu?$AAs?$AAe?$AA?5?$AAD?$AAi?$AAr?$AAe?$AAc@ 004acb78     dxerr8:dxerr8.obj
 0002:0001cc10       ??_C@_1FK@KGCNEMMD@?$AAA?$AA?5?$AAc?$AAi?$AAr?$AAc?$AAu?$AAl?$AAa?$AAr?$AA?5?$AAl?$AAo?$AAo?$AAp?$AA?5?$AAo?$AAf?$AA?5?$AAs@ 004acc10     dxerr8:dxerr8.obj
 0002:0001cc70       ??_C@_1EK@HJOGDJJN@?$AAN?$AAo?$AA?5?$AAs?$AAo?$AAu?$AAn?$AAd?$AA?5?$AAd?$AAr?$AAi?$AAv?$AAe?$AAr?$AA?5?$AAi?$AAs?$AA?5?$AAa@ 004acc70     dxerr8:dxerr8.obj
 0002:0001ccc0       ??_C@_1GM@BFCIAOCH@?$AAT?$AAh?$AAe?$AA?5?$AAb?$AAu?$AAf?$AAf?$AAe?$AAr?$AA?5?$AAm?$AAe?$AAm?$AAo?$AAr?$AAy?$AA?5?$AAh?$AAa@ 004accc0     dxerr8:dxerr8.obj
 0002:0001cd30       ??_C@_1JM@GDKAGHIL@?$AAA?$AAn?$AAo?$AAt?$AAh?$AAe?$AAr?$AA?5?$AAa?$AAp?$AAp?$AA?5?$AAh?$AAa?$AAs?$AA?5?$AAa?$AA?5?$AAh?$AAi@ 004acd30     dxerr8:dxerr8.obj
 0002:0001cdd0       ??_C@_1FG@JDFKDBMK@?$AAT?$AAh?$AAe?$AA?5?$AAs?$AAp?$AAe?$AAc?$AAi?$AAf?$AAi?$AAe?$AAd?$AA?5?$AAW?$AAA?$AAV?$AAE?$AA?5?$AAf@ 004acdd0     dxerr8:dxerr8.obj
 0002:0001ce28       ??_C@_1IM@CGDGKKIE@?$AAT?$AAh?$AAe?$AA?5?$AAc?$AAo?$AAn?$AAt?$AAr?$AAo?$AAl?$AA?5?$AA?$CI?$AAv?$AAo?$AAl?$AA?0?$AA?5?$AAp?$AAa@ 004ace28     dxerr8:dxerr8.obj
 0002:0001ceb8       ??_C@_1HI@FBMNMABF@?$AAT?$AAh?$AAi?$AAs?$AA?5?$AAc?$AAa?$AAl?$AAl?$AA?5?$AAi?$AAs?$AA?5?$AAn?$AAo?$AAt?$AA?5?$AAv?$AAa?$AAl@ 004aceb8     dxerr8:dxerr8.obj
 0002:0001cf30       ??_C@_1KC@HEPEDFEO@?$AAT?$AAh?$AAe?$AA?5?$AAc?$AAa?$AAl?$AAl?$AAe?$AAr?$AA?5?$AAd?$AAo?$AAe?$AAs?$AA?5?$AAn?$AAo?$AAt?$AA?5@ 004acf30     dxerr8:dxerr8.obj
 0002:0001cfd8       ??_C@_1MO@LHJEMJFM@?$AAT?$AAh?$AAe?$AA?5?$AAc?$AAa?$AAl?$AAl?$AA?5?$AAf?$AAa?$AAi?$AAl?$AAe?$AAd?$AA?5?$AAb?$AAe?$AAc?$AAa@ 004acfd8     dxerr8:dxerr8.obj
 0002:0001d0a8       ??_C@_1CC@EGPIIHJF@?$AAC?$AAa?$AAn?$AAn?$AAo?$AAt?$AA?5?$AAa?$AAt?$AAt?$AAr?$AA?5?$AAs?$AAo?$AAr?$AAt?$AA?$AA@ 004ad0a8     dxerr8:dxerr8.obj
 0002:0001d0cc       ??_C@_1CO@IEFMOGKL@?$AAS?$AAk?$AAi?$AAn?$AAn?$AAi?$AAn?$AAg?$AA?5?$AAn?$AAo?$AAt?$AA?5?$AAs?$AAu?$AAp?$AAp?$AAo?$AAr?$AAt@ 004ad0cc     dxerr8:dxerr8.obj
 0002:0001d0fc       ??_C@_1CI@GEMGDKEH@?$AAT?$AAo?$AAo?$AA?5?$AAm?$AAa?$AAn?$AAy?$AA?5?$AAi?$AAn?$AAf?$AAl?$AAu?$AAe?$AAn?$AAc?$AAe?$AAs?$AA?$AA@ 004ad0fc     dxerr8:dxerr8.obj
 0002:0001d124       ??_C@_1BK@KFPJPCN@?$AAI?$AAn?$AAv?$AAa?$AAl?$AAi?$AAd?$AA?5?$AAd?$AAa?$AAt?$AAa?$AA?$AA@ 004ad124     dxerr8:dxerr8.obj
 0002:0001d140       ??_C@_1BK@BCANMFCP@?$AAI?$AAn?$AAv?$AAa?$AAl?$AAi?$AAd?$AA?5?$AAm?$AAe?$AAs?$AAh?$AA?$AA@ 004ad140     dxerr8:dxerr8.obj
 0002:0001d15c       ??_C@_1BK@PFGMNMHP@?$AAI?$AAn?$AAv?$AAa?$AAl?$AAi?$AAd?$AA?5?$AAc?$AAa?$AAl?$AAl?$AA?$AA@ 004ad15c     dxerr8:dxerr8.obj
 0002:0001d178       ??_C@_1CI@BDBPKAII@?$AAD?$AAr?$AAi?$AAv?$AAe?$AAr?$AA?5?$AAi?$AAn?$AAv?$AAa?$AAl?$AAi?$AAd?$AA?5?$AAc?$AAa?$AAl?$AAl?$AA?$AA@ 004ad178     dxerr8:dxerr8.obj
 0002:0001d1a0       ??_C@_1DI@FEOMGDEE@?$AAC?$AAa?$AAn?$AA?5?$AAn?$AAo?$AAt?$AA?5?$AAm?$AAo?$AAd?$AAi?$AAf?$AAy?$AA?5?$AAi?$AAn?$AAd?$AAe?$AAx@ 004ad1a0     dxerr8:dxerr8.obj
 0002:0001d1d8       ??_C@_1BO@CPGPKKJJ@?$AAI?$AAn?$AAv?$AAa?$AAl?$AAi?$AAd?$AA?5?$AAd?$AAe?$AAv?$AAi?$AAc?$AAe?$AA?$AA@ 004ad1d8     dxerr8:dxerr8.obj
 0002:0001d1f8       ??_C@_1BE@PNNKNJKJ@?$AAM?$AAo?$AAr?$AAe?$AA?5?$AAd?$AAa?$AAt?$AAa?$AA?$AA@ 004ad1f8     dxerr8:dxerr8.obj
 0002:0001d20c       ??_C@_1BI@OFKIBMCF@?$AAD?$AAe?$AAv?$AAi?$AAc?$AAe?$AA?5?$AAl?$AAo?$AAs?$AAt?$AA?$AA@ 004ad20c     dxerr8:dxerr8.obj
 0002:0001d224       ??_C@_1CC@KDCECJAJ@?$AAD?$AAe?$AAv?$AAi?$AAc?$AAe?$AA?5?$AAn?$AAo?$AAt?$AA?5?$AAr?$AAe?$AAs?$AAe?$AAt?$AA?$AA@ 004ad224     dxerr8:dxerr8.obj
 0002:0001d248       ??_C@_1BM@FAFGHBGO@?$AAN?$AAo?$AAt?$AA?5?$AAa?$AAv?$AAa?$AAi?$AAl?$AAa?$AAb?$AAl?$AAe?$AA?$AA@ 004ad248     dxerr8:dxerr8.obj
 0002:0001d264       ??_C@_1BE@IOCEGDOC@?$AAN?$AAo?$AAt?$AA?5?$AAf?$AAo?$AAu?$AAn?$AAd?$AA?$AA@ 004ad264     dxerr8:dxerr8.obj
 0002:0001d278       ??_C@_1CM@HMIGCDMM@?$AAD?$AAr?$AAi?$AAv?$AAe?$AAr?$AA?5?$AAi?$AAn?$AAt?$AAe?$AAr?$AAn?$AAa?$AAl?$AA?5?$AAe?$AAr?$AAr?$AAo@ 004ad278     dxerr8:dxerr8.obj
 0002:0001d2a4       ??_C@_1DI@LMFCMFEA@?$AAC?$AAo?$AAn?$AAf?$AAl?$AAi?$AAc?$AAt?$AAi?$AAn?$AAg?$AA?5?$AAt?$AAe?$AAx?$AAt?$AAu?$AAr?$AAe?$AA?5@ 004ad2a4     dxerr8:dxerr8.obj
 0002:0001d2dc       ??_C@_1DG@PBCADFF@?$AAU?$AAn?$AAs?$AAu?$AAp?$AAp?$AAo?$AAr?$AAt?$AAe?$AAd?$AA?5?$AAt?$AAe?$AAx?$AAt?$AAu?$AAr?$AAe?$AA?5@ 004ad2dc     dxerr8:dxerr8.obj
 0002:0001d314       ??_C@_1DC@PNDHJPOK@?$AAC?$AAo?$AAn?$AAf?$AAl?$AAi?$AAc?$AAt?$AAi?$AAn?$AAg?$AA?5?$AAr?$AAe?$AAn?$AAd?$AAe?$AAr?$AA?5?$AAs@ 004ad314     dxerr8:dxerr8.obj
 0002:0001d348       ??_C@_1DC@GGDCPHOL@?$AAU?$AAn?$AAs?$AAu?$AAp?$AAp?$AAo?$AAr?$AAt?$AAe?$AAd?$AA?5?$AAf?$AAa?$AAc?$AAt?$AAo?$AAr?$AA?5?$AAv@ 004ad348     dxerr8:dxerr8.obj
 0002:0001d37c       ??_C@_1DG@PFIFGMPI@?$AAC?$AAo?$AAn?$AAf?$AAl?$AAi?$AAc?$AAt?$AAi?$AAn?$AAg?$AA?5?$AAt?$AAe?$AAx?$AAt?$AAu?$AAr?$AAe?$AA?5@ 004ad37c     dxerr8:dxerr8.obj
 0002:0001d3b4       ??_C@_1CI@PEDNHJMD@?$AAT?$AAo?$AAo?$AA?5?$AAm?$AAa?$AAn?$AAy?$AA?5?$AAo?$AAp?$AAe?$AAr?$AAa?$AAt?$AAi?$AAo?$AAn?$AAs?$AA?$AA@ 004ad3b4     dxerr8:dxerr8.obj
 0002:0001d3dc       ??_C@_1CM@LHMNAILH@?$AAU?$AAn?$AAs?$AAu?$AAp?$AAp?$AAo?$AAr?$AAt?$AAe?$AAd?$AA?5?$AAa?$AAl?$AAp?$AAh?$AAa?$AA?5?$AAa?$AAr@ 004ad3dc     dxerr8:dxerr8.obj
 0002:0001d408       ??_C@_1DI@CKNGIIKO@?$AAU?$AAn?$AAs?$AAu?$AAp?$AAp?$AAo?$AAr?$AAt?$AAe?$AAd?$AA?5?$AAa?$AAl?$AAp?$AAh?$AAa?$AA?5?$AAo?$AAp@ 004ad408     dxerr8:dxerr8.obj
 0002:0001d440       ??_C@_1CM@MIMLNLMD@?$AAU?$AAn?$AAs?$AAu?$AAp?$AAp?$AAo?$AAr?$AAt?$AAe?$AAd?$AA?5?$AAc?$AAo?$AAl?$AAo?$AAr?$AA?5?$AAa?$AAr@ 004ad440     dxerr8:dxerr8.obj
 0002:0001d46c       ??_C@_1DI@LJCDMANM@?$AAU?$AAn?$AAs?$AAu?$AAp?$AAp?$AAo?$AAr?$AAt?$AAe?$AAd?$AA?5?$AAc?$AAo?$AAl?$AAo?$AAr?$AA?5?$AAo?$AAp@ 004ad46c     dxerr8:dxerr8.obj
 0002:0001d4a4       ??_C@_1CK@MNHDOMMC@?$AAW?$AAr?$AAo?$AAn?$AAg?$AA?5?$AAt?$AAe?$AAx?$AAt?$AAu?$AAr?$AAe?$AA?5?$AAf?$AAo?$AAr?$AAm?$AAa?$AAt@ 004ad4a4     dxerr8:dxerr8.obj
 0002:0001d4d0       ??_C@_1BI@FCOFJKBC@?$AAN?$AAo?$AA?5?$AAi?$AAn?$AAt?$AAe?$AAr?$AAn?$AAe?$AAt?$AA?$AA@ 004ad4d0     dxerr8:dxerr8.obj
 0002:0001d4e8       ??_C@_1BO@FMMKLKDG@?$AAB?$AAa?$AAd?$AA?5?$AAc?$AAa?$AAc?$AAh?$AAe?$AA?5?$AAf?$AAi?$AAl?$AAe?$AA?$AA@ 004ad4e8     dxerr8:dxerr8.obj
 0002:0001d508       ??_C@_1BK@FKLCKGPG@?$AAN?$AAo?$AA?5?$AAm?$AAo?$AAr?$AAe?$AA?5?$AAd?$AAa?$AAt?$AAa?$AA?$AA@ 004ad508     dxerr8:dxerr8.obj
 0002:0001d524       ??_C@_1CO@FLOBLPKB@?$AAN?$AAo?$AA?5?$AAm?$AAo?$AAr?$AAe?$AA?5?$AAs?$AAt?$AAr?$AAe?$AAa?$AAm?$AA?5?$AAh?$AAa?$AAn?$AAd?$AAl@ 004ad524     dxerr8:dxerr8.obj
 0002:0001d554       ??_C@_1BO@NMFLPCKA@?$AAB?$AAa?$AAd?$AA?5?$AAi?$AAn?$AAt?$AAr?$AAi?$AAn?$AAs?$AAi?$AAc?$AAs?$AA?$AA@ 004ad554     dxerr8:dxerr8.obj
 0002:0001d574       ??_C@_1CA@JHNJMKEG@?$AAN?$AAo?$AA?5?$AAm?$AAo?$AAr?$AAe?$AA?5?$AAo?$AAb?$AAj?$AAe?$AAc?$AAt?$AAs?$AA?$AA@ 004ad574     dxerr8:dxerr8.obj
 0002:0001d594       ??_C@_1BO@HHKHPBJO@?$AAI?$AAn?$AAt?$AAe?$AAr?$AAn?$AAa?$AAl?$AA?5?$AAe?$AAr?$AAr?$AAo?$AAr?$AA?$AA@ 004ad594     dxerr8:dxerr8.obj
 0002:0001d5b4       ??_C@_1CG@ECBGGKFI@?$AAB?$AAa?$AAd?$AA?5?$AAd?$AAa?$AAt?$AAa?$AA?5?$AAr?$AAe?$AAf?$AAe?$AAr?$AAe?$AAn?$AAc?$AAe?$AA?$AA@ 004ad5b4     dxerr8:dxerr8.obj
 0002:0001d5dc       ??_C@_1BO@HJDAHHBF@?$AAB?$AAa?$AAd?$AA?5?$AAa?$AAr?$AAr?$AAa?$AAy?$AA?5?$AAs?$AAi?$AAz?$AAe?$AA?$AA@ 004ad5dc     dxerr8:dxerr8.obj
 0002:0001d5fc       ??_C@_1BI@EJABDJKP@?$AAN?$AAo?$AA?5?$AAt?$AAe?$AAm?$AAp?$AAl?$AAa?$AAt?$AAe?$AA?$AA@ 004ad5fc     dxerr8:dxerr8.obj
 0002:0001d614       ??_C@_1BI@GMECCEIM@?$AAP?$AAa?$AAr?$AAs?$AAe?$AA?5?$AAe?$AAr?$AAr?$AAo?$AAr?$AA?$AA@ 004ad614     dxerr8:dxerr8.obj
 0002:0001d62c       ??_C@_1BC@FNEHOLDK@?$AAB?$AAa?$AAd?$AA?5?$AAf?$AAi?$AAl?$AAe?$AA?$AA@ 004ad62c     dxerr8:dxerr8.obj
 0002:0001d640       ??_C@_1DE@HLKGCPEH@?$AAB?$AAa?$AAd?$AA?5?$AAf?$AAi?$AAl?$AAe?$AA?5?$AAc?$AAo?$AAm?$AAp?$AAr?$AAe?$AAs?$AAs?$AAi?$AAo?$AAn@ 004ad640     dxerr8:dxerr8.obj
 0002:0001d674       ??_C@_1CI@CPOAOLJI@?$AAB?$AAa?$AAd?$AA?5?$AAf?$AAi?$AAl?$AAe?$AA?5?$AAf?$AAl?$AAo?$AAa?$AAt?$AA?5?$AAs?$AAi?$AAz?$AAe?$AA?$AA@ 004ad674     dxerr8:dxerr8.obj
 0002:0001d69c       ??_C@_1CC@FMALMCAB@?$AAB?$AAa?$AAd?$AA?5?$AAf?$AAi?$AAl?$AAe?$AA?5?$AAv?$AAe?$AAr?$AAs?$AAi?$AAo?$AAn?$AA?$AA@ 004ad69c     dxerr8:dxerr8.obj
 0002:0001d6c0       ??_C@_1BM@PFLODABF@?$AAB?$AAa?$AAd?$AA?5?$AAf?$AAi?$AAl?$AAe?$AA?5?$AAt?$AAy?$AAp?$AAe?$AA?$AA@ 004ad6c0     dxerr8:dxerr8.obj
 0002:0001d6dc       ??_C@_1BK@ODMBBGCP@?$AAB?$AAa?$AAd?$AA?5?$AAr?$AAe?$AAs?$AAo?$AAu?$AAr?$AAc?$AAe?$AA?$AA@ 004ad6dc     dxerr8:dxerr8.obj
 0002:0001d6f8       ??_C@_1BM@HFLGLDBM@?$AAU?$AAr?$AAl?$AA?5?$AAn?$AAo?$AAt?$AA?5?$AAf?$AAo?$AAu?$AAn?$AAd?$AA?$AA@ 004ad6f8     dxerr8:dxerr8.obj
 0002:0001d714       ??_C@_1CG@MNJEILLG@?$AAR?$AAe?$AAs?$AAo?$AAu?$AAr?$AAc?$AAe?$AA?5?$AAn?$AAo?$AAt?$AA?5?$AAf?$AAo?$AAu?$AAn?$AAd?$AA?$AA@ 004ad714     dxerr8:dxerr8.obj
 0002:0001d73c       ??_C@_1BO@NBFENKDJ@?$AAF?$AAi?$AAl?$AAe?$AA?5?$AAn?$AAo?$AAt?$AA?5?$AAf?$AAo?$AAu?$AAn?$AAd?$AA?$AA@ 004ad73c     dxerr8:dxerr8.obj
 0002:0001d75c       ??_C@_1BK@IEADPFLI@?$AAN?$AAo?$AAt?$AA?5?$AAd?$AAo?$AAn?$AAe?$AA?5?$AAy?$AAe?$AAt?$AA?$AA@ 004ad75c     dxerr8:dxerr8.obj
 0002:0001d778       ??_C@_1BE@IMIOBIO@?$AAB?$AAa?$AAd?$AA?5?$AAa?$AAl?$AAl?$AAo?$AAc?$AA?$AA@ 004ad778     dxerr8:dxerr8.obj
 0002:0001d78c       ??_C@_1CE@CCAJOKHK@?$AAB?$AAa?$AAd?$AA?5?$AAs?$AAt?$AAr?$AAe?$AAa?$AAm?$AA?5?$AAh?$AAa?$AAn?$AAd?$AAl?$AAe?$AA?$AA@ 004ad78c     dxerr8:dxerr8.obj
 0002:0001d7b0       ??_C@_1BC@HGLDEJCE@?$AAB?$AAa?$AAd?$AA?5?$AAt?$AAy?$AAp?$AAe?$AA?$AA@ 004ad7b0     dxerr8:dxerr8.obj
 0002:0001d7c4       ??_C@_1BE@CJABAGM@?$AAB?$AAa?$AAd?$AA?5?$AAv?$AAa?$AAl?$AAu?$AAe?$AA?$AA@ 004ad7c4     dxerr8:dxerr8.obj
 0002:0001d7d8       ??_C@_1BG@CICELCDJ@?$AAB?$AAa?$AAd?$AA?5?$AAo?$AAb?$AAj?$AAe?$AAc?$AAt?$AA?$AA@ 004ad7d8     dxerr8:dxerr8.obj
 0002:0001d7f0       ??_C@_1ME@MNHEBDFG@?$AAS?$AAu?$AAr?$AAf?$AAa?$AAc?$AAe?$AAs?$AA?5?$AAc?$AAr?$AAe?$AAa?$AAt?$AAe?$AAd?$AA?5?$AAb?$AAy?$AA?5@ 004ad7f0     dxerr8:dxerr8.obj
 0002:0001d8b8       ??_C@_1HE@GNKBCHNC@?$AAT?$AAh?$AAe?$AA?5?$AAd?$AAr?$AAi?$AAv?$AAe?$AAr?$AA?5?$AAd?$AAo?$AAe?$AAs?$AA?5?$AAn?$AAo?$AAt?$AA?5@ 004ad8b8     dxerr8:dxerr8.obj
 0002:0001d930       ??_C@_1EK@JPLDHMEF@?$AAT?$AAh?$AAe?$AA?5?$AAm?$AAo?$AAn?$AAi?$AAt?$AAo?$AAr?$AA?5?$AAd?$AAo?$AAe?$AAs?$AA?5?$AAn?$AAo?$AAt@ 004ad930     dxerr8:dxerr8.obj
 0002:0001d97c       ??_C@_1DK@GHJDOMNJ@?$AAT?$AAh?$AAe?$AA?5?$AAv?$AAi?$AAd?$AAe?$AAo?$AA?5?$AAp?$AAo?$AAr?$AAt?$AA?5?$AAi?$AAs?$AA?5?$AAn?$AAo@ 004ad97c     dxerr8:dxerr8.obj
 0002:0001d9b8       ??_C@_1EE@GNDLJMOB@?$AAD?$AA3?$AAD?$AA?5?$AAh?$AAa?$AAs?$AA?5?$AAn?$AAo?$AAt?$AA?5?$AAy?$AAe?$AAt?$AA?5?$AAb?$AAe?$AAe?$AAn@ 004ad9b8     dxerr8:dxerr8.obj
 0002:0001da00       ??_C@_1FE@MELPACHF@?$AAT?$AAh?$AAe?$AA?5?$AAm?$AAo?$AAd?$AAe?$AA?5?$AAt?$AAe?$AAs?$AAt?$AA?5?$AAh?$AAa?$AAs?$AA?5?$AAs?$AAw@ 004ada00     dxerr8:dxerr8.obj
 0002:0001da58       ??_C@_1EM@BPCKLEJN@?$AAT?$AAh?$AAe?$AA?5?$AAm?$AAo?$AAd?$AAe?$AA?5?$AAt?$AAe?$AAs?$AAt?$AA?5?$AAh?$AAa?$AAs?$AA?5?$AAf?$AAi@ 004ada58     dxerr8:dxerr8.obj
 0002:0001daa8       ??_C@_1GO@FFPHOJLF@?$AAT?$AAh?$AAe?$AA?5?$AAd?$AAa?$AAt?$AAa?$AA?5?$AAh?$AAa?$AAs?$AA?5?$AAe?$AAx?$AAp?$AAi?$AAr?$AAe?$AAd@ 004adaa8     dxerr8:dxerr8.obj
 0002:0001db18       ??_C@_1IO@NBAOEOPK@?$AAT?$AAh?$AAe?$AAr?$AAe?$AA?5?$AAi?$AAs?$AA?5?$AAm?$AAo?$AAr?$AAe?$AA?5?$AAd?$AAa?$AAt?$AAa?$AA?5?$AAa@ 004adb18     dxerr8:dxerr8.obj
 0002:0001dba8       ??_C@_1JK@PCLODNDL@?$AAA?$AAn?$AA?5?$AAa?$AAt?$AAt?$AAe?$AAm?$AAp?$AAt?$AA?5?$AAw?$AAa?$AAs?$AA?5?$AAm?$AAa?$AAd?$AAe?$AA?5@ 004adba8     dxerr8:dxerr8.obj
 0002:0001dc48       ??_C@_1FK@NFKHFIAL@?$AAT?$AAh?$AAe?$AA?5?$AAa?$AAt?$AAt?$AAe?$AAm?$AAp?$AAt?$AA?5?$AAt?$AAo?$AA?5?$AAp?$AAa?$AAg?$AAe?$AA?5@ 004adc48     dxerr8:dxerr8.obj
 0002:0001dca8       ??_C@_1FG@HHIGIOHB@?$AAT?$AAh?$AAe?$AA?5?$AAa?$AAt?$AAt?$AAe?$AAm?$AAp?$AAt?$AA?5?$AAt?$AAo?$AA?5?$AAp?$AAa?$AAg?$AAe?$AA?5@ 004adca8     dxerr8:dxerr8.obj
 0002:0001dd00       ??_C@_1OG@DBEBCFDJ@?$AAA?$AAn?$AA?5?$AAa?$AAt?$AAt?$AAe?$AAm?$AAp?$AAt?$AA?5?$AAw?$AAa?$AAs?$AA?5?$AAm?$AAa?$AAd?$AAe?$AA?5@ 004add00     dxerr8:dxerr8.obj
 0002:0001dde8       ??_C@_1LG@OMDLPOLJ@?$AAA?$AA?5?$AAD?$AAC?$AA?5?$AAh?$AAa?$AAs?$AA?5?$AAa?$AAl?$AAr?$AAe?$AAa?$AAd?$AAy?$AA?5?$AAb?$AAe?$AAe@ 004adde8     dxerr8:dxerr8.obj
 0002:0001dea0       ??_C@_1GO@PPFIABOO@?$AAA?$AAt?$AAt?$AAe?$AAm?$AAp?$AAt?$AA?5?$AAw?$AAa?$AAs?$AA?5?$AAm?$AAa?$AAd?$AAe?$AA?5?$AAt?$AAo?$AA?5@ 004adea0     dxerr8:dxerr8.obj
 0002:0001df10       ??_C@_1LC@HPIMHMBF@?$AAA?$AAt?$AAt?$AAe?$AAm?$AAp?$AAt?$AA?5?$AAw?$AAa?$AAs?$AA?5?$AAm?$AAa?$AAd?$AAe?$AA?5?$AAt?$AAo?$AA?5@ 004adf10     dxerr8:dxerr8.obj
 0002:0001dfc8       ??_C@_1JG@KLNAJPJF@?$AAS?$AAu?$AAr?$AAf?$AAa?$AAc?$AAe?$AA?5?$AAi?$AAs?$AA?5?$AAa?$AAn?$AA?5?$AAo?$AAp?$AAt?$AAi?$AAm?$AAi@ 004adfc8     dxerr8:dxerr8.obj
 0002:0001e060       ??_C@_1LC@MBOLHEKA@?$AAD?$AAe?$AAv?$AAi?$AAc?$AAe?$AA?5?$AAd?$AAo?$AAe?$AAs?$AA?5?$AAn?$AAo?$AAt?$AA?5?$AAs?$AAu?$AAp?$AAp@ 004ae060     dxerr8:dxerr8.obj
 0002:0001e118       ??_C@_1KO@LPCGKHMO@?$AAT?$AAh?$AAe?$AA?5?$AAr?$AAe?$AAq?$AAu?$AAe?$AAs?$AAt?$AAe?$AAd?$AA?5?$AAa?$AAc?$AAt?$AAi?$AAo?$AAn@ 004ae118     dxerr8:dxerr8.obj
 0002:0001e1c8       ??_C@_1NM@MCNFGDNM@?$AAO?$AAp?$AAe?$AAr?$AAa?$AAt?$AAi?$AAo?$AAn?$AA?5?$AAc?$AAo?$AAu?$AAl?$AAd?$AA?5?$AAn?$AAo?$AAt?$AA?5@ 004ae1c8     dxerr8:dxerr8.obj
 0002:0001e2a8       ??_C@_1GA@FICMEIKC@?$AAT?$AAh?$AAe?$AA?5?$AAd?$AAi?$AAs?$AAp?$AAl?$AAa?$AAy?$AA?5?$AAi?$AAs?$AA?5?$AAc?$AAu?$AAr?$AAr?$AAe@ 004ae2a8     dxerr8:dxerr8.obj
 0002:0001e308       ??_C@_1GM@HBEDBPAA@?$AAT?$AAh?$AAe?$AA?5?$AAs?$AAu?$AAr?$AAf?$AAa?$AAc?$AAe?$AA?5?$AAb?$AAe?$AAi?$AAn?$AAg?$AA?5?$AAu?$AAs@ 004ae308     dxerr8:dxerr8.obj
 0002:0001e378       ??_C@_1JM@LFJDKHFP@?$AAT?$AAh?$AAi?$AAs?$AA?5?$AAs?$AAu?$AAr?$AAf?$AAa?$AAc?$AAe?$AA?5?$AAc?$AAa?$AAn?$AA?5?$AAn?$AAo?$AAt@ 004ae378     dxerr8:dxerr8.obj
 0002:0001e418       ??_C@_1JK@DHJGEIGL@?$AAT?$AAh?$AAi?$AAs?$AA?5?$AAs?$AAu?$AAr?$AAf?$AAa?$AAc?$AAe?$AA?5?$AAc?$AAa?$AAn?$AA?5?$AAn?$AAo?$AAt@ 004ae418     dxerr8:dxerr8.obj
 0002:0001e4b8       ??_C@_1FC@IHAKGGFP@?$AAN?$AAo?$AA?5?$AAD?$AAC?$AA?5?$AAw?$AAa?$AAs?$AA?5?$AAe?$AAv?$AAe?$AAr?$AA?5?$AAc?$AAr?$AAe?$AAa?$AAt@ 004ae4b8     dxerr8:dxerr8.obj
 0002:0001e510       ??_C@_1BNE@DCLFAPOE@?$AAW?$AAi?$AAn?$AAd?$AAo?$AAw?$AAs?$AA?5?$AAc?$AAa?$AAn?$AA?5?$AAn?$AAo?$AAt?$AA?5?$AAc?$AAr?$AAe?$AAa@ 004ae510     dxerr8:dxerr8.obj
 0002:0001e6e8       ??_C@_1PI@HBFHOPGK@?$AAS?$AAu?$AAr?$AAf?$AAa?$AAc?$AAe?$AA?5?$AAw?$AAa?$AAs?$AA?5?$AAn?$AAo?$AAt?$AA?5?$AAl?$AAo?$AAc?$AAk@ 004ae6e8     dxerr8:dxerr8.obj
 0002:0001e7e0       ??_C@_1KA@DBDBEFFA@?$AAC?$AAa?$AAn?$AA?8?$AAt?$AA?5?$AAd?$AAu?$AAp?$AAl?$AAi?$AAc?$AAa?$AAt?$AAe?$AA?5?$AAp?$AAr?$AAi?$AAm@ 004ae7e0     dxerr8:dxerr8.obj
 0002:0001e880       ??_C@_1IE@MOFGEGPG@?$AAA?$AAn?$AA?5?$AAa?$AAt?$AAt?$AAe?$AAm?$AAp?$AAt?$AA?5?$AAh?$AAa?$AAs?$AA?5?$AAb?$AAe?$AAe?$AAn?$AA?5@ 004ae880     dxerr8:dxerr8.obj
 0002:0001e908       ??_C@_1KO@JJMHDIFA@?$AAA?$AAn?$AA?5?$AAa?$AAt?$AAt?$AAe?$AAm?$AAp?$AAt?$AA?5?$AAw?$AAa?$AAs?$AA?5?$AAm?$AAa?$AAd?$AAe?$AA?5@ 004ae908     dxerr8:dxerr8.obj
 0002:0001e9b8       ??_C@_1II@NFNCDPE@?$AAr?$AAe?$AAt?$AAu?$AAr?$AAn?$AAe?$AAd?$AA?5?$AAw?$AAh?$AAe?$AAn?$AA?5?$AAa?$AAn?$AA?5?$AAo?$AAv?$AAe@ 004ae9b8     dxerr8:dxerr8.obj
 0002:0001ea40       ??_C@_1NA@HNABAD@?$AAr?$AAe?$AAt?$AAu?$AAr?$AAn?$AAe?$AAd?$AA?5?$AAw?$AAh?$AAe?$AAn?$AA?5?$AAt?$AAh?$AAe?$AA?5?$AAp?$AAo@ 004aea40     dxerr8:dxerr8.obj
 0002:0001eb10       ??_C@_1BAC@CCLKMAEN@?$AAr?$AAe?$AAt?$AAu?$AAr?$AAn?$AAe?$AAd?$AA?5?$AAw?$AAh?$AAe?$AAn?$AA?5?$AAG?$AAe?$AAt?$AAO?$AAv?$AAe@ 004aeb10     dxerr8:dxerr8.obj
 0002:0001ec18       ??_C@_1HO@MHIPJFM@?$AAr?$AAe?$AAt?$AAu?$AAr?$AAn?$AAe?$AAd?$AA?5?$AAw?$AAh?$AAe?$AAn?$AA?5?$AAG?$AAe?$AAt?$AAO?$AAv?$AAe@ 004aec18     dxerr8:dxerr8.obj
 0002:0001ec98       ??_C@_1DI@FFDIFFJ@?$AAN?$AAo?$AA?5?$AAD?$AAi?$AAr?$AAe?$AAc?$AAt?$AAD?$AAr?$AAa?$AAw?$AA?5?$AAR?$AAO?$AAP?$AA?5?$AAh?$AAa@ 004aec98     dxerr8:dxerr8.obj
 0002:0001ecd0       ??_C@_1BE@PLOEANLB@?$AAN?$AAo?$AA?5?$AAb?$AAl?$AAt?$AAe?$AAr?$AA?4?$AA?$AA@ 004aecd0     dxerr8:dxerr8.obj
 0002:0001ece8       ??_C@_1KE@CIILHEIA@?$AAI?$AAf?$AA?5?$AAa?$AA?5?$AAc?$AAl?$AAi?$AAp?$AAp?$AAe?$AAr?$AA?5?$AAo?$AAb?$AAj?$AAe?$AAc?$AAt?$AA?5@ 004aece8     dxerr8:dxerr8.obj
 0002:0001ed90       ??_C@_1GE@NHKPGIAM@?$AAN?$AAo?$AA?5?$AAh?$AAa?$AAr?$AAd?$AAw?$AAa?$AAr?$AAe?$AA?5?$AAs?$AAu?$AAp?$AAp?$AAo?$AAr?$AAt?$AA?5@ 004aed90     dxerr8:dxerr8.obj
 0002:0001edf8       ??_C@_1FI@ILIDDGPJ@?$AAN?$AAo?$AA?5?$AAp?$AAa?$AAl?$AAe?$AAt?$AAt?$AAe?$AA?5?$AAo?$AAb?$AAj?$AAe?$AAc?$AAt?$AA?5?$AAa?$AAt@ 004aedf8     dxerr8:dxerr8.obj
 0002:0001ee50       ??_C@_1PA@CNHNCEBD@?$AAT?$AAh?$AAe?$AA?5?$AAC?$AAo?$AAo?$AAp?$AAe?$AAr?$AAa?$AAt?$AAi?$AAv?$AAe?$AAL?$AAe?$AAv?$AAe?$AAl@ 004aee50     dxerr8:dxerr8.obj
 0002:0001ef40       ??_C@_1NK@HKGGANBM@?$AAH?$AAW?$AAN?$AAD?$AA?5?$AAu?$AAs?$AAe?$AAd?$AA?5?$AAb?$AAy?$AA?5?$AAD?$AAi?$AAr?$AAe?$AAc?$AAt?$AAD@ 004aef40     dxerr8:dxerr8.obj
 0002:0001f020       ??_C@_1MO@FKLPHJBB@?$AAC?$AAl?$AAi?$AAp?$AAp?$AAe?$AAr?$AA?5?$AAn?$AAo?$AAt?$AAi?$AAf?$AAi?$AAc?$AAa?$AAt?$AAi?$AAo?$AAn@ 004af020     dxerr8:dxerr8.obj
 0002:0001f0f0       ??_C@_1FK@PIKOHIAL@?$AAN?$AAo?$AA?5?$AAc?$AAl?$AAi?$AAp?$AAp?$AAe?$AAr?$AA?5?$AAo?$AAb?$AAj?$AAe?$AAc?$AAt?$AA?5?$AAa?$AAt@ 004af0f0     dxerr8:dxerr8.obj
 0002:0001f150       ??_C@_1LO@NPANNHLH@?$AAa?$AAn?$AA?5?$AAa?$AAt?$AAt?$AAe?$AAm?$AAp?$AAt?$AA?5?$AAw?$AAa?$AAs?$AA?5?$AAm?$AAa?$AAd?$AAe?$AA?5@ 004af150     dxerr8:dxerr8.obj
 0002:0001f210       ??_C@_1GI@ENEKHHOK@?$AAr?$AAe?$AAg?$AAi?$AAo?$AAn?$AA?5?$AAp?$AAa?$AAs?$AAs?$AAe?$AAd?$AA?5?$AAt?$AAo?$AA?5?$AAC?$AAl?$AAi@ 004af210     dxerr8:dxerr8.obj
 0002:0001f278       ??_C@_1EE@DIKGAIJN@?$AAs?$AAo?$AAf?$AAt?$AAw?$AAa?$AAr?$AAe?$AA?5?$AAe?$AAm?$AAu?$AAl?$AAa?$AAt?$AAi?$AAo?$AAn?$AA?5?$AAn@ 004af278     dxerr8:dxerr8.obj
 0002:0001f2c0       ??_C@_1GG@BAHIFOKD@?$AAt?$AAh?$AAi?$AAs?$AA?5?$AAp?$AAr?$AAo?$AAc?$AAe?$AAs?$AAs?$AA?5?$AAa?$AAl?$AAr?$AAe?$AAa?$AAd?$AAy@ 004af2c0     dxerr8:dxerr8.obj
 0002:0001f328       ??_C@_1MM@FDMDCNJB@?$AAA?$AA?5?$AAh?$AAa?$AAr?$AAd?$AAw?$AAa?$AAr?$AAe?$AA?5?$AAo?$AAn?$AAl?$AAy?$AA?5?$AAD?$AAi?$AAr?$AAe@ 004af328     dxerr8:dxerr8.obj
 0002:0001f3f8       ??_C@_1LA@LCINOCDK@?$AAA?$AA?5?$AAD?$AAi?$AAr?$AAe?$AAc?$AAt?$AAD?$AAr?$AAa?$AAw?$AA?5?$AAo?$AAb?$AAj?$AAe?$AAc?$AAt?$AA?5@ 004af3f8     dxerr8:dxerr8.obj
 0002:0001f4a8       ??_C@_1KC@OPBKBCG@?$AAT?$AAh?$AAe?$AA?5?$AAG?$AAU?$AAI?$AAD?$AA?5?$AAp?$AAa?$AAs?$AAs?$AAe?$AAd?$AA?5?$AAt?$AAo?$AA?5?$AAD@ 004af4a8     dxerr8:dxerr8.obj
 0002:0001f550       ??_C@_1IE@OICAACEK@?$AAR?$AAe?$AAc?$AAt?$AAa?$AAn?$AAg?$AAl?$AAe?$AA?5?$AAp?$AAr?$AAo?$AAv?$AAi?$AAd?$AAe?$AAd?$AA?5?$AAw@ 004af550     dxerr8:dxerr8.obj
 0002:0001f5d8       ??_C@_1IM@JNKBEDKF@?$AAT?$AAh?$AAe?$AA?5?$AAs?$AAp?$AAe?$AAc?$AAi?$AAf?$AAi?$AAe?$AAd?$AA?5?$AAs?$AAu?$AAr?$AAf?$AAa?$AAc@ 004af5d8     dxerr8:dxerr8.obj
 0002:0001f668       ??_C@_1OC@ILAANGEF@?$AAI?$AAn?$AAf?$AAo?$AAr?$AAm?$AAs?$AA?5?$AAD?$AAi?$AAr?$AAe?$AAc?$AAt?$AAD?$AAr?$AAa?$AAw?$AA?5?$AAt@ 004af668     dxerr8:dxerr8.obj
 0002:0001f74c       ??_C@_1DM@CNANBGOP@?$AAv?$AAe?$AAr?$AAt?$AAi?$AAc?$AAa?$AAl?$AA?5?$AAb?$AAl?$AAa?$AAn?$AAk?$AA?5?$AAi?$AAs?$AA?5?$AAi?$AAn@ 004af74c     dxerr8:dxerr8.obj
 0002:0001f788       ??_C@_1FG@CCHDNKNG@?$AAT?$AAh?$AAe?$AA?5?$AAs?$AAp?$AAe?$AAc?$AAi?$AAf?$AAi?$AAe?$AAd?$AA?5?$AAs?$AAt?$AAr?$AAe?$AAa?$AAm@ 004af788     dxerr8:dxerr8.obj
 0002:0001f7e0       ??_C@_1IG@LKLPPMKO@?$AAB?$AAi?$AAt?$AAm?$AAa?$AAs?$AAk?$AA?5?$AAi?$AAn?$AA?5?$AAt?$AAh?$AAe?$AA?5?$AAp?$AAi?$AAx?$AAe?$AAl@ 004af7e0     dxerr8:dxerr8.obj
 0002:0001f868       ??_C@_1KM@DIICPHON@?$AAS?$AAi?$AAz?$AAe?$AA?5?$AAr?$AAe?$AAq?$AAu?$AAe?$AAs?$AAt?$AAe?$AAd?$AA?5?$AAb?$AAy?$AA?5?$AAD?$AAi@ 004af868     dxerr8:dxerr8.obj
 0002:0001f918       ??_C@_1FI@DHCPDJGF@?$AAW?$AAi?$AAd?$AAt?$AAh?$AA?5?$AAr?$AAe?$AAq?$AAu?$AAe?$AAs?$AAt?$AAe?$AAd?$AA?5?$AAb?$AAy?$AA?5?$AAD@ 004af918     dxerr8:dxerr8.obj
 0002:0001f970       ??_C@_1GI@PDAEEOBM@?$AAP?$AAi?$AAx?$AAe?$AAl?$AA?5?$AAf?$AAo?$AAr?$AAm?$AAa?$AAt?$AA?5?$AAr?$AAe?$AAq?$AAu?$AAe?$AAs?$AAt@ 004af970     dxerr8:dxerr8.obj
 0002:0001f9d8       ??_C@_1FK@MCNLIJJC@?$AAH?$AAe?$AAi?$AAg?$AAh?$AAt?$AA?5?$AAr?$AAe?$AAq?$AAu?$AAe?$AAs?$AAt?$AAe?$AAd?$AA?5?$AAb?$AAy?$AA?5@ 004af9d8     dxerr8:dxerr8.obj
 0002:0001fa38       ??_C@_1CCE@CMKGAPGK@?$AAA?$AAc?$AAc?$AAe?$AAs?$AAs?$AA?5?$AAt?$AAo?$AA?5?$AAt?$AAh?$AAi?$AAs?$AA?5?$AAs?$AAu?$AAr?$AAf?$AAa@ 004afa38     dxerr8:dxerr8.obj
 0002:0001fc60       ??_C@_1GO@LEPKIGFK@?$AAA?$AAc?$AAc?$AAe?$AAs?$AAs?$AA?5?$AAt?$AAo?$AA?5?$AAS?$AAu?$AAr?$AAf?$AAa?$AAc?$AAe?$AA?5?$AAr?$AAe@ 004afc60     dxerr8:dxerr8.obj
 0002:0001fcd0       ??_C@_1BDM@MNKBJHIC@?$AAA?$AAc?$AAc?$AAe?$AAs?$AAs?$AA?5?$AAt?$AAo?$AA?5?$AAt?$AAh?$AAi?$AAs?$AA?5?$AAs?$AAu?$AAr?$AAf?$AAa@ 004afcd0     dxerr8:dxerr8.obj
 0002:0001fe10       ??_C@_1EO@CHMBHOIO@?$AAT?$AAh?$AAe?$AA?5?$AAr?$AAe?$AAq?$AAu?$AAe?$AAs?$AAt?$AAe?$AAd?$AA?5?$AAs?$AAu?$AAr?$AAf?$AAa?$AAc@ 004afe10     dxerr8:dxerr8.obj
 0002:0001fe60       ??_C@_1MC@MPLJHJCE@?$AAA?$AAc?$AAc?$AAe?$AAs?$AAs?$AA?5?$AAt?$AAo?$AA?5?$AAt?$AAh?$AAi?$AAs?$AA?5?$AAs?$AAu?$AAr?$AAf?$AAa@ 004afe60     dxerr8:dxerr8.obj
 0002:0001ff28       ??_C@_1MC@FKPNLEFM@?$AAA?$AAc?$AAc?$AAe?$AAs?$AAs?$AA?5?$AAt?$AAo?$AA?5?$AAt?$AAh?$AAi?$AAs?$AA?5?$AAp?$AAa?$AAl?$AAe?$AAt@ 004aff28     dxerr8:dxerr8.obj
 0002:0001fff0       ??_C@_1FO@HGEOMCMG@?$AAN?$AAo?$AA?5?$AAs?$AAr?$AAc?$AA?5?$AAc?$AAo?$AAl?$AAo?$AAr?$AA?5?$AAk?$AAe?$AAy?$AA?5?$AAs?$AAp?$AAe@ 004afff0     dxerr8:dxerr8.obj
 0002:00020050       ??_C@_1JC@DGIGOMBK@?$AAT?$AAh?$AAi?$AAs?$AA?5?$AAs?$AAu?$AAr?$AAf?$AAa?$AAc?$AAe?$AA?5?$AAi?$AAs?$AA?5?$AAa?$AAl?$AAr?$AAe@ 004b0050     dxerr8:dxerr8.obj
 0002:000200e8       ??_C@_1KM@IHFEDMJK@?$AAT?$AAh?$AAi?$AAs?$AA?5?$AAs?$AAu?$AAr?$AAf?$AAa?$AAc?$AAe?$AA?5?$AAi?$AAs?$AA?5?$AAa?$AAl?$AAr?$AAe@ 004b00e8     dxerr8:dxerr8.obj
 0002:00020198       ??_C@_1HI@FHFFGKKH@?$AAC?$AAa?$AAn?$AA?5?$AAo?$AAn?$AAl?$AAy?$AA?5?$AAh?$AAa?$AAv?$AAe?$AA?5?$AAo?$AAn?$AAy?$AA?5?$AAc?$AAo@ 004b0198     dxerr8:dxerr8.obj
 0002:00020210       ??_C@_1PM@MJJEFHJO@?$AAO?$AAv?$AAe?$AAr?$AAl?$AAa?$AAy?$AA?5?$AAs?$AAu?$AAr?$AAf?$AAa?$AAc?$AAe?$AAs?$AA?5?$AAc?$AAo?$AAu@ 004b0210     dxerr8:dxerr8.obj
 0002:00020310       ??_C@_1JI@CFNGGPPF@?$AAT?$AAh?$AAe?$AA?5?$AAh?$AAa?$AAr?$AAd?$AAw?$AAa?$AAr?$AAe?$AA?5?$AAn?$AAe?$AAe?$AAd?$AAe?$AAd?$AA?5@ 004b0310     dxerr8:dxerr8.obj
 0002:000203a8       ??_C@_1CI@MODDINHH@?$AAO?$AAu?$AAt?$AA?5?$AAo?$AAf?$AA?5?$AAv?$AAi?$AAd?$AAe?$AAo?$AA?5?$AAm?$AAe?$AAm?$AAo?$AAr?$AAy?$AA?$AA@ 004b03a8     dxerr8:dxerr8.obj
 0002:000203d0       ??_C@_1FG@IIJBGNH@?$AAh?$AAa?$AAr?$AAd?$AAw?$AAa?$AAr?$AAe?$AA?5?$AAd?$AAo?$AAe?$AAs?$AA?5?$AAn?$AAo?$AAt?$AA?5?$AAs?$AAu@ 004b03d0     dxerr8:dxerr8.obj
 0002:00020428       ??_C@_1LI@CMJEKACN@?$AAO?$AAp?$AAe?$AAr?$AAa?$AAt?$AAi?$AAo?$AAn?$AA?5?$AAc?$AAo?$AAu?$AAl?$AAd?$AA?5?$AAn?$AAo?$AAt?$AA?5@ 004b0428     dxerr8:dxerr8.obj
 0002:000204e0       ??_C@_1MA@EGPOLAPP@?$AAD?$AAi?$AAr?$AAe?$AAc?$AAt?$AAD?$AAr?$AAa?$AAw?$AA?5?$AAS?$AAu?$AAr?$AAf?$AAa?$AAc?$AAe?$AA?5?$AAi@ 004b04e0     dxerr8:dxerr8.obj
 0002:000205a0       ??_C@_1MM@KELGEPFD@?$AAO?$AAp?$AAe?$AAr?$AAa?$AAt?$AAi?$AAo?$AAn?$AA?5?$AAc?$AAo?$AAu?$AAl?$AAd?$AA?5?$AAn?$AAo?$AAt?$AA?5@ 004b05a0     dxerr8:dxerr8.obj
 0002:00020670       ??_C@_1OI@BIAJMKGK@?$AAO?$AAp?$AAe?$AAr?$AAa?$AAt?$AAi?$AAo?$AAn?$AA?5?$AAc?$AAo?$AAu?$AAl?$AAd?$AA?5?$AAn?$AAo?$AAt?$AA?5@ 004b0670     dxerr8:dxerr8.obj
 0002:00020758       ??_C@_1OM@HICDBBEO@?$AAD?$AAi?$AAr?$AAe?$AAc?$AAt?$AAD?$AAr?$AAa?$AAw?$AAS?$AAu?$AAr?$AAf?$AAa?$AAc?$AAe?$AA?5?$AAi?$AAs@ 004b0758     dxerr8:dxerr8.obj
 0002:00020848       ??_C@_1NI@IPOCMLNC@?$AAO?$AAp?$AAe?$AAr?$AAa?$AAt?$AAi?$AAo?$AAn?$AA?5?$AAc?$AAo?$AAu?$AAl?$AAd?$AA?5?$AAn?$AAo?$AAt?$AA?5@ 004b0848     dxerr8:dxerr8.obj
 0002:00020920       ??_C@_1LO@DCLODCCP@?$AAO?$AAp?$AAe?$AAr?$AAa?$AAt?$AAi?$AAo?$AAn?$AA?5?$AAc?$AAo?$AAu?$AAl?$AAd?$AA?5?$AAn?$AAo?$AAt?$AA?5@ 004b0920     dxerr8:dxerr8.obj
 0002:000209e0       ??_C@_1KO@HHFKPPOP@?$AAO?$AAp?$AAe?$AAr?$AAa?$AAt?$AAi?$AAo?$AAn?$AA?5?$AAc?$AAo?$AAu?$AAl?$AAd?$AA?5?$AAn?$AAo?$AAt?$AA?5@ 004b09e0     dxerr8:dxerr8.obj
 0002:00020a90       ??_C@_1NE@OABKDKHH@?$AAD?$AAi?$AAr?$AAe?$AAc?$AAt?$AAD?$AAr?$AAa?$AAw?$AAS?$AAu?$AAr?$AAf?$AAa?$AAc?$AAe?$AA?5?$AAi?$AAs@ 004b0a90     dxerr8:dxerr8.obj
 0002:00020b68       ??_C@_1BAC@NBPACNOM@?$AAO?$AAp?$AAe?$AAr?$AAa?$AAt?$AAi?$AAo?$AAn?$AA?5?$AAc?$AAo?$AAu?$AAl?$AAd?$AA?5?$AAn?$AAo?$AAt?$AA?5@ 004b0b68     dxerr8:dxerr8.obj
 0002:00020c70       ??_C@_1KM@KOFAAHOP@?$AAO?$AAp?$AAe?$AAr?$AAa?$AAt?$AAi?$AAo?$AAn?$AA?5?$AAc?$AAo?$AAu?$AAl?$AAd?$AA?5?$AAn?$AAo?$AAt?$AA?5@ 004b0c70     dxerr8:dxerr8.obj
 0002:00020d1c       ??_C@_1DK@LIKANHON@?$AAR?$AAe?$AAq?$AAu?$AAe?$AAs?$AAt?$AAe?$AAd?$AA?5?$AAi?$AAt?$AAe?$AAm?$AA?5?$AAw?$AAa?$AAs?$AA?5?$AAn@ 004b0d1c     dxerr8:dxerr8.obj
 0002:00020d58       ??_C@_1LM@KPEMJBHC@?$AAO?$AAp?$AAe?$AAr?$AAa?$AAt?$AAi?$AAo?$AAn?$AA?5?$AAc?$AAo?$AAu?$AAl?$AAd?$AA?5?$AAn?$AAo?$AAt?$AA?5@ 004b0d58     dxerr8:dxerr8.obj
 0002:00020e14       ??_C@_1DC@PDJOPNKN@?$AAT?$AAh?$AAe?$AAr?$AAe?$AA?5?$AAi?$AAs?$AA?5?$AAn?$AAo?$AA?5?$AAG?$AAD?$AAI?$AA?5?$AAp?$AAr?$AAe?$AAs@ 004b0e14     dxerr8:dxerr8.obj
 0002:00020e48       ??_C@_1LO@PPDCLMDK@?$AAO?$AAp?$AAe?$AAr?$AAa?$AAt?$AAi?$AAo?$AAn?$AA?5?$AAc?$AAo?$AAu?$AAl?$AAd?$AA?5?$AAn?$AAo?$AAt?$AA?5@ 004b0e48     dxerr8:dxerr8.obj
 0002:00020f08       ??_C@_1HG@CMJFOHPP@?$AAN?$AAo?$AA?5?$AAD?$AAi?$AAr?$AAe?$AAc?$AAt?$AAD?$AAr?$AAa?$AAw?$AA?5?$AAs?$AAu?$AAp?$AAp?$AAo?$AAr@ 004b0f08     dxerr8:dxerr8.obj
 0002:00020f80       ??_C@_1NI@HNHBIJDK@?$AAO?$AAp?$AAe?$AAr?$AAa?$AAt?$AAi?$AAo?$AAn?$AA?5?$AAr?$AAe?$AAq?$AAu?$AAi?$AAr?$AAe?$AAs?$AA?5?$AAt@ 004b0f80     dxerr8:dxerr8.obj
 0002:00021058       ??_C@_1FI@IMKDDLIF@?$AAF?$AAl?$AAi?$AAp?$AAp?$AAi?$AAn?$AAg?$AA?5?$AAv?$AAi?$AAs?$AAi?$AAb?$AAl?$AAe?$AA?5?$AAs?$AAu?$AAr@ 004b1058     dxerr8:dxerr8.obj
 0002:000210b0       ??_C@_1FG@MHACJCLG@?$AAS?$AAu?$AAr?$AAf?$AAa?$AAc?$AAe?$AA?5?$AAd?$AAo?$AAe?$AAs?$AAn?$AA?8?$AAt?$AA?5?$AAc?$AAu?$AAr?$AAr@ 004b10b0     dxerr8:dxerr8.obj
 0002:00021108       ??_C@_1CO@GEEJFOLN@?$AAn?$AAo?$AA?5?$AAc?$AAl?$AAi?$AAp?$AA?5?$AAl?$AAi?$AAs?$AAt?$AA?5?$AAa?$AAv?$AAa?$AAi?$AAl?$AAa?$AAb@ 004b1108     dxerr8:dxerr8.obj
 0002:00021138       ??_C@_1MO@MCPDAMPO@?$AAO?$AAp?$AAe?$AAr?$AAa?$AAt?$AAi?$AAo?$AAn?$AA?5?$AAc?$AAo?$AAu?$AAl?$AAd?$AA?5?$AAn?$AAo?$AAt?$AA?5@ 004b1138     dxerr8:dxerr8.obj
 0002:00021208       ??_C@_1LE@CHGOLIBL@?$AAC?$AAr?$AAe?$AAa?$AAt?$AAe?$AA?5?$AAf?$AAu?$AAn?$AAc?$AAt?$AAi?$AAo?$AAn?$AA?5?$AAc?$AAa?$AAl?$AAl@ 004b1208     dxerr8:dxerr8.obj
 0002:000212c0       ??_C@_1MO@OBNLCFIM@?$AAO?$AAp?$AAe?$AAr?$AAa?$AAt?$AAi?$AAo?$AAn?$AA?5?$AAc?$AAo?$AAu?$AAl?$AAd?$AA?5?$AAn?$AAo?$AAt?$AA?5@ 004b12c0     dxerr8:dxerr8.obj
 0002:00021390       ??_C@_1JG@PIJNPIGK@?$AAO?$AAp?$AAe?$AAr?$AAa?$AAt?$AAi?$AAo?$AAn?$AA?5?$AAc?$AAo?$AAu?$AAl?$AAd?$AA?5?$AAn?$AAo?$AAt?$AA?5@ 004b1390     dxerr8:dxerr8.obj
 0002:00021428       ??_C@_1DA@BOIPLNHA@?$AAT?$AAh?$AAe?$AAr?$AAe?$AA?5?$AAi?$AAs?$AA?5?$AAn?$AAo?$AA?5?$AA3?$AAD?$AA?5?$AAp?$AAr?$AAe?$AAs?$AAe@ 004b1428     dxerr8:dxerr8.obj
 0002:00021458       ??_C@_1NA@IICLDJIF@?$AAO?$AAp?$AAe?$AAr?$AAa?$AAt?$AAi?$AAo?$AAn?$AA?5?$AAc?$AAo?$AAu?$AAl?$AAd?$AA?5?$AAn?$AAo?$AAt?$AA?5@ 004b1458     dxerr8:dxerr8.obj
 0002:00021528       ??_C@_1LK@KFGNANE@?$AAO?$AAp?$AAe?$AAr?$AAa?$AAt?$AAi?$AAo?$AAn?$AA?5?$AAc?$AAo?$AAu?$AAl?$AAd?$AA?5?$AAn?$AAo?$AAt?$AA?5@ 004b1528     dxerr8:dxerr8.obj
 0002:000215e8       ??_C@_1EA@HOBAJCLN@?$AAR?$AAe?$AAc?$AAt?$AAa?$AAn?$AAg?$AAl?$AAe?$AA?5?$AAp?$AAr?$AAo?$AAv?$AAi?$AAd?$AAe?$AAd?$AA?5?$AAw@ 004b15e8     dxerr8:dxerr8.obj
 0002:00021628       ??_C@_1FO@FDJJKIJK@?$AAD?$AAi?$AAr?$AAe?$AAc?$AAt?$AAD?$AAr?$AAa?$AAw?$AA?5?$AAd?$AAo?$AAe?$AAs?$AA?5?$AAn?$AAo?$AAt?$AA?5@ 004b1628     dxerr8:dxerr8.obj
 0002:00021688       ??_C@_1FO@EOCMPFNH@?$AAD?$AAi?$AAr?$AAe?$AAc?$AAt?$AAD?$AAr?$AAa?$AAw?$AA?5?$AAd?$AAo?$AAe?$AAs?$AA?5?$AAn?$AAo?$AAt?$AA?5@ 004b1688     dxerr8:dxerr8.obj
 0002:000216e8       ??_C@_1IK@EJFOJIEF@?$AAD?$AAi?$AAr?$AAe?$AAc?$AAt?$AAD?$AAr?$AAa?$AAw?$AA?5?$AAr?$AAe?$AAc?$AAe?$AAi?$AAv?$AAe?$AAd?$AA?5@ 004b16e8     dxerr8:dxerr8.obj
 0002:00021778       ??_C@_1EM@LPMFPOMH@?$AAp?$AAi?$AAx?$AAe?$AAl?$AA?5?$AAf?$AAo?$AAr?$AAm?$AAa?$AAt?$AA?5?$AAw?$AAa?$AAs?$AA?5?$AAi?$AAn?$AAv@ 004b1778     dxerr8:dxerr8.obj
 0002:000217c8       ??_C@_1IG@POKMKCED@?$AAO?$AAn?$AAe?$AA?5?$AAo?$AAr?$AA?5?$AAm?$AAo?$AAr?$AAe?$AA?5?$AAo?$AAf?$AA?5?$AAt?$AAh?$AAe?$AA?5?$AAc@ 004b17c8     dxerr8:dxerr8.obj
 0002:00021850       ??_C@_1EI@NFIJHMED@?$AAS?$AAu?$AAp?$AAp?$AAo?$AAr?$AAt?$AA?5?$AAi?$AAs?$AA?5?$AAc?$AAu?$AAr?$AAr?$AAe?$AAn?$AAt?$AAl?$AAy@ 004b1850     dxerr8:dxerr8.obj
 0002:00021898       ??_C@_1IM@BODHOPOP@?$AAA?$AAn?$AA?5?$AAe?$AAx?$AAc?$AAe?$AAp?$AAt?$AAi?$AAo?$AAn?$AA?5?$AAw?$AAa?$AAs?$AA?5?$AAe?$AAn?$AAc@ 004b1898     dxerr8:dxerr8.obj
 0002:00021928       ??_C@_1IC@KIGIKDEF@?$AAH?$AAe?$AAi?$AAg?$AAh?$AAt?$AA?5?$AAo?$AAf?$AA?5?$AAr?$AAe?$AAc?$AAt?$AAa?$AAn?$AAg?$AAl?$AAe?$AA?5@ 004b1928     dxerr8:dxerr8.obj
 0002:000219b0       ??_C@_1KA@DKMIGLAO@?$AAU?$AAn?$AAa?$AAb?$AAl?$AAe?$AA?5?$AAt?$AAo?$AA?5?$AAm?$AAa?$AAt?$AAc?$AAh?$AA?5?$AAp?$AAr?$AAi?$AAm@ 004b19b0     dxerr8:dxerr8.obj
 0002:00021a50       ??_C@_1HK@FINCMHID@?$AAT?$AAh?$AAi?$AAs?$AA?5?$AAs?$AAu?$AAr?$AAf?$AAa?$AAc?$AAe?$AA?5?$AAc?$AAa?$AAn?$AA?5?$AAn?$AAo?$AAt@ 004b1a50     dxerr8:dxerr8.obj
 0002:00021acc       ??_C@_1BI@BLDBHGMC@?$AAU?$AAs?$AAe?$AAr?$AA?5?$AAc?$AAa?$AAn?$AAc?$AAe?$AAl?$AA?$AA@ 004b1acc     dxerr8:dxerr8.obj
 0002:00021ae8       ??_C@_1HG@KHAOFHBO@?$AAT?$AAh?$AAi?$AAs?$AA?5?$AAs?$AAu?$AAr?$AAf?$AAa?$AAc?$AAe?$AA?5?$AAc?$AAa?$AAn?$AA?5?$AAn?$AAo?$AAt@ 004b1ae8     dxerr8:dxerr8.obj
 0002:00021b60       ??_C@_1BM@BMKDGONF@?$AAU?$AAn?$AAi?$AAn?$AAi?$AAt?$AAi?$AAa?$AAl?$AAi?$AAz?$AAe?$AAd?$AA?$AA@ 004b1b60     dxerr8:dxerr8.obj
 0002:00021b7c       ??_C@_1BO@JJOLECJJ@?$AAS?$AAe?$AAn?$AAd?$AA?5?$AAt?$AAo?$AAo?$AA?5?$AAl?$AAa?$AAr?$AAg?$AAe?$AA?$AA@ 004b1b7c     dxerr8:dxerr8.obj
 0002:00021b9c       ??_C@_1BK@IPELHICG@?$AAS?$AAe?$AAs?$AAs?$AAi?$AAo?$AAn?$AA?5?$AAf?$AAu?$AAl?$AAl?$AA?$AA@ 004b1b9c     dxerr8:dxerr8.obj
 0002:00021bb8       ??_C@_1BG@HIBBNELL@?$AAT?$AAa?$AAb?$AAl?$AAe?$AA?5?$AAf?$AAu?$AAl?$AAl?$AA?$AA@ 004b1bb8     dxerr8:dxerr8.obj
 0002:00021bd0       ??_C@_1BE@JODEDHDG@?$AAT?$AAi?$AAm?$AAe?$AAd?$AA?5?$AAo?$AAu?$AAt?$AA?$AA@ 004b1bd0     dxerr8:dxerr8.obj
 0002:00021be4       ??_C@_1CK@LCLMKANE@?$AAP?$AAl?$AAa?$AAy?$AAe?$AAr?$AA?5?$AAn?$AAo?$AAt?$AA?5?$AAr?$AAe?$AAa?$AAc?$AAh?$AAa?$AAb?$AAl?$AAe@ 004b1be4     dxerr8:dxerr8.obj
 0002:00021c10       ??_C@_1BC@MFANOBHH@?$AAN?$AAo?$AAt?$AA?5?$AAh?$AAo?$AAs?$AAt?$AA?$AA@ 004b1c10     dxerr8:dxerr8.obj
 0002:00021c24       ??_C@_1BE@GNABLGFN@?$AAN?$AAo?$AAt?$AA?5?$AAr?$AAe?$AAa?$AAd?$AAy?$AA?$AA@ 004b1c24     dxerr8:dxerr8.obj
 0002:00021c38       ??_C@_1BO@JGNEKAPM@?$AAN?$AAo?$AAt?$AA?5?$AAr?$AAe?$AAg?$AAi?$AAs?$AAt?$AAe?$AAr?$AAe?$AAd?$AA?$AA@ 004b1c38     dxerr8:dxerr8.obj
 0002:00021c58       ??_C@_1BI@CCGBBBGB@?$AAP?$AAl?$AAa?$AAy?$AAe?$AAr?$AA?5?$AAl?$AAo?$AAs?$AAt?$AA?$AA@ 004b1c58     dxerr8:dxerr8.obj
 0002:00021c70       ??_C@_1BI@CMKNBKMD@?$AAN?$AAo?$AAt?$AA?5?$AAa?$AAl?$AAl?$AAo?$AAw?$AAe?$AAd?$AA?$AA@ 004b1c70     dxerr8:dxerr8.obj
 0002:00021c88       ??_C@_1BM@KICIJHHO@?$AAN?$AAo?$AA?5?$AAc?$AAo?$AAn?$AAn?$AAe?$AAc?$AAt?$AAi?$AAo?$AAn?$AA?$AA@ 004b1c88     dxerr8:dxerr8.obj
 0002:00021ca4       ??_C@_1BO@HJGHBCOL@?$AAN?$AAo?$AA?5?$AAh?$AAo?$AAs?$AAt?$AA?5?$AAp?$AAl?$AAa?$AAy?$AAe?$AAr?$AA?$AA@ 004b1ca4     dxerr8:dxerr8.obj
 0002:00021cc4       ??_C@_1DG@MOADKBGL@?$AAN?$AAo?$AA?5?$AAm?$AAo?$AAr?$AAe?$AA?5?$AAa?$AAd?$AAd?$AAr?$AAe?$AAs?$AAs?$AA?5?$AAc?$AAo?$AAm?$AAp@ 004b1cc4     dxerr8:dxerr8.obj
 0002:00021cfc       ??_C@_1BI@MFEGHFNB@?$AAN?$AAo?$AA?5?$AAr?$AAe?$AAs?$AAp?$AAo?$AAn?$AAs?$AAe?$AA?$AA@ 004b1cfc     dxerr8:dxerr8.obj
 0002:00021d14       ??_C@_1BA@ILPJEJDJ@?$AAN?$AAo?$AA?5?$AAc?$AAa?$AAp?$AAs?$AA?$AA@ 004b1d14     dxerr8:dxerr8.obj
 0002:00021d24       ??_C@_1BO@KENBOGIJ@?$AAI?$AAn?$AAv?$AAa?$AAl?$AAi?$AAd?$AA?5?$AAs?$AAt?$AAr?$AAi?$AAn?$AAg?$AA?$AA@ 004b1d24     dxerr8:dxerr8.obj
 0002:00021d44       ??_C@_1BI@OIJKOCCP@?$AAI?$AAn?$AAv?$AAa?$AAl?$AAi?$AAd?$AA?5?$AAu?$AAr?$AAl?$AA?$AA@ 004b1d44     dxerr8:dxerr8.obj
 0002:00021d5c       ??_C@_1CA@CPCPNKPH@?$AAI?$AAn?$AAv?$AAa?$AAl?$AAi?$AAd?$AA?5?$AAv?$AAe?$AAr?$AAs?$AAi?$AAo?$AAn?$AA?$AA@ 004b1d5c     dxerr8:dxerr8.obj
 0002:00021d7c       ??_C@_1CC@KFJKADHO@?$AAI?$AAn?$AAv?$AAa?$AAl?$AAi?$AAd?$AA?5?$AAp?$AAr?$AAi?$AAo?$AAr?$AAi?$AAt?$AAy?$AA?$AA@ 004b1d7c     dxerr8:dxerr8.obj
 0002:00021da0       ??_C@_1CE@FECKCHMJ@?$AAI?$AAn?$AAv?$AAa?$AAl?$AAi?$AAd?$AA?5?$AAi?$AAn?$AAt?$AAe?$AAr?$AAf?$AAa?$AAc?$AAe?$AA?$AA@ 004b1da0     dxerr8:dxerr8.obj
 0002:00021dc4       ??_C@_1BO@JGFHDMCI@?$AAI?$AAn?$AAv?$AAa?$AAl?$AAi?$AAd?$AA?5?$AAo?$AAb?$AAj?$AAe?$AAc?$AAt?$AA?$AA@ 004b1dc4     dxerr8:dxerr8.obj
 0002:00021de4       ??_C@_1CC@IDIOGBAE@?$AAI?$AAn?$AAv?$AAa?$AAl?$AAi?$AAd?$AA?5?$AAp?$AAa?$AAs?$AAs?$AAw?$AAo?$AAr?$AAd?$AA?$AA@ 004b1de4     dxerr8:dxerr8.obj
 0002:00021e08       ??_C@_1BO@GPIGAEPO@?$AAI?$AAn?$AAv?$AAa?$AAl?$AAi?$AAd?$AA?5?$AAp?$AAl?$AAa?$AAy?$AAe?$AAr?$AA?$AA@ 004b1e08     dxerr8:dxerr8.obj
 0002:00021e28       ??_C@_1CC@DJHAOMCO@?$AAI?$AAn?$AAv?$AAa?$AAl?$AAi?$AAd?$AA?5?$AAi?$AAn?$AAs?$AAt?$AAa?$AAn?$AAc?$AAe?$AA?$AA@ 004b1e28     dxerr8:dxerr8.obj
 0002:00021e4c       ??_C@_1BM@MCNHBIGK@?$AAI?$AAn?$AAv?$AAa?$AAl?$AAi?$AAd?$AA?5?$AAf?$AAl?$AAa?$AAg?$AAs?$AA?$AA@ 004b1e4c     dxerr8:dxerr8.obj
 0002:00021e68       ??_C@_1BM@CJDEPLBC@?$AAI?$AAn?$AAv?$AAa?$AAl?$AAi?$AAd?$AA?5?$AAg?$AAr?$AAo?$AAu?$AAp?$AA?$AA@ 004b1e68     dxerr8:dxerr8.obj
 0002:00021e84       ??_C@_1BO@FILGGGND@?$AAI?$AAn?$AAv?$AAa?$AAl?$AAi?$AAd?$AA?5?$AAh?$AAa?$AAn?$AAd?$AAl?$AAe?$AA?$AA@ 004b1e84     dxerr8:dxerr8.obj
 0002:00021ea4       ??_C@_1CK@FCABGEPC@?$AAI?$AAn?$AAv?$AAa?$AAl?$AAi?$AAd?$AA?5?$AAh?$AAo?$AAs?$AAt?$AA?5?$AAa?$AAd?$AAd?$AAr?$AAe?$AAs?$AAs@ 004b1ea4     dxerr8:dxerr8.obj
 0002:00021ed0       ??_C@_1CE@DDNBDAOE@?$AAI?$AAn?$AAv?$AAa?$AAl?$AAi?$AAd?$AA?5?$AAe?$AAn?$AAd?$AA?5?$AAp?$AAo?$AAi?$AAn?$AAt?$AA?$AA@ 004b1ed0     dxerr8:dxerr8.obj
 0002:00021ef4       ??_C@_1CO@JMCGMBCL@?$AAI?$AAn?$AAv?$AAa?$AAl?$AAi?$AAd?$AA?5?$AAa?$AAd?$AAd?$AAr?$AAe?$AAs?$AAs?$AA?5?$AAf?$AAo?$AAr?$AAm@ 004b1ef4     dxerr8:dxerr8.obj
 0002:00021f24       ??_C@_1CI@LLFFJIMI@?$AAI?$AAn?$AAv?$AAa?$AAl?$AAi?$AAd?$AA?5?$AAa?$AAp?$AAp?$AAl?$AAi?$AAc?$AAa?$AAt?$AAi?$AAo?$AAn?$AA?$AA@ 004b1f24     dxerr8:dxerr8.obj
 0002:00021f4c       ??_C@_1CA@FBIJAIEG@?$AAI?$AAn?$AAv?$AAa?$AAl?$AAi?$AAd?$AA?5?$AAc?$AAo?$AAm?$AAm?$AAa?$AAn?$AAd?$AA?$AA@ 004b1f4c     dxerr8:dxerr8.obj
 0002:00021f6c       ??_C@_1CO@GCGKLDJM@?$AAI?$AAn?$AAv?$AAa?$AAl?$AAi?$AAd?$AA?5?$AAd?$AAe?$AAv?$AAi?$AAc?$AAe?$AA?5?$AAa?$AAd?$AAd?$AAr?$AAe@ 004b1f6c     dxerr8:dxerr8.obj
 0002:00021f9c       ??_C@_1CG@MAOHCKOB@?$AAI?$AAn?$AAc?$AAo?$AAm?$AAp?$AAl?$AAe?$AAt?$AAe?$AA?5?$AAa?$AAd?$AAd?$AAr?$AAe?$AAs?$AAs?$AA?$AA@ 004b1f9c     dxerr8:dxerr8.obj
 0002:00021fc4       ??_C@_1CA@NEDKCIHI@?$AAG?$AAr?$AAo?$AAu?$AAp?$AA?5?$AAn?$AAo?$AAt?$AA?5?$AAe?$AAm?$AAp?$AAt?$AAy?$AA?$AA@ 004b1fc4     dxerr8:dxerr8.obj
 0002:00021fe4       ??_C@_1BA@GDLNIKCG@?$AAH?$AAo?$AAs?$AAt?$AAi?$AAn?$AAg?$AA?$AA@ 004b1fe4     dxerr8:dxerr8.obj
 0002:00021ff4       ??_C@_1DC@FBOIHGFK@?$AAH?$AAo?$AAs?$AAt?$AA?5?$AAr?$AAe?$AAj?$AAe?$AAc?$AAt?$AAe?$AAd?$AA?5?$AAc?$AAo?$AAn?$AAn?$AAe?$AAc@ 004b1ff4     dxerr8:dxerr8.obj
 0002:00022028       ??_C@_1DA@ONGCFJHL@?$AAH?$AAo?$AAs?$AAt?$AA?5?$AAt?$AAe?$AAr?$AAm?$AAi?$AAn?$AAa?$AAt?$AAe?$AAd?$AA?5?$AAs?$AAe?$AAs?$AAs@ 004b2028     dxerr8:dxerr8.obj
 0002:00022058       ??_C@_1DA@MPKEDFMP@?$AAE?$AAn?$AAu?$AAm?$AA?5?$AAr?$AAe?$AAs?$AAp?$AAo?$AAn?$AAs?$AAe?$AA?5?$AAt?$AAo?$AAo?$AA?5?$AAl?$AAa@ 004b2058     dxerr8:dxerr8.obj
 0002:00022088       ??_C@_1BG@LFOEAGBL@?$AAC?$AAo?$AAn?$AAv?$AAe?$AAr?$AAs?$AAi?$AAo?$AAn?$AA?$AA@ 004b2088     dxerr8:dxerr8.obj
 0002:000220a0       ??_C@_1BO@FIOAOFAE@?$AAD?$AAa?$AAt?$AAa?$AA?5?$AAt?$AAo?$AAo?$AA?5?$AAl?$AAa?$AAr?$AAg?$AAe?$AA?$AA@ 004b20a0     dxerr8:dxerr8.obj
 0002:000220c0       ??_C@_1BO@KHOCJOPO@?$AAD?$AAo?$AAe?$AAs?$AA?5?$AAn?$AAo?$AAt?$AA?5?$AAe?$AAx?$AAi?$AAs?$AAt?$AA?$AA@ 004b20c0     dxerr8:dxerr8.obj
 0002:000220e0       ??_C@_1CE@CJCIMJAM@?$AAD?$AAu?$AAp?$AAl?$AAi?$AAc?$AAa?$AAt?$AAe?$AA?5?$AAc?$AAo?$AAm?$AAm?$AAa?$AAn?$AAd?$AA?$AA@ 004b20e0     dxerr8:dxerr8.obj
 0002:00022104       ??_C@_1DA@IMGIAEOM@?$AAE?$AAn?$AAd?$AA?5?$AAp?$AAo?$AAi?$AAn?$AAt?$AA?5?$AAn?$AAo?$AAt?$AA?5?$AAr?$AAe?$AAc?$AAe?$AAi?$AAv@ 004b2104     dxerr8:dxerr8.obj
 0002:00022134       ??_C@_1CK@IOIEHEHL@?$AAE?$AAn?$AAu?$AAm?$AA?5?$AAq?$AAu?$AAe?$AAr?$AAy?$AA?5?$AAt?$AAo?$AAo?$AA?5?$AAl?$AAa?$AAr?$AAg?$AAe@ 004b2134     dxerr8:dxerr8.obj
 0002:00022160       ??_C@_1BO@NCAPGINE@?$AAC?$AAa?$AAn?$AA?5?$AAn?$AAo?$AAt?$AA?5?$AAc?$AAa?$AAn?$AAc?$AAe?$AAl?$AA?$AA@ 004b2160     dxerr8:dxerr8.obj
 0002:00022180       ??_C@_1CE@MPNFFKNM@?$AAC?$AAa?$AAn?$AAt?$AA?5?$AAc?$AAr?$AAe?$AAa?$AAt?$AAe?$AA?5?$AAg?$AAr?$AAo?$AAu?$AAp?$AA?$AA@ 004b2180     dxerr8:dxerr8.obj
 0002:000221a4       ??_C@_1CG@JLCOILKB@?$AAC?$AAa?$AAn?$AAt?$AA?5?$AAc?$AAr?$AAe?$AAa?$AAt?$AAe?$AA?5?$AAp?$AAl?$AAa?$AAy?$AAe?$AAr?$AA?$AA@ 004b21a4     dxerr8:dxerr8.obj
 0002:000221cc       ??_C@_1DA@DGJDDNKB@?$AAC?$AAa?$AAn?$AAt?$AA?5?$AAl?$AAa?$AAu?$AAn?$AAc?$AAh?$AA?5?$AAa?$AAp?$AAp?$AAl?$AAi?$AAc?$AAa?$AAt@ 004b21cc     dxerr8:dxerr8.obj
 0002:000221fc       ??_C@_1BG@ODOFIBAP@?$AAC?$AAo?$AAn?$AAn?$AAe?$AAc?$AAt?$AAi?$AAn?$AAg?$AA?$AA@ 004b21fc     dxerr8:dxerr8.obj
 0002:00022214       ??_C@_1CC@GCPGBJFL@?$AAB?$AAu?$AAf?$AAf?$AAe?$AAr?$AA?5?$AAt?$AAo?$AAo?$AA?5?$AAs?$AAm?$AAa?$AAl?$AAl?$AA?$AA@ 004b2214     dxerr8:dxerr8.obj
 0002:00022238       ??_C@_1BG@ECIDANKL@?$AAA?$AAd?$AAd?$AAr?$AAe?$AAs?$AAs?$AAi?$AAn?$AAg?$AA?$AA@ 004b2238     dxerr8:dxerr8.obj
 0002:00022250       ??_C@_1CA@BAABJNGC@?$AAA?$AAl?$AAr?$AAe?$AAa?$AAd?$AAy?$AA?5?$AAc?$AAl?$AAo?$AAs?$AAi?$AAn?$AAg?$AA?$AA@ 004b2250     dxerr8:dxerr8.obj
 0002:00022270       ??_C@_1CE@BLFDDLIO@?$AAA?$AAl?$AAr?$AAe?$AAa?$AAd?$AAy?$AA?5?$AAc?$AAo?$AAn?$AAn?$AAe?$AAc?$AAt?$AAe?$AAd?$AA?$AA@ 004b2270     dxerr8:dxerr8.obj
 0002:00022294       ??_C@_1CM@JLBMMAFJ@?$AAA?$AAl?$AAr?$AAe?$AAa?$AAd?$AAy?$AA?5?$AAd?$AAi?$AAs?$AAc?$AAo?$AAn?$AAn?$AAe?$AAc?$AAt?$AAi?$AAn@ 004b2294     dxerr8:dxerr8.obj
 0002:000222c0       ??_C@_1CI@CMBPBGDK@?$AAA?$AAl?$AAr?$AAe?$AAa?$AAd?$AAy?$AA?5?$AAi?$AAn?$AAi?$AAt?$AAi?$AAa?$AAl?$AAi?$AAz?$AAe?$AAd?$AA?$AA@ 004b22c0     dxerr8:dxerr8.obj
 0002:000222e8       ??_C@_1CG@NPMBDLCJ@?$AAA?$AAl?$AAr?$AAe?$AAa?$AAd?$AAy?$AA?5?$AAr?$AAe?$AAg?$AAi?$AAs?$AAt?$AAe?$AAr?$AAe?$AAd?$AA?$AA@ 004b22e8     dxerr8:dxerr8.obj
 0002:00022310       ??_C@_1BA@JCPMFPEO@?$AAA?$AAb?$AAo?$AAr?$AAt?$AAe?$AAd?$AA?$AA@ 004b2310     dxerr8:dxerr8.obj
 0002:00022320       ??_C@_1BM@OAGJBHNN@?$AAL?$AAo?$AAc?$AAk?$AAe?$AAd?$AA?5?$AAb?$AAu?$AAf?$AAf?$AAe?$AAr?$AA?$AA@ 004b2320     dxerr8:dxerr8.obj
 0002:0002233c       ??_C@_1BO@DOKMBDKM@?$AAI?$AAn?$AAv?$AAa?$AAl?$AAi?$AAd?$AA?5?$AAb?$AAu?$AAf?$AAf?$AAe?$AAr?$AA?$AA@ 004b233c     dxerr8:dxerr8.obj
 0002:0002235c       ??_C@_1CK@NNCEDMKP@?$AAN?$AAo?$AA?5?$AAr?$AAe?$AAc?$AA?5?$AAv?$AAo?$AAl?$AA?5?$AAa?$AAv?$AAa?$AAi?$AAl?$AAa?$AAb?$AAl?$AAe@ 004b235c     dxerr8:dxerr8.obj
 0002:00022388       ??_C@_1BE@NGEMHDGL@?$AAU?$AAs?$AAe?$AAr?$AA?5?$AAb?$AAa?$AAc?$AAk?$AA?$AA@ 004b2388     dxerr8:dxerr8.obj
 0002:0002239c       ??_C@_1CI@HOLDNHCH@?$AAT?$AAr?$AAa?$AAn?$AAs?$AAp?$AAo?$AAr?$AAt?$AA?5?$AAn?$AAo?$AA?5?$AAp?$AAl?$AAa?$AAy?$AAe?$AAr?$AA?$AA@ 004b239c     dxerr8:dxerr8.obj
 0002:000223c4       ??_C@_1CK@IBPDKHID@?$AAT?$AAr?$AAa?$AAn?$AAs?$AAp?$AAo?$AAr?$AAt?$AA?5?$AAn?$AAo?$AA?5?$AAs?$AAe?$AAs?$AAs?$AAi?$AAo?$AAn@ 004b23c4     dxerr8:dxerr8.obj
 0002:000223f0       ??_C@_1CG@NKGOJLE@?$AAT?$AAr?$AAa?$AAn?$AAs?$AAp?$AAo?$AAr?$AAt?$AA?5?$AAn?$AAo?$AAt?$AA?5?$AAi?$AAn?$AAi?$AAt?$AA?$AA@ 004b23f0     dxerr8:dxerr8.obj
 0002:00022418       ??_C@_1BI@CGGFBHPM@?$AAN?$AAo?$AA?5?$AAc?$AAa?$AAl?$AAl?$AAb?$AAa?$AAc?$AAk?$AA?$AA@ 004b2418     dxerr8:dxerr8.obj
 0002:00022430       ??_C@_1BK@NOKDDNLJ@?$AAN?$AAo?$AA?5?$AAt?$AAr?$AAa?$AAn?$AAs?$AAp?$AAo?$AAr?$AAt?$AA?$AA@ 004b2430     dxerr8:dxerr8.obj
 0002:0002244c       ??_C@_1BI@JBHOJFAA@?$AAI?$AAn?$AAi?$AAt?$AAi?$AAa?$AAl?$AAi?$AAz?$AAe?$AAd?$AA?$AA@ 004b244c     dxerr8:dxerr8.obj
 0002:00022464       ??_C@_1CK@DIOLCNGI@?$AAI?$AAn?$AAc?$AAo?$AAm?$AAp?$AAa?$AAt?$AAi?$AAb?$AAl?$AAe?$AA?5?$AAv?$AAe?$AAr?$AAs?$AAi?$AAo?$AAn@ 004b2464     dxerr8:dxerr8.obj
 0002:00022490       ??_C@_1BE@GKDPNACC@?$AAR?$AAu?$AAn?$AA?5?$AAs?$AAe?$AAt?$AAu?$AAp?$AA?$AA@ 004b2490     dxerr8:dxerr8.obj
 0002:000224a4       ??_C@_1BG@EDMHMEBC@?$AAS?$AAe?$AAn?$AAd?$AA?5?$AAe?$AAr?$AAr?$AAo?$AAr?$AA?$AA@ 004b24a4     dxerr8:dxerr8.obj
 0002:000224bc       ??_C@_1CM@GGJBBBG@?$AAP?$AAl?$AAa?$AAy?$AAb?$AAa?$AAc?$AAk?$AA?5?$AAs?$AAy?$AAs?$AAt?$AAe?$AAm?$AA?5?$AAe?$AAr?$AAr?$AAo@ 004b24bc     dxerr8:dxerr8.obj
 0002:000224e8       ??_C@_1CI@MGAEIECP@?$AAR?$AAe?$AAc?$AAo?$AAr?$AAd?$AA?5?$AAs?$AAy?$AAs?$AAt?$AAe?$AAm?$AA?5?$AAe?$AAr?$AAr?$AAo?$AAr?$AA?$AA@ 004b24e8     dxerr8:dxerr8.obj
 0002:00022510       ??_C@_1BI@DNDGEFGA@?$AAN?$AAo?$AAt?$AA?5?$AAh?$AAo?$AAs?$AAt?$AAi?$AAn?$AAg?$AA?$AA@ 004b2510     dxerr8:dxerr8.obj
 0002:00022528       ??_C@_1BK@KJMMIGGE@?$AAN?$AAo?$AAt?$AA?5?$AAb?$AAu?$AAf?$AAf?$AAe?$AAr?$AAe?$AAd?$AA?$AA@ 004b2528     dxerr8:dxerr8.obj
 0002:00022544       ??_C@_1CC@PPDCBAGF@?$AAA?$AAl?$AAr?$AAe?$AAa?$AAd?$AAy?$AA?5?$AAb?$AAu?$AAf?$AAf?$AAe?$AAr?$AAe?$AAd?$AA?$AA@ 004b2544     dxerr8:dxerr8.obj
 0002:00022568       ??_C@_1BI@DECAEFCK@?$AAN?$AAo?$AA?5?$AA3?$AAd?$AA?5?$AAs?$AAo?$AAu?$AAn?$AAd?$AA?$AA@ 004b2568     dxerr8:dxerr8.obj
 0002:00022580       ??_C@_1CA@FNIHHONP@?$AAC?$AAo?$AAn?$AAn?$AAe?$AAc?$AAt?$AA?5?$AAa?$AAb?$AAo?$AAr?$AAt?$AAe?$AAd?$AA?$AA@ 004b2580     dxerr8:dxerr8.obj
 0002:000225a0       ??_C@_1BC@JBKKLGIB@?$AAT?$AAi?$AAm?$AAe?$AA?5?$AAo?$AAu?$AAt?$AA?$AA@ 004b25a0     dxerr8:dxerr8.obj
 0002:000225b4       ??_C@_1CG@GPHCPJHD@?$AAS?$AAo?$AAu?$AAn?$AAd?$AA?5?$AAi?$AAn?$AAi?$AAt?$AA?5?$AAf?$AAa?$AAi?$AAl?$AAu?$AAr?$AAe?$AA?$AA@ 004b25b4     dxerr8:dxerr8.obj
 0002:000225dc       ??_C@_1CA@CPGPDOLA@?$AAA?$AAl?$AAr?$AAe?$AAa?$AAd?$AAy?$AA?5?$AAp?$AAe?$AAn?$AAd?$AAi?$AAn?$AAg?$AA?$AA@ 004b25dc     dxerr8:dxerr8.obj
 0002:000225fc       ??_C@_1DE@MDPFJPGF@?$AAC?$AAo?$AAm?$AAp?$AAr?$AAe?$AAs?$AAs?$AAi?$AAo?$AAn?$AA?5?$AAn?$AAo?$AAt?$AA?5?$AAs?$AAu?$AAp?$AAp@ 004b25fc     dxerr8:dxerr8.obj
 0002:00022630       ??_C@_1CG@IMIDKDOJ@?$AAT?$AAr?$AAa?$AAn?$AAs?$AAp?$AAo?$AAr?$AAt?$AA?5?$AAn?$AAo?$AAt?$AA?5?$AAh?$AAo?$AAs?$AAt?$AA?$AA@ 004b2630     dxerr8:dxerr8.obj
 0002:00022658       ??_C@_1BO@GIEGMMCF@?$AAI?$AAn?$AAv?$AAa?$AAl?$AAi?$AAd?$AA?5?$AAt?$AAa?$AAr?$AAg?$AAe?$AAt?$AA?$AA@ 004b2658     dxerr8:dxerr8.obj
 0002:00022678       ??_C@_1BE@GLAMIBKP@?$AAC?$AAo?$AAn?$AAn?$AAe?$AAc?$AAt?$AAe?$AAd?$AA?$AA@ 004b2678     dxerr8:dxerr8.obj
 0002:0002268c       ??_C@_1BM@BLCEGKEA@?$AAN?$AAo?$AAt?$AA?5?$AAc?$AAo?$AAn?$AAn?$AAe?$AAc?$AAt?$AAe?$AAd?$AA?$AA@ 004b268c     dxerr8:dxerr8.obj
 0002:000226a8       ??_C@_1CC@OBNICBPP@?$AAC?$AAo?$AAn?$AAn?$AAe?$AAc?$AAt?$AA?5?$AAa?$AAb?$AAo?$AAr?$AAt?$AAi?$AAn?$AAg?$AA?$AA@ 004b26a8     dxerr8:dxerr8.obj
 0002:000226cc       ??_C@_1CA@LHINCELJ@?$AAN?$AAo?$AAt?$AA?5?$AAi?$AAn?$AAi?$AAt?$AAi?$AAa?$AAl?$AAi?$AAz?$AAe?$AAd?$AA?$AA@ 004b26cc     dxerr8:dxerr8.obj
 0002:000226ec       ??_C@_1BK@BCDPAKDC@?$AAS?$AAe?$AAs?$AAs?$AAi?$AAo?$AAn?$AA?5?$AAl?$AAo?$AAs?$AAt?$AA?$AA@ 004b26ec     dxerr8:dxerr8.obj
 0002:00022708       ??_C@_1CC@IOLGMKOG@?$AAN?$AAo?$AA?5?$AAv?$AAo?$AAi?$AAc?$AAe?$AA?5?$AAs?$AAe?$AAs?$AAs?$AAi?$AAo?$AAn?$AA?$AA@ 004b2708     dxerr8:dxerr8.obj
 0002:0002272c       ??_C@_1CA@MKKJHDGK@?$AAC?$AAo?$AAn?$AAn?$AAe?$AAc?$AAt?$AAi?$AAo?$AAn?$AA?5?$AAl?$AAo?$AAs?$AAt?$AA?$AA@ 004b272c     dxerr8:dxerr8.obj
 0002:0002274c       ??_C@_1BE@BOIBNEDH@?$AAE?$AAx?$AAc?$AAe?$AAp?$AAt?$AAi?$AAo?$AAn?$AA?$AA@ 004b274c     dxerr8:dxerr8.obj
 0002:00022760       ??_C@_1KE@PEBGMELI@?$AAT?$AAh?$AAe?$AA?5?$AAa?$AAp?$AAp?$AAl?$AAi?$AAc?$AAa?$AAt?$AAi?$AAo?$AAn?$AA?5?$AAw?$AAa?$AAs?$AA?5@ 004b2760     dxerr8:dxerr8.obj
 0002:00022808       ??_C@_1JG@FDOEAIHN@?$AAT?$AAh?$AAe?$AA?5?$AAs?$AAp?$AAe?$AAc?$AAi?$AAf?$AAi?$AAe?$AAd?$AA?5?$AAp?$AAr?$AAo?$AAp?$AAe?$AAr@ 004b2808     dxerr8:dxerr8.obj
 0002:000228a0       ??_C@_1FK@KPELOGFP@?$AAT?$AAh?$AAe?$AA?5?$AAS?$AAp?$AAe?$AAc?$AAi?$AAf?$AAi?$AAe?$AAd?$AA?5?$AAp?$AAr?$AAo?$AAp?$AAe?$AAr@ 004b28a0     dxerr8:dxerr8.obj
 0002:00022900       ??_C@_1EG@NIJBABJA@?$AAT?$AAh?$AAi?$AAs?$AA?5?$AAo?$AAb?$AAj?$AAe?$AAc?$AAt?$AA?5?$AAi?$AAs?$AA?5?$AAa?$AAl?$AAr?$AAe?$AAa@ 004b2900     dxerr8:dxerr8.obj
 0002:00022948       ??_C@_1HC@IJFNKDE@?$AAT?$AAh?$AAe?$AA?5?$AAa?$AAp?$AAp?$AAl?$AAi?$AAc?$AAa?$AAt?$AAi?$AAo?$AAn?$AA?5?$AAr?$AAe?$AAq?$AAu@ 004b2948     dxerr8:dxerr8.obj
 0002:000229c0       ??_C@_1HE@PEIJLNKE@?$AAA?$AAn?$AA?5?$AAi?$AAn?$AAv?$AAa?$AAl?$AAi?$AAd?$AA?5?$AAp?$AAa?$AAr?$AAa?$AAm?$AAe?$AAt?$AAe?$AAr@ 004b29c0     dxerr8:dxerr8.obj
 0002:00022a38       ??_C@_1OK@JMBPHENL@?$AAT?$AAh?$AAe?$AA?5?$AAo?$AAb?$AAj?$AAe?$AAc?$AAt?$AA?5?$AAc?$AAo?$AAu?$AAl?$AAd?$AA?5?$AAn?$AAo?$AAt@ 004b2a38     dxerr8:dxerr8.obj
 0002:00022b28       ??_C@_1IA@JNDNNLEG@?$AAT?$AAh?$AAe?$AA?5?$AAo?$AAp?$AAe?$AAr?$AAa?$AAt?$AAi?$AAo?$AAn?$AA?5?$AAc?$AAa?$AAn?$AAn?$AAo?$AAt@ 004b2b28     dxerr8:dxerr8.obj
 0002:00022ba8       ??_C@_1BO@FCGMKODF@?$AAN?$AAo?$AA?5?$AAm?$AAo?$AAr?$AAe?$AA?5?$AAi?$AAt?$AAe?$AAm?$AAs?$AA?4?$AA?$AA@ 004b2ba8     dxerr8:dxerr8.obj
 0002:00022bc8       ??_C@_1HK@LCMFCILM@?$AAA?$AAc?$AAc?$AAe?$AAs?$AAs?$AA?5?$AAt?$AAo?$AA?5?$AAt?$AAh?$AAe?$AA?5?$AAd?$AAe?$AAv?$AAi?$AAc?$AAe@ 004b2bc8     dxerr8:dxerr8.obj
 0002:00022c44       ??_C@_1CC@CFPCOIAL@?$AAA?$AAc?$AAc?$AAe?$AAs?$AAs?$AA?5?$AAi?$AAs?$AA?5?$AAd?$AAe?$AAn?$AAi?$AAe?$AAd?$AA?$AA@ 004b2c44     dxerr8:dxerr8.obj
 0002:00022c68       ??_C@_1IC@ECBPCNEI@?$AAT?$AAh?$AAe?$AA?5?$AAo?$AAp?$AAe?$AAr?$AAa?$AAt?$AAi?$AAo?$AAn?$AA?5?$AAc?$AAa?$AAn?$AAn?$AAo?$AAt@ 004b2c68     dxerr8:dxerr8.obj
 0002:00022cec       ??_C@_1CE@CIJNBNGJ@?$AAR?$AAa?$AAn?$AA?5?$AAo?$AAu?$AAt?$AA?5?$AAo?$AAf?$AA?5?$AAm?$AAe?$AAm?$AAo?$AAr?$AAy?$AA?$AA@ 004b2cec     dxerr8:dxerr8.obj
 0002:00022d10       ??_C@_1EK@ELMOJMCA@?$AAT?$AAh?$AAi?$AAs?$AA?5?$AAo?$AAb?$AAj?$AAe?$AAc?$AAt?$AA?5?$AAh?$AAa?$AAs?$AA?5?$AAn?$AAo?$AAt?$AA?5@ 004b2d10     dxerr8:dxerr8.obj
 0002:00022d60       ??_C@_1EK@MBDDMKME@?$AAT?$AAh?$AAe?$AA?5?$AAr?$AAe?$AAq?$AAu?$AAe?$AAs?$AAt?$AAe?$AAd?$AA?5?$AAo?$AAb?$AAj?$AAe?$AAc?$AAt@ 004b2d60     dxerr8:dxerr8.obj
 0002:00022dac       ??_C@_1DC@GNNHKOMM@?$AAD?$AAe?$AAv?$AAi?$AAc?$AAe?$AA?5?$AAi?$AAn?$AAs?$AAt?$AAa?$AAl?$AAl?$AAe?$AAr?$AA?5?$AAe?$AAr?$AAr@ 004b2dac     dxerr8:dxerr8.obj
 0002:00022de0       ??_C@_1KA@KDPOBMMJ@?$AAR?$AAe?$AAg?$AAi?$AAs?$AAt?$AAr?$AAy?$AA?5?$AAe?$AAn?$AAt?$AAr?$AAy?$AA?5?$AAo?$AAr?$AA?5?$AAD?$AAL@ 004b2de0     dxerr8:dxerr8.obj
 0002:00022e80       ??_C@_1FE@OIPGLLED@?$AAT?$AAh?$AAe?$AA?5?$AAu?$AAs?$AAe?$AAr?$AA?5?$AAc?$AAa?$AAn?$AAc?$AAe?$AAl?$AAl?$AAe?$AAd?$AA?5?$AAt@ 004b2e80     dxerr8:dxerr8.obj
 0002:00022ed8       ??_C@_1KK@FMCNPPGL@?$AAT?$AAh?$AAe?$AA?5?$AAI?$AAN?$AAF?$AA?5?$AAf?$AAi?$AAl?$AAe?$AA?5?$AAf?$AAo?$AAr?$AA?5?$AAt?$AAh?$AAe@ 004b2ed8     dxerr8:dxerr8.obj
 0002:00022f84       ??_C@_1DK@NIGCACOE@?$AAA?$AA?5?$AAr?$AAe?$AAg?$AAi?$AAs?$AAt?$AAr?$AAy?$AA?5?$AAe?$AAn?$AAt?$AAr?$AAy?$AA?5?$AAi?$AAs?$AA?5@ 004b2f84     dxerr8:dxerr8.obj
 0002:00022fc0       ??_C@_1BHC@KDDIALJO@?$AAD?$AAe?$AAv?$AAi?$AAc?$AAe?$AA?5?$AAd?$AAr?$AAi?$AAv?$AAe?$AAr?$AA?9?$AAs?$AAp?$AAe?$AAc?$AAi?$AAf@ 004b2fc0     dxerr8:dxerr8.obj
 0002:00023138       ??_C@_1GI@OEDEOPAF@?$AAA?$AAn?$AA?5?$AAo?$AAp?$AAe?$AAr?$AAa?$AAt?$AAi?$AAo?$AAn?$AA?5?$AAf?$AAa?$AAi?$AAl?$AAe?$AAd?$AA?5@ 004b3138     dxerr8:dxerr8.obj
 0002:000231a0       ??_C@_1BBE@MDJDPABB@?$AAI?$AAP?$AAi?$AAn?$AAF?$AAl?$AAo?$AAw?$AAC?$AAo?$AAn?$AAt?$AAr?$AAo?$AAl?$AA?3?$AA?3?$AAB?$AAl?$AAo@ 004b31a0     dxerr8:dxerr8.obj
 0002:000232b8       ??_C@_1NG@HODMLPIK@?$AAT?$AAh?$AAi?$AAs?$AA?5?$AAt?$AAh?$AAr?$AAe?$AAa?$AAd?$AA?5?$AAh?$AAa?$AAs?$AA?5?$AAa?$AAl?$AAr?$AAe@ 004b32b8     dxerr8:dxerr8.obj
 0002:00023390       ??_C@_1FE@GJPNGOIH@?$AAT?$AAh?$AAe?$AAr?$AAe?$AA?5?$AAi?$AAs?$AA?5?$AAc?$AAu?$AAr?$AAr?$AAe?$AAn?$AAt?$AAl?$AAy?$AA?5?$AAn@ 004b3390     dxerr8:dxerr8.obj
 0002:000233e8       ??_C@_1GO@OKJACMFJ@?$AAT?$AAh?$AAe?$AA?5?$AAs?$AAp?$AAe?$AAc?$AAi?$AAf?$AAi?$AAe?$AAd?$AA?5?$AAp?$AAa?$AAt?$AAh?$AA?5?$AAd@ 004b33e8     dxerr8:dxerr8.obj
 0002:00023458       ??_C@_1BEK@MGKELGPD@?$AAT?$AAh?$AAe?$AA?5?$AAo?$AAp?$AAe?$AAr?$AAa?$AAt?$AAi?$AAo?$AAn?$AA?5?$AAd?$AAe?$AAp?$AAe?$AAn?$AAd@ 004b3458     dxerr8:dxerr8.obj
 0002:000235a8       ??_C@_1HC@NLBHDCEB@?$AAT?$AAh?$AAe?$AA?5?$AAs?$AAp?$AAe?$AAc?$AAi?$AAf?$AAi?$AAe?$AAd?$AA?5?$AAs?$AAt?$AAr?$AAe?$AAa?$AAm@ 004b35a8     dxerr8:dxerr8.obj
 0002:00023620       ??_C@_1GG@HMHIJFDC@?$AAF?$AAr?$AAa?$AAm?$AAe?$AA?5?$AAs?$AAt?$AAe?$AAp?$AA?5?$AAi?$AAs?$AA?5?$AAn?$AAo?$AAt?$AA?5?$AAs?$AAu@ 004b3620     dxerr8:dxerr8.obj
 0002:00023688       ??_C@_1FE@OLLMDGCK@?$AAT?$AAh?$AAe?$AA?5?$AAc?$AAu?$AAr?$AAr?$AAe?$AAn?$AAt?$AA?5?$AAa?$AAu?$AAd?$AAi?$AAo?$AA?5?$AAi?$AAs@ 004b3688     dxerr8:dxerr8.obj
 0002:000236e0       ??_C@_1FA@FDIMCJJG@?$AAT?$AAh?$AAe?$AA?5?$AAc?$AAu?$AAr?$AAr?$AAe?$AAn?$AAt?$AA?5?$AAp?$AAa?$AAr?$AAe?$AAn?$AAt?$AAa?$AAl@ 004b36e0     dxerr8:dxerr8.obj
 0002:00023730       ??_C@_1JA@LCOAKIIE@?$AAC?$AAu?$AAr?$AAr?$AAe?$AAn?$AAt?$AAl?$AAy?$AA?5?$AAt?$AAh?$AAe?$AAr?$AAe?$AA?5?$AAi?$AAs?$AA?5?$AAn@ 004b3730     dxerr8:dxerr8.obj
 0002:000237c0       ??_C@_1GG@NKFADOOK@?$AAT?$AAh?$AAe?$AA?5?$AAr?$AAe?$AAq?$AAu?$AAe?$AAs?$AAt?$AAe?$AAd?$AA?5?$AAD?$AAV?$AAD?$AA?5?$AAs?$AAt@ 004b37c0     dxerr8:dxerr8.obj
 0002:00023828       ??_C@_1GM@EHJAFDIE@?$AAT?$AAh?$AAe?$AA?5?$AAr?$AAe?$AAg?$AAi?$AAo?$AAn?$AA?5?$AAw?$AAa?$AAs?$AA?5?$AAn?$AAo?$AAt?$AA?5?$AAc@ 004b3828     dxerr8:dxerr8.obj
 0002:00023898       ??_C@_1FC@LPIGDOFI@?$AAT?$AAh?$AAe?$AA?5?$AAs?$AAt?$AAa?$AAt?$AAe?$AA?5?$AAd?$AAa?$AAt?$AAa?$AA?5?$AAi?$AAs?$AA?5?$AAf?$AAr@ 004b3898     dxerr8:dxerr8.obj
 0002:000238ec       ??_C@_1DI@CHONKOGF@?$AAT?$AAh?$AAe?$AA?5?$AAs?$AAt?$AAa?$AAt?$AAe?$AA?5?$AAd?$AAa?$AAt?$AAa?$AA?5?$AAw?$AAa?$AAs?$AA?5?$AAc@ 004b38ec     dxerr8:dxerr8.obj
 0002:00023928       ??_C@_1FO@DLPAGMON@?$AAT?$AAh?$AAe?$AA?5?$AAd?$AAa?$AAt?$AAa?$AA?5?$AAd?$AAi?$AAd?$AA?5?$AAn?$AAo?$AAt?$AA?5?$AAc?$AAo?$AAn@ 004b3928     dxerr8:dxerr8.obj
 0002:00023988       ??_C@_1IA@OGHJLEDB@?$AAT?$AAh?$AAe?$AA?5?$AAs?$AAp?$AAe?$AAc?$AAi?$AAf?$AAi?$AAe?$AAd?$AA?5?$AAc?$AAo?$AAm?$AAm?$AAa?$AAn@ 004b3988     dxerr8:dxerr8.obj
 0002:00023a08       ??_C@_1EE@KKJNEFCE@?$AAT?$AAh?$AAe?$AA?5?$AAs?$AAp?$AAe?$AAc?$AAi?$AAf?$AAi?$AAe?$AAd?$AA?5?$AAm?$AAe?$AAn?$AAu?$AA?5?$AAd@ 004b3a08     dxerr8:dxerr8.obj
 0002:00023a50       ??_C@_1IC@PBLFPCKK@?$AAT?$AAh?$AAe?$AA?5?$AAo?$AAp?$AAe?$AAr?$AAa?$AAt?$AAi?$AAo?$AAn?$AA?5?$AAc?$AAa?$AAn?$AAn?$AAo?$AAt@ 004b3a50     dxerr8:dxerr8.obj
 0002:00023ad8       ??_C@_1HI@KNFAAHEA@?$AAT?$AAh?$AAi?$AAs?$AA?5?$AAo?$AAb?$AAj?$AAe?$AAc?$AAt?$AA?5?$AAc?$AAa?$AAn?$AAn?$AAo?$AAt?$AA?5?$AAb@ 004b3ad8     dxerr8:dxerr8.obj
 0002:00023b50       ??_C@_1NK@OBGNAILH@?$AAC?$AAo?$AAp?$AAy?$AA?5?$AAp?$AAr?$AAo?$AAt?$AAe?$AAc?$AAt?$AAi?$AAo?$AAn?$AA?5?$AAc?$AAa?$AAn?$AAn@ 004b3b50     dxerr8:dxerr8.obj
 0002:00023c30       ??_C@_1KO@KEEJFDFO@?$AAV?$AAe?$AAr?$AAs?$AAi?$AAo?$AAn?$AA?5?$AAn?$AAu?$AAm?$AAb?$AAe?$AAr?$AA?5?$AAo?$AAf?$AA?5?$AAD?$AAi@ 004b3c30     dxerr8:dxerr8.obj
 0002:00023ce0       ??_C@_1JE@NAFBEIIJ@?$AAD?$AAV?$AAD?$AA?9?$AAV?$AAi?$AAd?$AAe?$AAo?$AA?5?$AAp?$AAl?$AAa?$AAy?$AAb?$AAa?$AAc?$AAk?$AA?5?$AAg@ 004b3ce0     dxerr8:dxerr8.obj
 0002:00023d78       ??_C@_1FE@HOAAACCI@?$AAD?$AAV?$AAD?$AA?9?$AAV?$AAi?$AAd?$AAe?$AAo?$AA?5?$AAp?$AAl?$AAa?$AAy?$AAb?$AAa?$AAc?$AAk?$AA?5?$AAg@ 004b3d78     dxerr8:dxerr8.obj
 0002:00023dd0       ??_C@_1GC@NMBJNKKN@?$AAD?$AAV?$AAD?$AA?9?$AAV?$AAi?$AAd?$AAe?$AAo?$AA?5?$AAp?$AAl?$AAa?$AAy?$AAb?$AAa?$AAc?$AAk?$AA?5?$AAg@ 004b3dd0     dxerr8:dxerr8.obj
 0002:00023e38       ??_C@_1BAA@CJGBKDB@?$AAT?$AAh?$AAe?$AA?5?$AAs?$AAp?$AAe?$AAc?$AAi?$AAf?$AAi?$AAe?$AAd?$AA?5?$AAb?$AAu?$AAt?$AAt?$AAo?$AAn@ 004b3e38     dxerr8:dxerr8.obj
 0002:00023f38       ??_C@_1GO@NGGKLHHP@?$AAT?$AAh?$AAi?$AAs?$AA?5?$AAO?$AAp?$AAe?$AAr?$AAa?$AAt?$AAi?$AAo?$AAn?$AA?5?$AAi?$AAs?$AA?5?$AAn?$AAo@ 004b3f38     dxerr8:dxerr8.obj
 0002:00023fa8       ??_C@_1HM@KNCPHMAM@?$AAT?$AAh?$AAi?$AAs?$AA?5?$AAU?$AAs?$AAe?$AAr?$AA?5?$AAO?$AAp?$AAe?$AAr?$AAa?$AAt?$AAi?$AAo?$AAn?$AA?5@ 004b3fa8     dxerr8:dxerr8.obj
 0002:00024028       ??_C@_1IK@MMNIOIFC@?$AAN?$AAo?$AA?5?$AAC?$AAa?$AAp?$AAt?$AAu?$AAr?$AAe?$AA?5?$AAh?$AAa?$AAr?$AAd?$AAw?$AAa?$AAr?$AAe?$AA?5@ 004b4028     dxerr8:dxerr8.obj
 0002:000240b8       ??_C@_1IO@KBAOODK@?$AAN?$AAo?$AA?5?$AAV?$AAi?$AAd?$AAe?$AAo?$AAP?$AAo?$AAr?$AAt?$AA?5?$AAh?$AAa?$AAr?$AAd?$AAw?$AAa?$AAr@ 004b40b8     dxerr8:dxerr8.obj
 0002:00024148       ??_C@_1BBC@HMNHHHMB@?$AAE?$AAi?$AAt?$AAh?$AAe?$AAr?$AA?5?$AAD?$AAi?$AAr?$AAe?$AAc?$AAt?$AAD?$AAr?$AAa?$AAw?$AA?5?$AAh?$AAa@ 004b4148     dxerr8:dxerr8.obj
 0002:00024260       ??_C@_1HC@DCFMMNHN@?$AAT?$AAh?$AAe?$AA?5?$AAV?$AAi?$AAd?$AAe?$AAo?$AAP?$AAo?$AAr?$AAt?$AA?5?$AAc?$AAo?$AAn?$AAn?$AAe?$AAc@ 004b4260     dxerr8:dxerr8.obj
 0002:000242d8       ??_C@_1OE@BJFLGMGG@?$AAT?$AAh?$AAe?$AAr?$AAe?$AA?5?$AAi?$AAs?$AA?5?$AAn?$AAo?$AAt?$AA?5?$AAe?$AAn?$AAo?$AAu?$AAg?$AAh?$AA?5@ 004b42d8     dxerr8:dxerr8.obj
 0002:000243c0       ??_C@_1JM@IGHLFLJM@?$AAT?$AAh?$AAe?$AA?5?$AAV?$AAi?$AAd?$AAe?$AAo?$AA?5?$AAC?$AAD?$AA?5?$AAc?$AAa?$AAn?$AA?8?$AAt?$AA?5?$AAb@ 004b43c0     dxerr8:dxerr8.obj
 0002:00024460       ??_C@_1HM@HKIPPOCI@?$AAP?$AAi?$AAn?$AAs?$AA?5?$AAc?$AAa?$AAn?$AAn?$AAo?$AAt?$AA?5?$AAc?$AAo?$AAn?$AAn?$AAe?$AAc?$AAt?$AA?5@ 004b4460     dxerr8:dxerr8.obj
 0002:000244e0       ??_C@_1HC@LCMLOJFI@?$AAC?$AAa?$AAn?$AAn?$AAo?$AAt?$AA?5?$AAp?$AAl?$AAa?$AAy?$AA?5?$AAb?$AAa?$AAc?$AAk?$AA?5?$AAt?$AAh?$AAe@ 004b44e0     dxerr8:dxerr8.obj
 0002:00024554       ??_C@_1DO@FHOACGPM@?$AAT?$AAh?$AAe?$AA?5?$AAb?$AAu?$AAf?$AAf?$AAe?$AAr?$AA?5?$AAi?$AAs?$AA?5?$AAn?$AAo?$AAt?$AA?5?$AAf?$AAu@ 004b4554     dxerr8:dxerr8.obj
 0002:00024598       ??_C@_1LM@LPICOJJL@?$AAT?$AAh?$AAe?$AA?5?$AAc?$AAo?$AAn?$AAn?$AAe?$AAc?$AAt?$AAi?$AAo?$AAn?$AA?5?$AAc?$AAa?$AAn?$AAn?$AAo@ 004b4598     dxerr8:dxerr8.obj
 0002:00024658       ??_C@_1NC@CGDEKNCD@?$AAC?$AAa?$AAn?$AAn?$AAo?$AAt?$AA?5?$AAg?$AAe?$AAt?$AA?5?$AAo?$AAr?$AA?5?$AAs?$AAe?$AAt?$AA?5?$AAt?$AAi@ 004b4658     dxerr8:dxerr8.obj
 0002:00024730       ??_C@_1KI@OAMCMCG@?$AAC?$AAa?$AAn?$AAn?$AAo?$AAt?$AA?5?$AAp?$AAe?$AAr?$AAf?$AAo?$AAr?$AAm?$AA?5?$AAt?$AAh?$AAe?$AA?5?$AAr@ 004b4730     dxerr8:dxerr8.obj
 0002:000247d8       ??_C@_1LK@LAAMKLAP@?$AAA?$AAc?$AAt?$AAi?$AAv?$AAe?$AAM?$AAo?$AAv?$AAi?$AAe?$AA?5?$AAc?$AAa?$AAn?$AAn?$AAo?$AAt?$AA?5?$AAp@ 004b47d8     dxerr8:dxerr8.obj
 0002:00024898       ??_C@_1IM@DPCIBCFF@?$AAC?$AAa?$AAn?$AAn?$AAo?$AAt?$AA?5?$AAp?$AAl?$AAa?$AAy?$AA?5?$AAb?$AAa?$AAc?$AAk?$AA?5?$AAt?$AAh?$AAe@ 004b4898     dxerr8:dxerr8.obj
 0002:00024928       ??_C@_1IM@MBLFFOPM@?$AAC?$AAa?$AAn?$AAn?$AAo?$AAt?$AA?5?$AAp?$AAl?$AAa?$AAy?$AA?5?$AAb?$AAa?$AAc?$AAk?$AA?5?$AAt?$AAh?$AAe@ 004b4928     dxerr8:dxerr8.obj
 0002:000249b8       ??_C@_1GO@GNDOELAK@?$AAA?$AAc?$AAt?$AAi?$AAv?$AAe?$AAM?$AAo?$AAv?$AAi?$AAe?$AA?5?$AAc?$AAa?$AAn?$AAn?$AAo?$AAt?$AA?5?$AAp@ 004b49b8     dxerr8:dxerr8.obj
 0002:00024a28       ??_C@_1MM@IMEDEKOH@?$AAC?$AAa?$AAn?$AAn?$AAo?$AAt?$AA?5?$AAp?$AAl?$AAa?$AAy?$AA?5?$AAb?$AAa?$AAc?$AAk?$AA?5?$AAt?$AAh?$AAe@ 004b4a28     dxerr8:dxerr8.obj
 0002:00024af8       ??_C@_1HC@BDFCBEPL@?$AAC?$AAa?$AAn?$AAn?$AAo?$AAt?$AA?5?$AAc?$AAh?$AAa?$AAn?$AAg?$AAe?$AA?5?$AAb?$AAa?$AAl?$AAa?$AAn?$AAc@ 004b4af8     dxerr8:dxerr8.obj
 0002:00024b70       ??_C@_1FA@OICEICHK@?$AAN?$AAo?$AA?5?$AAm?$AAe?$AAd?$AAi?$AAa?$AA?5?$AAt?$AAi?$AAm?$AAe?$AA?5?$AAf?$AAo?$AAr?$AAm?$AAa?$AAt@ 004b4b70     dxerr8:dxerr8.obj
 0002:00024bc0       ??_C@_1GE@CFMIECB@?$AAN?$AAo?$AA?5?$AAm?$AAe?$AAd?$AAi?$AAa?$AA?5?$AAt?$AAi?$AAm?$AAe?$AA?5?$AAs?$AAt?$AAa?$AAm?$AAp?$AA?5@ 004b4bc0     dxerr8:dxerr8.obj
 0002:00024c28       ??_C@_1FI@JIEHAACP@?$AAN?$AAo?$AA?5?$AAt?$AAi?$AAm?$AAe?$AA?5?$AAs?$AAt?$AAa?$AAm?$AAp?$AA?5?$AAh?$AAa?$AAs?$AA?5?$AAb?$AAe@ 004b4c28     dxerr8:dxerr8.obj
 0002:00024c80       ??_C@_1HC@JOBMNEDN@?$AAT?$AAh?$AAi?$AAs?$AA?5?$AAf?$AAi?$AAl?$AAe?$AA?5?$AAi?$AAs?$AA?5?$AAc?$AAo?$AAr?$AAr?$AAu?$AAp?$AAt@ 004b4c80     dxerr8:dxerr8.obj
 0002:00024cf8       ??_C@_1HO@ICGIAJDA@?$AAT?$AAh?$AAi?$AAs?$AA?5?$AAf?$AAi?$AAl?$AAe?$AA?5?$AAi?$AAs?$AA?5?$AAc?$AAo?$AAr?$AAr?$AAu?$AAp?$AAt@ 004b4cf8     dxerr8:dxerr8.obj
 0002:00024d78       ??_C@_1FG@BABNHNGJ@?$AAT?$AAh?$AAe?$AA?5?$AAv?$AAe?$AAr?$AAs?$AAi?$AAo?$AAn?$AA?5?$AAn?$AAu?$AAm?$AAb?$AAe?$AAr?$AA?5?$AAo@ 004b4d78     dxerr8:dxerr8.obj
 0002:00024dd0       ??_C@_1EE@OOPOKJHM@?$AAA?$AA?5?$AAf?$AAi?$AAl?$AAe?$AA?5?$AAa?$AAp?$AAp?$AAe?$AAa?$AAr?$AAe?$AAd?$AA?5?$AAt?$AAo?$AA?5?$AAb@ 004b4dd0     dxerr8:dxerr8.obj
 0002:00024e18       ??_C@_1GK@FOLILOCO@?$AAT?$AAh?$AAe?$AA?5?$AAs?$AAo?$AAu?$AAr?$AAc?$AAe?$AA?5?$AAf?$AAi?$AAl?$AAt?$AAe?$AAr?$AA?5?$AAf?$AAo@ 004b4e18     dxerr8:dxerr8.obj
 0002:00024e88       ??_C@_1FO@PDINEDJP@?$AAT?$AAh?$AAe?$AA?5?$AAm?$AAe?$AAd?$AAi?$AAa?$AA?5?$AAt?$AAy?$AAp?$AAe?$AA?5?$AAo?$AAf?$AA?5?$AAt?$AAh@ 004b4e88     dxerr8:dxerr8.obj
 0002:00024ee8       ??_C@_1HI@JPHGKJNP@?$AAC?$AAa?$AAn?$AAn?$AAo?$AAt?$AA?5?$AAc?$AAa?$AAl?$AAl?$AA?5?$AAI?$AAV?$AAi?$AAd?$AAe?$AAo?$AAW?$AAi@ 004b4ee8     dxerr8:dxerr8.obj
 0002:00024f60       ??_C@_1EK@EHJEFBFE@?$AAA?$AA?5?$AAf?$AAu?$AAl?$AAl?$AA?9?$AAs?$AAc?$AAr?$AAe?$AAe?$AAn?$AA?5?$AAm?$AAo?$AAd?$AAe?$AA?5?$AAi@ 004b4f60     dxerr8:dxerr8.obj
 0002:00024fb0       ??_C@_1II@CHNGCCKG@?$AAT?$AAh?$AAi?$AAs?$AA?5?$AAA?$AAd?$AAv?$AAi?$AAs?$AAe?$AA?5?$AAc?$AAa?$AAn?$AAn?$AAo?$AAt?$AA?5?$AAb@ 004b4fb0     dxerr8:dxerr8.obj
 0002:00025038       ??_C@_1EI@PKAICKCM@?$AAN?$AAo?$AA?5?$AAf?$AAu?$AAl?$AAl?$AA?9?$AAs?$AAc?$AAr?$AAe?$AAe?$AAn?$AA?5?$AAm?$AAo?$AAd?$AAe?$AAs@ 004b5038     dxerr8:dxerr8.obj
 0002:00025080       ??_C@_1EO@NJJFKAIL@?$AAA?$AAn?$AA?5?$AAo?$AAv?$AAe?$AAr?$AAl?$AAa?$AAy?$AA?5?$AAa?$AAd?$AAv?$AAi?$AAs?$AAe?$AA?5?$AAl?$AAi@ 004b5080     dxerr8:dxerr8.obj
 0002:000250d0       ??_C@_1FM@MAHJALHC@?$AAC?$AAa?$AAn?$AAn?$AAo?$AAt?$AA?5?$AAr?$AAe?$AAn?$AAd?$AAe?$AAr?$AA?5?$AAt?$AAh?$AAe?$AA?5?$AAf?$AAi@ 004b50d0     dxerr8:dxerr8.obj
 0002:00025130       ??_C@_1FM@KIMHEHCA@?$AAT?$AAh?$AAe?$AA?5?$AAq?$AAu?$AAe?$AAu?$AAe?$AAd?$AA?5?$AAc?$AAo?$AAm?$AAm?$AAa?$AAn?$AAd?$AA?5?$AAh@ 004b5130     dxerr8:dxerr8.obj
 0002:00025190       ??_C@_1HO@HEPDMCCH@?$AAA?$AAn?$AA?5?$AAa?$AAt?$AAt?$AAe?$AAm?$AAp?$AAt?$AA?5?$AAw?$AAa?$AAs?$AA?5?$AAm?$AAa?$AAd?$AAe?$AA?5@ 004b5190     dxerr8:dxerr8.obj
 0002:00025210       ??_C@_1EO@PDIEJDM@?$AAU?$AAp?$AAd?$AAa?$AAt?$AAe?$AAs?$AA?5?$AAa?$AAr?$AAe?$AA?5?$AAn?$AAo?$AAt?$AA?5?$AAa?$AAl?$AAl?$AAo@ 004b5210     dxerr8:dxerr8.obj
 0002:00025260       ??_C@_1DM@HKOMMBGC@?$AAT?$AAh?$AAe?$AA?5?$AAf?$AAi?$AAl?$AAt?$AAe?$AAr?$AA?5?$AAg?$AAr?$AAa?$AAp?$AAh?$AA?5?$AAi?$AAs?$AA?5@ 004b5260     dxerr8:dxerr8.obj
 0002:000252a0       ??_C@_1EK@MHOKPFOP@?$AAT?$AAh?$AAe?$AA?5?$AAl?$AAi?$AAs?$AAt?$AA?5?$AAh?$AAa?$AAs?$AA?5?$AAa?$AAl?$AAr?$AAe?$AAa?$AAd?$AAy@ 004b52a0     dxerr8:dxerr8.obj
 0002:000252ec       ??_C@_1DI@KBIGFHPC@?$AAT?$AAh?$AAe?$AA?5?$AAf?$AAi?$AAl?$AAe?$AA?5?$AAf?$AAo?$AAr?$AAm?$AAa?$AAt?$AA?5?$AAi?$AAs?$AA?5?$AAi@ 004b52ec     dxerr8:dxerr8.obj
 0002:00025324       ??_C@_1DA@DKCJBJO@?$AAA?$AA?5?$AAt?$AAi?$AAm?$AAe?$AA?9?$AAo?$AAu?$AAt?$AA?5?$AAh?$AAa?$AAs?$AA?5?$AAe?$AAx?$AAp?$AAi?$AAr@ 004b5324     dxerr8:dxerr8.obj
 0002:00025358       ??_C@_1HC@OCCMCPLP@?$AAA?$AAn?$AA?5?$AAa?$AAt?$AAt?$AAe?$AAm?$AAp?$AAt?$AA?5?$AAt?$AAo?$AA?5?$AAa?$AAd?$AAd?$AA?5?$AAa?$AA?5@ 004b5358     dxerr8:dxerr8.obj
 0002:000253d0       ??_C@_1JO@EJPPKEBF@?$AAT?$AAh?$AAi?$AAs?$AA?5?$AAs?$AAa?$AAm?$AAp?$AAl?$AAe?$AA?5?$AAc?$AAa?$AAn?$AAn?$AAo?$AAt?$AA?5?$AAb@ 004b53d0     dxerr8:dxerr8.obj
 0002:00025470       ??_C@_1EA@GKFFMOFF@?$AAT?$AAh?$AAi?$AAs?$AA?5?$AAs?$AAa?$AAm?$AAp?$AAl?$AAe?$AA?5?$AAc?$AAa?$AAn?$AAn?$AAo?$AAt?$AA?5?$AAb@ 004b5470     dxerr8:dxerr8.obj
 0002:000254b0       ??_C@_1FK@OAKOMHGD@?$AAT?$AAh?$AAi?$AAs?$AA?5?$AAp?$AAi?$AAn?$AA?5?$AAc?$AAa?$AAn?$AAn?$AAo?$AAt?$AA?5?$AAu?$AAs?$AAe?$AA?5@ 004b54b0     dxerr8:dxerr8.obj
 0002:00025510       ??_C@_1EG@KMEKNDOD@?$AAT?$AAh?$AAe?$AA?5?$AAs?$AAu?$AAp?$AAp?$AAl?$AAi?$AAe?$AAd?$AA?5?$AAr?$AAe?$AAc?$AAt?$AAa?$AAn?$AAg@ 004b5510     dxerr8:dxerr8.obj
 0002:00025558       ??_C@_1GI@MECFEHCL@?$AAT?$AAh?$AAe?$AA?5?$AAs?$AAa?$AAm?$AAp?$AAl?$AAe?$AA?5?$AAs?$AAt?$AAa?$AAr?$AAt?$AA?5?$AAt?$AAi?$AAm@ 004b5558     dxerr8:dxerr8.obj
 0002:000255c0       ??_C@_1JO@EAHKBNAI@?$AAT?$AAh?$AAe?$AA?5?$AAo?$AAp?$AAe?$AAr?$AAa?$AAt?$AAi?$AAo?$AAn?$AA?5?$AAc?$AAo?$AAu?$AAl?$AAd?$AA?5@ 004b55c0     dxerr8:dxerr8.obj
 0002:00025660       ??_C@_1JA@FCOIGPJH@?$AAT?$AAh?$AAe?$AA?5?$AAo?$AAp?$AAe?$AAr?$AAa?$AAt?$AAi?$AAo?$AAn?$AA?5?$AAc?$AAo?$AAu?$AAl?$AAd?$AA?5@ 004b5660     dxerr8:dxerr8.obj
 0002:000256f0       ??_C@_1IO@KEINIFJJ@?$AAT?$AAh?$AAe?$AA?5?$AAo?$AAp?$AAe?$AAr?$AAa?$AAt?$AAi?$AAo?$AAn?$AA?5?$AAc?$AAo?$AAu?$AAl?$AAd?$AA?5@ 004b56f0     dxerr8:dxerr8.obj
 0002:00025780       ??_C@_1JA@GLLBFDKJ@?$AAT?$AAh?$AAe?$AA?5?$AAo?$AAp?$AAe?$AAr?$AAa?$AAt?$AAi?$AAo?$AAn?$AA?5?$AAc?$AAo?$AAu?$AAl?$AAd?$AA?5@ 004b5780     dxerr8:dxerr8.obj
 0002:00025810       ??_C@_1GO@JGCMOHAI@?$AAT?$AAh?$AAe?$AA?5?$AAs?$AAt?$AAa?$AAt?$AAe?$AA?5?$AAc?$AAh?$AAa?$AAn?$AAg?$AAe?$AAd?$AA?5?$AAw?$AAh@ 004b5810     dxerr8:dxerr8.obj
 0002:00025880       ??_C@_1GE@NKNDBGGM@?$AAT?$AAo?$AAo?$AA?5?$AAm?$AAa?$AAn?$AAy?$AA?5?$AAc?$AAo?$AAl?$AAo?$AAr?$AAs?$AA?5?$AAf?$AAo?$AAr?$AA?5@ 004b5880     dxerr8:dxerr8.obj
 0002:000258e8       ??_C@_1EA@ONNKHPOH@?$AAD?$AAi?$AAs?$AAp?$AAl?$AAa?$AAy?$AA?5?$AAd?$AAo?$AAe?$AAs?$AA?5?$AAn?$AAo?$AAt?$AA?5?$AAu?$AAs?$AAe@ 004b58e8     dxerr8:dxerr8.obj
 0002:00025928       ??_C@_1DC@IPOALMCN@?$AAN?$AAo?$AA?5?$AAp?$AAa?$AAl?$AAe?$AAt?$AAt?$AAe?$AA?5?$AAi?$AAs?$AA?5?$AAa?$AAv?$AAa?$AAi?$AAl?$AAa@ 004b5928     dxerr8:dxerr8.obj
 0002:00025960       ??_C@_1EI@GJHNFOKD@?$AAN?$AAo?$AA?5?$AAm?$AAa?$AAt?$AAc?$AAh?$AAi?$AAn?$AAg?$AA?5?$AAc?$AAo?$AAl?$AAo?$AAr?$AA?5?$AAk?$AAe@ 004b5960     dxerr8:dxerr8.obj
 0002:000259a8       ??_C@_1IC@NBCDOOIB@?$AAS?$AAe?$AAt?$AAt?$AAi?$AAn?$AAg?$AA?5?$AAa?$AA?5?$AAp?$AAa?$AAl?$AAe?$AAt?$AAt?$AAe?$AA?5?$AAw?$AAo@ 004b59a8     dxerr8:dxerr8.obj
 0002:00025a30       ??_C@_1IC@PPNOELKK@?$AAS?$AAe?$AAt?$AAt?$AAi?$AAn?$AAg?$AA?5?$AAa?$AA?5?$AAc?$AAo?$AAl?$AAo?$AAr?$AA?5?$AAk?$AAe?$AAy?$AA?5@ 004b5a30     dxerr8:dxerr8.obj
 0002:00025ab8       ??_C@_1IA@NOJIBGMP@?$AAC?$AAu?$AAr?$AAr?$AAe?$AAn?$AAt?$AA?5?$AAp?$AAi?$AAn?$AA?5?$AAc?$AAo?$AAn?$AAn?$AAe?$AAc?$AAt?$AAi@ 004b5ab8     dxerr8:dxerr8.obj
 0002:00025b38       ??_C@_1HI@MJHOOBBM@?$AAC?$AAu?$AAr?$AAr?$AAe?$AAn?$AAt?$AA?5?$AAp?$AAi?$AAn?$AA?5?$AAc?$AAo?$AAn?$AAn?$AAe?$AAc?$AAt?$AAi@ 004b5b38     dxerr8:dxerr8.obj
 0002:00025bb0       ??_C@_1DG@OHCNEOOL@?$AAN?$AAo?$AA?5?$AAc?$AAo?$AAl?$AAo?$AAr?$AA?5?$AAk?$AAe?$AAy?$AA?5?$AAh?$AAa?$AAs?$AA?5?$AAb?$AAe?$AAe@ 004b5bb0     dxerr8:dxerr8.obj
 0002:00025be8       ??_C@_1EM@LADNONKF@?$AAC?$AAo?$AAu?$AAl?$AAd?$AA?5?$AAn?$AAo?$AAt?$AA?5?$AAc?$AAh?$AAa?$AAn?$AAg?$AAe?$AA?5?$AAf?$AAo?$AAr@ 004b5be8     dxerr8:dxerr8.obj
 0002:00025c38       ??_C@_1HO@BOMOAHDO@?$AAN?$AAo?$AA?5?$AAc?$AAo?$AAm?$AAb?$AAi?$AAn?$AAa?$AAt?$AAi?$AAo?$AAn?$AA?5?$AAo?$AAf?$AA?5?$AAf?$AAi@ 004b5c38     dxerr8:dxerr8.obj
 0002:00025cb8       ??_C@_1JM@EHBMOJIH@?$AAN?$AAo?$AA?5?$AAc?$AAo?$AAm?$AAb?$AAi?$AAn?$AAa?$AAt?$AAi?$AAo?$AAn?$AA?5?$AAo?$AAf?$AA?5?$AAi?$AAn@ 004b5cb8     dxerr8:dxerr8.obj
 0002:00025d58       ??_C@_1EC@MCKKMDCG@?$AAA?$AAn?$AA?5?$AAo?$AAb?$AAj?$AAe?$AAc?$AAt?$AA?5?$AAo?$AAr?$AA?5?$AAn?$AAa?$AAm?$AAe?$AA?5?$AAw?$AAa@ 004b5d58     dxerr8:dxerr8.obj
 0002:00025da0       ??_C@_1FO@NDJLDADA@?$AAA?$AA?5?$AAr?$AAe?$AAq?$AAu?$AAi?$AAr?$AAe?$AAd?$AA?5?$AAi?$AAn?$AAt?$AAe?$AAr?$AAf?$AAa?$AAc?$AAe@ 004b5da0     dxerr8:dxerr8.obj
 0002:00025e00       ??_C@_1JK@HIFAPMKN@?$AAQ?$AAu?$AAa?$AAl?$AAi?$AAt?$AAy?$AA?5?$AAm?$AAe?$AAs?$AAs?$AAa?$AAg?$AAe?$AAs?$AA?5?$AAc?$AAo?$AAu@ 004b5e00     dxerr8:dxerr8.obj
 0002:00025ea0       ??_C@_1IG@NNIEAMGJ@?$AAC?$AAa?$AAn?$AAn?$AAo?$AAt?$AA?5?$AAl?$AAo?$AAc?$AAk?$AA?5?$AAf?$AAo?$AAr?$AA?5?$AAs?$AAy?$AAn?$AAc@ 004b5ea0     dxerr8:dxerr8.obj
 0002:00025f28       ??_C@_1GK@PMKHMDME@?$AAC?$AAa?$AAn?$AAn?$AAo?$AAt?$AA?5?$AAa?$AAl?$AAl?$AAo?$AAc?$AAa?$AAt?$AAe?$AA?5?$AAm?$AAe?$AAm?$AAo@ 004b5f28     dxerr8:dxerr8.obj
 0002:00025f98       ??_C@_1HG@CFDJMFH@?$AAC?$AAa?$AAn?$AAn?$AAo?$AAt?$AA?5?$AAa?$AAl?$AAl?$AAo?$AAc?$AAa?$AAt?$AAe?$AA?5?$AAa?$AA?5?$AAs?$AAa@ 004b5f98     dxerr8:dxerr8.obj
 0002:00026010       ??_C@_1EM@KFDKIFMH@?$AAO?$AAn?$AAe?$AA?5?$AAo?$AAr?$AA?5?$AAm?$AAo?$AAr?$AAe?$AA?5?$AAb?$AAu?$AAf?$AAf?$AAe?$AAr?$AAs?$AA?5@ 004b6010     dxerr8:dxerr8.obj
 0002:00026060       ??_C@_1HG@FDLPOLHJ@?$AAC?$AAa?$AAn?$AAn?$AAo?$AAt?$AA?5?$AAc?$AAh?$AAa?$AAn?$AAg?$AAe?$AA?5?$AAa?$AAl?$AAl?$AAo?$AAc?$AAa@ 004b6060     dxerr8:dxerr8.obj
 0002:000260d8       ??_C@_1EI@JKJHJFDC@?$AAA?$AAn?$AA?5?$AAi?$AAn?$AAv?$AAa?$AAl?$AAi?$AAd?$AA?5?$AAa?$AAl?$AAi?$AAg?$AAn?$AAm?$AAe?$AAn?$AAt@ 004b60d8     dxerr8:dxerr8.obj
 0002:00026120       ??_C@_1DM@OABAKGNF@?$AAT?$AAh?$AAe?$AA?5?$AAb?$AAu?$AAf?$AAf?$AAe?$AAr?$AA?5?$AAi?$AAs?$AA?5?$AAn?$AAo?$AAt?$AA?5?$AAb?$AAi@ 004b6120     dxerr8:dxerr8.obj
 0002:0002615c       ??_C@_1DK@CEIOCHLF@?$AAN?$AAo?$AA?5?$AAb?$AAu?$AAf?$AAf?$AAe?$AAr?$AA?5?$AAs?$AAp?$AAa?$AAc?$AAe?$AA?5?$AAh?$AAa?$AAs?$AA?5@ 004b615c     dxerr8:dxerr8.obj
 0002:00026198       ??_C@_1PI@EFALDJLH@?$AAA?$AA?5?$AAm?$AAa?$AAp?$AAp?$AAe?$AAr?$AA?5?$AAf?$AAi?$AAl?$AAe?$AA?5?$AAf?$AAu?$AAn?$AAc?$AAt?$AAi@ 004b6198     dxerr8:dxerr8.obj
 0002:00026290       ??_C@_1CGM@HAMHPMDC@?$AAS?$AAe?$AAn?$AAd?$AAD?$AAe?$AAv?$AAi?$AAc?$AAe?$AAD?$AAa?$AAt?$AAa?$AA?5?$AAf?$AAa?$AAi?$AAl?$AAe@ 004b6290     dxerr8:dxerr8.obj
 0002:00026500       ??_C@_1BCG@LMNFKCAF@?$AAT?$AAh?$AAe?$AA?5?$AAo?$AAp?$AAe?$AAr?$AAa?$AAt?$AAi?$AAo?$AAn?$AA?5?$AAc?$AAo?$AAu?$AAl?$AAd?$AA?5@ 004b6500     dxerr8:dxerr8.obj
 0002:00026628       ??_C@_1BMM@LCNNMOFJ@?$AAA?$AAn?$AA?5?$AAa?$AAt?$AAt?$AAe?$AAm?$AAp?$AAt?$AA?5?$AAw?$AAa?$AAs?$AA?5?$AAm?$AAa?$AAd?$AAe?$AA?5@ 004b6628     dxerr8:dxerr8.obj
 0002:000267f8       ??_C@_1PO@PAOINCDB@?$AAA?$AAt?$AAt?$AAe?$AAm?$AAp?$AAt?$AAe?$AAd?$AA?5?$AAt?$AAo?$AA?5?$AAr?$AAe?$AAa?$AAd?$AA?5?$AAb?$AAu@ 004b67f8     dxerr8:dxerr8.obj
 0002:000268f8       ??_C@_1BDM@CAOHKBBK@?$AAT?$AAh?$AAe?$AA?5?$AAd?$AAe?$AAv?$AAi?$AAc?$AAe?$AA?5?$AAc?$AAa?$AAn?$AAn?$AAo?$AAt?$AA?5?$AAb?$AAe@ 004b68f8     dxerr8:dxerr8.obj
 0002:00026a38       ??_C@_1BDI@JLNFPFKK@?$AAT?$AAh?$AAe?$AA?5?$AAo?$AAp?$AAe?$AAr?$AAa?$AAt?$AAi?$AAo?$AAn?$AA?5?$AAc?$AAa?$AAn?$AAn?$AAo?$AAt@ 004b6a38     dxerr8:dxerr8.obj
 0002:00026b70       ??_C@_1BOA@DGKJMONA@?$AAT?$AAh?$AAe?$AA?5?$AAe?$AAf?$AAf?$AAe?$AAc?$AAt?$AA?5?$AAc?$AAo?$AAu?$AAl?$AAd?$AA?5?$AAn?$AAo?$AAt@ 004b6b70     dxerr8:dxerr8.obj
 0002:00026d50       ??_C@_1IG@GHMJNLNN@?$AAT?$AAh?$AAe?$AA?5?$AAe?$AAf?$AAf?$AAe?$AAc?$AAt?$AA?5?$AAi?$AAs?$AA?5?$AAn?$AAo?$AAt?$AA?5?$AAd?$AAo@ 004b6d50     dxerr8:dxerr8.obj
 0002:00026dd8       ??_C@_1EM@FLPMGJJO@?$AAC?$AAo?$AAI?$AAn?$AAi?$AAt?$AAi?$AAa?$AAl?$AAi?$AAz?$AAe?$AA?5?$AAh?$AAa?$AAs?$AA?5?$AAa?$AAl?$AAr@ 004b6dd8     dxerr8:dxerr8.obj
 0002:00026e28       ??_C@_1BFC@JGECONNK@?$AAU?$AAn?$AAa?$AAb?$AAl?$AAe?$AA?5?$AAt?$AAo?$AA?5?$AAI?$AAD?$AAi?$AAr?$AAe?$AAc?$AAt?$AAI?$AAn?$AAp@ 004b6e28     dxerr8:dxerr8.obj
 0002:00026f80       ??_C@_1HM@LDAKCLNB@?$AAT?$AAh?$AAe?$AA?5?$AAd?$AAe?$AAv?$AAi?$AAc?$AAe?$AA?5?$AAi?$AAs?$AA?5?$AAf?$AAu?$AAl?$AAl?$AA?4?$AA?5@ 004b6f80     dxerr8:dxerr8.obj
 0002:00027000       ??_C@_1OE@PJHKBBA@?$AAN?$AAo?$AAt?$AA?5?$AAa?$AAl?$AAl?$AA?5?$AAt?$AAh?$AAe?$AA?5?$AAr?$AAe?$AAq?$AAu?$AAe?$AAs?$AAt?$AAe@ 004b7000     dxerr8:dxerr8.obj
 0002:000270e8       ??_C@_1EE@PGHHGPDJ@?$AAC?$AAo?$AAI?$AAn?$AAi?$AAt?$AAi?$AAa?$AAl?$AAi?$AAz?$AAe?$AA?5?$AAh?$AAa?$AAs?$AA?5?$AAn?$AAo?$AAt@ 004b70e8     dxerr8:dxerr8.obj
 0002:0002712c       ??_C@_1DO@KPDNBDGN@?$AAA?$AAn?$AA?5?$AAu?$AAn?$AAd?$AAe?$AAt?$AAe?$AAr?$AAm?$AAi?$AAn?$AAe?$AAd?$AA?5?$AAe?$AAr?$AAr?$AAo@ 004b712c     dxerr8:dxerr8.obj
 0002:0002716c       ??_C@_1CK@KJIELLHF@?$AAC?$AAa?$AAt?$AAa?$AAs?$AAt?$AAr?$AAo?$AAp?$AAh?$AAi?$AAc?$AA?5?$AAf?$AAa?$AAi?$AAl?$AAu?$AAr?$AAe@ 004b716c     dxerr8:dxerr8.obj
 0002:00027198       ??_C@_1FC@DBBLOKEL@?$AAT?$AAh?$AAi?$AAs?$AA?5?$AAo?$AAb?$AAj?$AAe?$AAc?$AAt?$AA?5?$AAd?$AAo?$AAe?$AAs?$AA?5?$AAn?$AAo?$AAt@ 004b7198     dxerr8:dxerr8.obj
 0002:000271ec       ??_C@_1CK@JMPBMGNM@?$AAC?$AAl?$AAa?$AAs?$AAs?$AA?5?$AAn?$AAo?$AAt?$AA?5?$AAr?$AAe?$AAg?$AAi?$AAs?$AAt?$AAe?$AAr?$AAe?$AAd@ 004b71ec     dxerr8:dxerr8.obj
 0002:00027218       ??_C@_1CE@DFOHHPFH@?$AAO?$AAp?$AAe?$AAr?$AAa?$AAt?$AAi?$AAo?$AAn?$AA?5?$AAa?$AAb?$AAo?$AAr?$AAt?$AAe?$AAd?$AA?$AA@ 004b7218     dxerr8:dxerr8.obj
 0002:00027240       ??_C@_1II@GPPMGIPO@?$AAT?$AAh?$AAe?$AA?5?$AAd?$AAa?$AAt?$AAa?$AA?5?$AAn?$AAe?$AAc?$AAe?$AAs?$AAs?$AAa?$AAr?$AAy?$AA?5?$AAt@ 004b7240     dxerr8:dxerr8.obj
 0002:000272c8       ??_C@_1GE@CHGCMKHI@?$AAT?$AAh?$AAe?$AA?5?$AAf?$AAu?$AAn?$AAc?$AAt?$AAi?$AAo?$AAn?$AA?5?$AAc?$AAa?$AAl?$AAl?$AAe?$AAd?$AA?5@ 004b72c8     dxerr8:dxerr8.obj
 0002:00027330       ??_C@_1FK@CADCCOAI@?$AAT?$AAh?$AAe?$AA?5?$AAr?$AAe?$AAq?$AAu?$AAe?$AAs?$AAt?$AAe?$AAd?$AA?5?$AAC?$AAO?$AAM?$AA?5?$AAi?$AAn@ 004b7330     dxerr8:dxerr8.obj
 0002:0002738c       ??_C@_1CA@FNLJMFJJ@?$AAI?$AAn?$AAv?$AAa?$AAl?$AAi?$AAd?$AA?5?$AAp?$AAo?$AAi?$AAn?$AAt?$AAe?$AAr?$AA?$AA@ 004b738c     dxerr8:dxerr8.obj
 0002:000273ac       ??_C@_1DK@EMALLDKA@?$AAU?$AAn?$AAe?$AAx?$AAp?$AAe?$AAc?$AAt?$AAe?$AAd?$AA?5?$AAe?$AAr?$AAr?$AAo?$AAr?$AA?5?$AAe?$AAn?$AAc@ 004b73ac     dxerr8:dxerr8.obj
 0002:000273e8       ??_C@_1FK@JJFBALGA@?$AAF?$AAi?$AAl?$AAe?$AA?3?$AA?5?$AA?$CF?$AAS?$AA?6?$AAL?$AAi?$AAn?$AAe?$AA?3?$AA?5?$AA?$CF?$AAs?$AA?6?$AAE?$AAr@ 004b73e8     dxerr8:dxerr8.obj
 0002:00027444       ??_C@_13LBAGMAIH@?$AA?6?$AA?$AA@ 004b7444     dxerr8:dxerr8.obj
 0002:00027448       ??_C@_1BC@KKGMBIKF@?$AA?5?$AA?$CI?$AAh?$AAr?$AA?$DN?$AA?$CF?$AAs?$AA?$CJ?$AA?$AA@ 004b7448     dxerr8:dxerr8.obj
 0002:0002745c       ??_C@_1BK@FNABPLOJ@?$AA?$CF?$AAs?$AA?5?$AA?$CI?$AA0?$AAx?$AA?$CF?$AA0?$AA?4?$AA8?$AAx?$AA?$CJ?$AA?$AA@ 004b745c     dxerr8:dxerr8.obj
 0002:00027478       ??_C@_1BC@EAPCJDOG@?$AA?$CF?$AAS?$AA?$CI?$AA?$CF?$AAs?$AA?$CJ?$AA?3?$AA?5?$AA?$AA@ 004b7478     dxerr8:dxerr8.obj
 0002:0002748c       ??_C@_17OADJODNB@?$AA?$CF?$AAl?$AAd?$AA?$AA@ 004b748c     dxerr8:dxerr8.obj
 0002:00027494       ??_C@_0BN@PEIAILMG@Unexpected?5error?5encountered?$AA@ 004b7494     dxerr8:dxerr8.obj
 0002:000274b4       ??_C@_0CN@EDCHMMHF@File?3?5?$CFs?6Line?3?5?$CFs?6Error?5Code?3?5?$CFs@ 004b74b4     dxerr8:dxerr8.obj
 0002:000274e4       ??_C@_01EEMJAFIK@?6?$AA@   004b74e4     dxerr8:dxerr8.obj
 0002:000274e8       ??_C@_08JDILNEIA@?5?$CIhr?$DN?$CFs?$CJ?$AA@ 004b74e8     dxerr8:dxerr8.obj
 0002:000274f4       ??_C@_0N@EKKJGCCF@?$CFs?5?$CI0x?$CF0?48x?$CJ?$AA@ 004b74f4     dxerr8:dxerr8.obj
 0002:00027504       ??_C@_08IHEMGHPP@?$CFs?$CI?$CFs?$CJ?3?5?$AA@ 004b7504     dxerr8:dxerr8.obj
 0002:00027510       ??_C@_03JALODAI@?$CFld?$AA@ 004b7510     dxerr8:dxerr8.obj
 0002:00027514       ??_C@_15IABLJNFO@?$AA?6?$AA?6?$AA?$AA@ 004b7514     LIBCMT:wassert.obj
 0002:0002751c       ??_C@_17LGKOMLJ@?$AA?4?$AA?4?$AA?4?$AA?$AA@ 004b751c     LIBCMT:wassert.obj
 0002:00027528       ??_C@_1EK@MBDPDCGA@?$AAM?$AAi?$AAc?$AAr?$AAo?$AAs?$AAo?$AAf?$AAt?$AA?5?$AAV?$AAi?$AAs?$AAu?$AAa?$AAl?$AA?5?$AAC?$AA?$CL?$AA?$CL?$AA?5?$AAR?$AAu?$AAn?$AAt?$AAi?$AAm?$AAe?$AA?5?$AAL?$AAi?$AAb@ 004b7528     LIBCMT:wassert.obj
 0002:00027578       ??_C@_1HK@POCJMFGK@?$AA?$CI?$AAP?$AAr?$AAe?$AAs?$AAs?$AA?5?$AAR?$AAe?$AAt?$AAr?$AAy?$AA?5?$AAt?$AAo?$AA?5?$AAd?$AAe?$AAb?$AAu?$AAg?$AA?5?$AAt?$AAh?$AAe?$AA?5?$AAa?$AAp?$AAp?$AAl?$AAi?$AAc@ 004b7578     LIBCMT:wassert.obj
 0002:000275f8       ??_C@_1OA@EGMLFBHJ@?$AAF?$AAo?$AAr?$AA?5?$AAi?$AAn?$AAf?$AAo?$AAr?$AAm?$AAa?$AAt?$AAi?$AAo?$AAn?$AA?5?$AAo?$AAn?$AA?5?$AAh?$AAo?$AAw?$AA?5?$AAy?$AAo?$AAu?$AAr?$AA?5?$AAp?$AAr?$AAo?$AAg@ 004b75f8     LIBCMT:wassert.obj
 0002:000276d8       ??_C@_1BK@PEDCIPMA@?$AAE?$AAx?$AAp?$AAr?$AAe?$AAs?$AAs?$AAi?$AAo?$AAn?$AA?3?$AA?5?$AA?$AA@ 004b76d8     LIBCMT:wassert.obj
 0002:000276f4       ??_C@_1O@KCAFKHJE@?$AAL?$AAi?$AAn?$AAe?$AA?3?$AA?5?$AA?$AA@ 004b76f4     LIBCMT:wassert.obj
 0002:00027704       ??_C@_1O@HEMHKNDC@?$AAF?$AAi?$AAl?$AAe?$AA?3?$AA?5?$AA?$AA@ 004b7704     LIBCMT:wassert.obj
 0002:00027714       ??_C@_1CO@EAEJAADC@?$AA?$DM?$AAp?$AAr?$AAo?$AAg?$AAr?$AAa?$AAm?$AA?5?$AAn?$AAa?$AAm?$AAe?$AA?5?$AAu?$AAn?$AAk?$AAn?$AAo?$AAw?$AAn?$AA?$DO?$AA?$AA@ 004b7714     LIBCMT:wassert.obj
 0002:00027744       ??_C@_1BE@PHKBBGE@?$AAP?$AAr?$AAo?$AAg?$AAr?$AAa?$AAm?$AA?3?$AA?5?$AA?$AA@ 004b7744     LIBCMT:wassert.obj
 0002:00027758       ??_C@_1CE@OJBNHDMO@?$AAA?$AAs?$AAs?$AAe?$AAr?$AAt?$AAi?$AAo?$AAn?$AA?5?$AAf?$AAa?$AAi?$AAl?$AAe?$AAd?$AA?$CB?$AA?$AA@ 004b7758     LIBCMT:wassert.obj
 0002:0002777c       ?ProcessDetach@NativeDll@<CrtImplementationDetails>@@0IB 004b777c     LIBCMT:toupper.obj
 0002:00027780       ?ProcessAttach@NativeDll@<CrtImplementationDetails>@@0IB 004b7780     LIBCMT:toupper.obj
 0002:00027784       ?ThreadAttach@NativeDll@<CrtImplementationDetails>@@0IB 004b7784     LIBCMT:toupper.obj
 0002:00027788       ?ThreadDetach@NativeDll@<CrtImplementationDetails>@@0IB 004b7788     LIBCMT:toupper.obj
 0002:0002778c       ?ProcessVerifier@NativeDll@<CrtImplementationDetails>@@0IB 004b778c     LIBCMT:toupper.obj
 0002:00027790       ??_C@_0P@MIGLKIOC@CorExitProcess?$AA@ 004b7790     LIBCMT:crt0dat.obj
 0002:000277a0       ??_C@_1BI@BGOHAHKC@?$AAm?$AAs?$AAc?$AAo?$AAr?$AAe?$AAe?$AA?4?$AAd?$AAl?$AAl?$AA?$AA@ 004b77a0     LIBCMT:crt0dat.obj
 0002:000277c0       ??_C@_1O@CEDCILHN@?$AA?$CI?$AAn?$AAu?$AAl?$AAl?$AA?$CJ?$AA?$AA@ 004b77c0     LIBCMT:output.obj
 0002:000277d0       ??_C@_06OJHGLDPL@?$CInull?$CJ?$AA@ 004b77d0     LIBCMT:output.obj
 0002:000277d8       ___lookuptable             004b77d8     LIBCMT:output.obj
 0002:00027834       ??_C@_0BI@DFKBFLJE@GetProcessWindowStation?$AA@ 004b7834     LIBCMT:crtmboxw.obj
 0002:0002784c       ??_C@_0BK@DEKFELLI@GetUserObjectInformationW?$AA@ 004b784c     LIBCMT:crtmboxw.obj
 0002:00027868       ??_C@_0BD@HHGDFDBJ@GetLastActivePopup?$AA@ 004b7868     LIBCMT:crtmboxw.obj
 0002:0002787c       ??_C@_0BA@HNOPNCHB@GetActiveWindow?$AA@ 004b787c     LIBCMT:crtmboxw.obj
 0002:0002788c       ??_C@_0M@DLDCCGNP@MessageBoxW?$AA@ 004b788c     LIBCMT:crtmboxw.obj
 0002:00027898       ??_C@_1BG@GOEBHBDC@?$AAU?$AAS?$AAE?$AAR?$AA3?$AA2?$AA?4?$AAD?$AAL?$AAL?$AA?$AA@ 004b7898     LIBCMT:crtmboxw.obj
 0002:000278b0       ??_C@_0O@NLDKAIKN@EncodePointer?$AA@ 004b78b0     LIBCMT:tidtable.obj
 0002:000278c0       ??_C@_1BK@DBDEIDLH@?$AAK?$AAE?$AAR?$AAN?$AAE?$AAL?$AA3?$AA2?$AA?4?$AAD?$AAL?$AAL?$AA?$AA@ 004b78c0     LIBCMT:tidtable.obj
 0002:000278dc       ??_C@_0O@KBPMFGHI@DecodePointer?$AA@ 004b78dc     LIBCMT:tidtable.obj
 0002:000278ec       ??_C@_07PEJMOBNF@FlsFree?$AA@ 004b78ec     LIBCMT:tidtable.obj
 0002:000278f4       ??_C@_0M@JCPCPOEF@FlsSetValue?$AA@ 004b78f4     LIBCMT:tidtable.obj
 0002:00027900       ??_C@_0M@GDNOONDI@FlsGetValue?$AA@ 004b7900     LIBCMT:tidtable.obj
 0002:0002790c       ??_C@_08KNHFBNJ@FlsAlloc?$AA@ 004b790c     LIBCMT:tidtable.obj
 0002:00027938       ??_C@_07LCBHPJJN@LC_TIME?$AA@ 004b7938     LIBCMT:setlocal.obj
 0002:00027940       ??_C@_0L@DLHIECNL@LC_NUMERIC?$AA@ 004b7940     LIBCMT:setlocal.obj
 0002:0002794c       ??_C@_0M@MIENIKLA@LC_MONETARY?$AA@ 004b794c     LIBCMT:setlocal.obj
 0002:00027958       ??_C@_08EADHIDAD@LC_CTYPE?$AA@ 004b7958     LIBCMT:setlocal.obj
 0002:00027964       ??_C@_0L@KFJHEKIK@LC_COLLATE?$AA@ 004b7964     LIBCMT:setlocal.obj
 0002:00027970       ??_C@_06NEFDFEKB@LC_ALL?$AA@ 004b7970     LIBCMT:setlocal.obj
 0002:00027978       ___lc_category             004b7978     LIBCMT:setlocal.obj
 0002:00027a40       ??_C@_03EGDHDPFD@_?4?0?$AA@ 004b7a40     LIBCMT:setlocal.obj
 0002:00027a44       ??_C@_01LFCBOECM@?4?$AA@   004b7a44     LIBCMT:setlocal.obj
 0002:00027a48       ??_C@_01IDAFKMJL@_?$AA@    004b7a48     LIBCMT:setlocal.obj
 0002:00027a4c       ??_C@_01ICJEACDI@?$DL?$AA@ 004b7a4c     LIBCMT:setlocal.obj
 0002:00027a50       ??_C@_01NEMOKFLO@?$DN?$AA@ 004b7a50     LIBCMT:setlocal.obj
 0002:00027a52       ??_C@_00CNPNBAHC@?$AA@     004b7a52     LIBCMT:setlocal.obj
 0002:00027a54       ??_C@_01GFHCPBMG@C?$AA@    004b7a54     LIBCMT:setlocal.obj
 0002:00027a58       ??_C@_02BALPLPBG@?$DN?$DL?$AA@ 004b7a58     LIBCMT:setlocal.obj
 0002:00027a5c       ??_C@_13NOLLCAOD@?$AA?$AA?$AA?$AA@ 004b7a5c     LIBCMT:a_map.obj
 0002:00027a60       ??_C@_0P@GGKDKEEG@runtime?5error?5?$AA@ 004b7a60     LIBCMT:crt0msg.obj
 0002:00027a70       ??_C@_02PCIJFNDE@?$AN?6?$AA@ 004b7a70     LIBCMT:crt0msg.obj
 0002:00027a74       ??_C@_0O@MJNIPGOH@TLOSS?5error?$AN?6?$AA@ 004b7a74     LIBCMT:crt0msg.obj
 0002:00027a84       ??_C@_0N@BONNPDHF@SING?5error?$AN?6?$AA@ 004b7a84     LIBCMT:crt0msg.obj
 0002:00027a94       ??_C@_0P@MBDAJNE@DOMAIN?5error?$AN?6?$AA@ 004b7a94     LIBCMT:crt0msg.obj
 0002:00027aa8       ??_C@_0JL@DFDOOABL@R6034?$AN?6An?5application?5has?5made?5a@ 004b7aa8     LIBCMT:crt0msg.obj
 0002:00027b48       ??_C@_0PH@EPAFIJ@R6033?$AN?6?9?5Attempt?5to?5use?5MSIL?5cod@ 004b7b48     LIBCMT:crt0msg.obj
 0002:00027c40       ??_C@_0DD@BKEEABMM@R6032?$AN?6?9?5not?5enough?5space?5for?5lo@ 004b7c40     LIBCMT:crt0msg.obj
 0002:00027c78       ??_C@_0GD@OFKILIED@R6031?$AN?6?9?5Attempt?5to?5initialize?5t@ 004b7c78     LIBCMT:crt0msg.obj
 0002:00027cdc       ??_C@_0BP@LPMHJOKI@R6030?$AN?6?9?5CRT?5not?5initialized?$AN?6?$AA@ 004b7cdc     LIBCMT:crt0msg.obj
 0002:00027cfc       ??_C@_0CF@KJDAIALP@R6028?$AN?6?9?5unable?5to?5initialize?5he@ 004b7cfc     LIBCMT:crt0msg.obj
 0002:00027d24       ??_C@_0DF@GAKBPDFP@R6027?$AN?6?9?5not?5enough?5space?5for?5lo@ 004b7d24     LIBCMT:crt0msg.obj
 0002:00027d5c       ??_C@_0DF@IBLNNAIG@R6026?$AN?6?9?5not?5enough?5space?5for?5st@ 004b7d5c     LIBCMT:crt0msg.obj
 0002:00027d94       ??_C@_0CG@IOHKGFNJ@R6025?$AN?6?9?5pure?5virtual?5function?5c@ 004b7d94     LIBCMT:crt0msg.obj
 0002:00027dbc       ??_C@_0DF@JIJJFJDC@R6024?$AN?6?9?5not?5enough?5space?5for?5_o@ 004b7dbc     LIBCMT:crt0msg.obj
 0002:00027df4       ??_C@_0CJ@EGEJHFME@R6019?$AN?6?9?5unable?5to?5open?5console?5@ 004b7df4     LIBCMT:crt0msg.obj
 0002:00027e20       ??_C@_0CB@GNHNIELH@R6018?$AN?6?9?5unexpected?5heap?5error?$AN?6@ 004b7e20     LIBCMT:crt0msg.obj
 0002:00027e44       ??_C@_0CN@FOLDKNG@R6017?$AN?6?9?5unexpected?5multithread?5@ 004b7e44     LIBCMT:crt0msg.obj
 0002:00027e74       ??_C@_0CM@FAHFJNHO@R6016?$AN?6?9?5not?5enough?5space?5for?5th@ 004b7e74     LIBCMT:crt0msg.obj
 0002:00027ea0       ??_C@_0JG@LBKMGKLD@?$AN?6This?5application?5has?5requested@ 004b7ea0     LIBCMT:crt0msg.obj
 0002:00027f38       ??_C@_0CM@FLCNIPKK@R6009?$AN?6?9?5not?5enough?5space?5for?5en@ 004b7f38     LIBCMT:crt0msg.obj
 0002:00027f64       ??_C@_0CK@KMMJOAPP@R6008?$AN?6?9?5not?5enough?5space?5for?5ar@ 004b7f64     LIBCMT:crt0msg.obj
 0002:00027f90       ??_C@_0CN@LEKKICBM@R6002?$AN?6?9?5floating?5point?5support?5@ 004b7f90     LIBCMT:crt0msg.obj
 0002:00027fc0       ??_C@_0CF@GOGNBNAK@Microsoft?5Visual?5C?$CL?$CL?5Runtime?5Lib@ 004b7fc0     LIBCMT:crt0msg.obj
 0002:00027fe8       ??_C@_02PHMGELLB@?6?6?$AA@ 004b7fe8     LIBCMT:crt0msg.obj
 0002:00027fec       ??_C@_03KHICJKCI@?4?4?4?$AA@ 004b7fec     LIBCMT:crt0msg.obj
 0002:00027ff0       ??_C@_0BH@DNAGHKFM@?$DMprogram?5name?5unknown?$DO?$AA@ 004b7ff0     LIBCMT:crt0msg.obj
 0002:00028008       ??_C@_0BK@OFGJDLJJ@Runtime?5Error?$CB?6?6Program?3?5?$AA@ 004b8008     LIBCMT:crt0msg.obj
 0002:00028028       __XcptActTab               004b8028     LIBCMT:winxfltr.obj
 0002:000280a0       ??_C@_0BC@JEAENNKH@SystemFunction036?$AA@ 004b80a0     LIBCMT:rand_s.obj
 0002:000280b4       ??_C@_0N@JJPEKNFO@ADVAPI32?4DLL?$AA@ 004b80b4     LIBCMT:rand_s.obj
 0002:000280c8       ___lookuptable_s           004b80c8     LIBCMT:outputs.obj
 0002:00028128       ___newctype                004b8128     LIBCMT:ctype.obj
 0002:00028428       __wctype                   004b8428     LIBCMT:ctype.obj
 0002:00028630       ___newclmap                004b8630     LIBCMT:ctype.obj
 0002:000287b0       ___newcumap                004b87b0     LIBCMT:ctype.obj
 0002:00028930       ??_C@_08JCCMCCIL@HH?3mm?3ss?$AA@ 004b8930     LIBCMT:strftime.obj
 0002:0002893c       ??_C@_0BE@CKGJFCPC@dddd?0?5MMMM?5dd?0?5yyyy?$AA@ 004b893c     LIBCMT:strftime.obj
 0002:00028950       ??_C@_08BPBNCDIB@MM?1dd?1yy?$AA@ 004b8950     LIBCMT:strftime.obj
 0002:0002895c       ??_C@_02CJNFDJBF@PM?$AA@   004b895c     LIBCMT:strftime.obj
 0002:00028960       ??_C@_02DEDBPAFC@AM?$AA@   004b8960     LIBCMT:strftime.obj
 0002:00028964       ??_C@_08EDHMEBNP@December?$AA@ 004b8964     LIBCMT:strftime.obj
 0002:00028970       ??_C@_08HCHEGEOA@November?$AA@ 004b8970     LIBCMT:strftime.obj
 0002:0002897c       ??_C@_07JJNFCEND@October?$AA@ 004b897c     LIBCMT:strftime.obj
 0002:00028984       ??_C@_09BHHEALKD@September?$AA@ 004b8984     LIBCMT:strftime.obj
 0002:00028990       ??_C@_06LBBHFDDG@August?$AA@ 004b8990     LIBCMT:strftime.obj
 0002:00028998       ??_C@_04MIEPOIFP@July?$AA@ 004b8998     LIBCMT:strftime.obj
 0002:000289a0       ??_C@_04CNLMGBGM@June?$AA@ 004b89a0     LIBCMT:strftime.obj
 0002:000289a8       ??_C@_05DMJDNLEJ@April?$AA@ 004b89a8     LIBCMT:strftime.obj
 0002:000289b0       ??_C@_05HPCKOFNC@March?$AA@ 004b89b0     LIBCMT:strftime.obj
 0002:000289b8       ??_C@_08GNJGEPFN@February?$AA@ 004b89b8     LIBCMT:strftime.obj
 0002:000289c4       ??_C@_07CGJPFGJA@January?$AA@ 004b89c4     LIBCMT:strftime.obj
 0002:000289cc       ??_C@_03MKABNOCG@Dec?$AA@  004b89cc     LIBCMT:strftime.obj
 0002:000289d0       ??_C@_03JPJOFNIA@Nov?$AA@  004b89d0     LIBCMT:strftime.obj
 0002:000289d4       ??_C@_03BMAOKBAD@Oct?$AA@  004b89d4     LIBCMT:strftime.obj
 0002:000289d8       ??_C@_03GGCAPAJC@Sep?$AA@  004b89d8     LIBCMT:strftime.obj
 0002:000289dc       ??_C@_03IFJFEIGA@Aug?$AA@  004b89dc     LIBCMT:strftime.obj
 0002:000289e0       ??_C@_03LBGABGKK@Jul?$AA@  004b89e0     LIBCMT:strftime.obj
 0002:000289e4       ??_C@_03IDFGHECI@Jun?$AA@  004b89e4     LIBCMT:strftime.obj
 0002:000289e8       ??_C@_03CNMDKL@May?$AA@    004b89e8     LIBCMT:strftime.obj
 0002:000289ec       ??_C@_03LEOLGMJP@Apr?$AA@  004b89ec     LIBCMT:strftime.obj
 0002:000289f0       ??_C@_03ODNJBKGA@Mar?$AA@  004b89f0     LIBCMT:strftime.obj
 0002:000289f4       ??_C@_03HJBDCHOM@Feb?$AA@  004b89f4     LIBCMT:strftime.obj
 0002:000289f8       ??_C@_03JIHJHPIE@Jan?$AA@  004b89f8     LIBCMT:strftime.obj
 0002:000289fc       ??_C@_08INBOOONO@Saturday?$AA@ 004b89fc     LIBCMT:strftime.obj
 0002:00028a08       ??_C@_06JECMNKMI@Friday?$AA@ 004b8a08     LIBCMT:strftime.obj
 0002:00028a10       ??_C@_08HACCIKIA@Thursday?$AA@ 004b8a10     LIBCMT:strftime.obj
 0002:00028a1c       ??_C@_09DLIGFAKA@Wednesday?$AA@ 004b8a1c     LIBCMT:strftime.obj
 0002:00028a28       ??_C@_07BAAGCFCM@Tuesday?$AA@ 004b8a28     LIBCMT:strftime.obj
 0002:00028a30       ??_C@_06JLEDEDGH@Monday?$AA@ 004b8a30     LIBCMT:strftime.obj
 0002:00028a38       ??_C@_06OOPIFAJ@Sunday?$AA@ 004b8a38     LIBCMT:strftime.obj
 0002:00028a40       ??_C@_03FEFJNEK@Sat?$AA@   004b8a40     LIBCMT:strftime.obj
 0002:00028a44       ??_C@_03IDIOELNC@Fri?$AA@  004b8a44     LIBCMT:strftime.obj
 0002:00028a48       ??_C@_03IOFIKPDN@Thu?$AA@  004b8a48     LIBCMT:strftime.obj
 0002:00028a4c       ??_C@_03MHOMLAJA@Wed?$AA@  004b8a4c     LIBCMT:strftime.obj
 0002:00028a50       ??_C@_03NAGEINEP@Tue?$AA@  004b8a50     LIBCMT:strftime.obj
 0002:00028a54       ??_C@_03PDAGKDH@Mon?$AA@   004b8a54     LIBCMT:strftime.obj
 0002:00028a58       ??_C@_03KOEHGMDN@Sun?$AA@  004b8a58     LIBCMT:strftime.obj
 0002:00028a5c       ??_C@_03EBAPMIKO@a?1p?$AA@ 004b8a5c     LIBCMT:strftime.obj
 0002:00028a60       ??_C@_05JAMEPDIN@am?1pm?$AA@ 004b8a60     LIBCMT:strftime.obj
 0002:00028a68       ??_C@_0O@FMJNFNKE@united?9states?$AA@ 004b8a68     LIBCMT:getqloc.obj
 0002:00028a78       ??_C@_0P@NDHFFKCA@united?9kingdom?$AA@ 004b8a78     LIBCMT:getqloc.obj
 0002:00028a88       ??_C@_0BC@HHDADLGF@trinidad?5?$CG?5tobago?$AA@ 004b8a88     LIBCMT:getqloc.obj
 0002:00028a9c       ??_C@_0M@IOAEBDAC@south?9korea?$AA@ 004b8a9c     LIBCMT:getqloc.obj
 0002:00028aa8       ??_C@_0N@FIELFKIJ@south?9africa?$AA@ 004b8aa8     LIBCMT:getqloc.obj
 0002:00028ab8       ??_C@_0M@OPNDHCMC@south?5korea?$AA@ 004b8ab8     LIBCMT:getqloc.obj
 0002:00028ac4       ??_C@_0N@MDEOEPFI@south?5africa?$AA@ 004b8ac4     LIBCMT:getqloc.obj
 0002:00028ad4       ??_C@_06FKAPCJLB@slovak?$AA@ 004b8ad4     LIBCMT:getqloc.obj
 0002:00028adc       ??_C@_0M@EFJANOAL@puerto?9rico?$AA@ 004b8adc     LIBCMT:getqloc.obj
 0002:00028ae8       ??_C@_08PGOJKDAI@pr?9china?$AA@ 004b8ae8     LIBCMT:getqloc.obj
 0002:00028af4       ??_C@_08JHDOMCMI@pr?5china?$AA@ 004b8af4     LIBCMT:getqloc.obj
 0002:00028b00       ??_C@_02JHCHFBLL@nz?$AA@   004b8b00     LIBCMT:getqloc.obj
 0002:00028b04       ??_C@_0M@LINHDHKP@new?9zealand?$AA@ 004b8b04     LIBCMT:getqloc.obj
 0002:00028b10       ??_C@_09IIIPPBDB@hong?9kong?$AA@ 004b8b10     LIBCMT:getqloc.obj
 0002:00028b1c       ??_C@_07HJLCKBG@holland?$AA@ 004b8b1c     LIBCMT:getqloc.obj
 0002:00028b24       ??_C@_0O@LEHGMHAG@great?5britain?$AA@ 004b8b24     LIBCMT:getqloc.obj
 0002:00028b34       ??_C@_07FACOMELA@england?$AA@ 004b8b34     LIBCMT:getqloc.obj
 0002:00028b3c       ??_C@_05JIHCEICB@czech?$AA@ 004b8b3c     LIBCMT:getqloc.obj
 0002:00028b44       ??_C@_05BBJOBLGB@china?$AA@ 004b8b44     LIBCMT:getqloc.obj
 0002:00028b4c       ??_C@_07GPKPHICP@britain?$AA@ 004b8b4c     LIBCMT:getqloc.obj
 0002:00028b54       ??_C@_07MHIPBHMG@america?$AA@ 004b8b54     LIBCMT:getqloc.obj
 0002:00028b5c       ??_C@_03KIALPMKC@usa?$AA@  004b8b5c     LIBCMT:getqloc.obj
 0002:00028b60       ??_C@_02FGJGKGGD@us?$AA@   004b8b60     LIBCMT:getqloc.obj
 0002:00028b64       ??_C@_02NEINDODK@uk?$AA@   004b8b64     LIBCMT:getqloc.obj
 0002:00028b68       ??_C@_05JMPCFJFJ@swiss?$AA@ 004b8b68     LIBCMT:getqloc.obj
 0002:00028b70       ??_C@_0BA@HLOCPIOD@swedish?9finland?$AA@ 004b8b70     LIBCMT:getqloc.obj
 0002:00028b80       ??_C@_0BC@PKCNIABK@spanish?9venezuela?$AA@ 004b8b80     LIBCMT:getqloc.obj
 0002:00028b94       ??_C@_0BA@GBHHMIJI@spanish?9uruguay?$AA@ 004b8b94     LIBCMT:getqloc.obj
 0002:00028ba4       ??_C@_0BE@BHDOHPMC@spanish?9puerto?5rico?$AA@ 004b8ba4     LIBCMT:getqloc.obj
 0002:00028bb8       ??_C@_0N@KMOIDGGN@spanish?9peru?$AA@ 004b8bb8     LIBCMT:getqloc.obj
 0002:00028bc8       ??_C@_0BB@HMHLPGPH@spanish?9paraguay?$AA@ 004b8bc8     LIBCMT:getqloc.obj
 0002:00028bdc       ??_C@_0P@MCPKNGFD@spanish?9panama?$AA@ 004b8bdc     LIBCMT:getqloc.obj
 0002:00028bec       ??_C@_0BC@IHOHGAIL@spanish?9nicaragua?$AA@ 004b8bec     LIBCMT:getqloc.obj
 0002:00028c00       ??_C@_0P@KLMJDNFJ@spanish?9modern?$AA@ 004b8c00     LIBCMT:getqloc.obj
 0002:00028c10       ??_C@_0BA@BPAPGBCM@spanish?9mexican?$AA@ 004b8c10     LIBCMT:getqloc.obj
 0002:00028c20       ??_C@_0BB@PDECHHHE@spanish?9honduras?$AA@ 004b8c20     LIBCMT:getqloc.obj
 0002:00028c34       ??_C@_0BC@KLHKFGDB@spanish?9guatemala?$AA@ 004b8c34     LIBCMT:getqloc.obj
 0002:00028c48       ??_C@_0BE@MFOOKJAI@spanish?9el?5salvador?$AA@ 004b8c48     LIBCMT:getqloc.obj
 0002:00028c5c       ??_C@_0BA@FCOKFPFC@spanish?9ecuador?$AA@ 004b8c5c     LIBCMT:getqloc.obj
 0002:00028c6c       ??_C@_0BL@PLMGIMOO@spanish?9dominican?5republic?$AA@ 004b8c6c     LIBCMT:getqloc.obj
 0002:00028c88       ??_C@_0BD@HLGDNMHB@spanish?9costa?5rica?$AA@ 004b8c88     LIBCMT:getqloc.obj
 0002:00028c9c       ??_C@_0BB@PKCBKCPE@spanish?9colombia?$AA@ 004b8c9c     LIBCMT:getqloc.obj
 0002:00028cb0       ??_C@_0O@MCBIJGNE@spanish?9chile?$AA@ 004b8cb0     LIBCMT:getqloc.obj
 0002:00028cc0       ??_C@_0BA@BEFEIGJJ@spanish?9bolivia?$AA@ 004b8cc0     LIBCMT:getqloc.obj
 0002:00028cd0       ??_C@_0BC@EMECMPD@spanish?9argentina?$AA@ 004b8cd0     LIBCMT:getqloc.obj
 0002:00028ce4       ??_C@_0BF@EALFLENP@portuguese?9brazilian?$AA@ 004b8ce4     LIBCMT:getqloc.obj
 0002:00028cfc       ??_C@_0BC@HBLEBLNN@norwegian?9nynorsk?$AA@ 004b8cfc     LIBCMT:getqloc.obj
 0002:00028d10       ??_C@_0BB@HMACDDCK@norwegian?9bokmal?$AA@ 004b8d10     LIBCMT:getqloc.obj
 0002:00028d24       ??_C@_09BAFFPPHE@norwegian?$AA@ 004b8d24     LIBCMT:getqloc.obj
 0002:00028d30       ??_C@_0O@EAJFJDFG@italian?9swiss?$AA@ 004b8d30     LIBCMT:getqloc.obj
 0002:00028d40       ??_C@_0O@CNOMPGD@irish?9english?$AA@ 004b8d40     LIBCMT:getqloc.obj
 0002:00028d50       ??_C@_0N@EDHBGCKG@german?9swiss?$AA@ 004b8d50     LIBCMT:getqloc.obj
 0002:00028d60       ??_C@_0BC@JACMHNBP@german?9luxembourg?$AA@ 004b8d60     LIBCMT:getqloc.obj
 0002:00028d74       ??_C@_0BE@HBGMGFEG@german?9lichtenstein?$AA@ 004b8d74     LIBCMT:getqloc.obj
 0002:00028d88       ??_C@_0BA@HKKBIBKL@german?9austrian?$AA@ 004b8d88     LIBCMT:getqloc.obj
 0002:00028d98       ??_C@_0N@GCAEPEBK@french?9swiss?$AA@ 004b8d98     LIBCMT:getqloc.obj
 0002:00028da8       ??_C@_0BC@DJFJJCK@french?9luxembourg?$AA@ 004b8da8     LIBCMT:getqloc.obj
 0002:00028dbc       ??_C@_0BA@NNCEDFIC@french?9canadian?$AA@ 004b8dbc     LIBCMT:getqloc.obj
 0002:00028dcc       ??_C@_0P@CMPOCLM@french?9belgian?$AA@ 004b8dcc     LIBCMT:getqloc.obj
 0002:00028ddc       ??_C@_0M@GHHDJOK@english?9usa?$AA@ 004b8ddc     LIBCMT:getqloc.obj
 0002:00028de8       ??_C@_0L@PLDJKEIL@english?9us?$AA@ 004b8de8     LIBCMT:getqloc.obj
 0002:00028df4       ??_C@_0L@HJCCDMNC@english?9uk?$AA@ 004b8df4     LIBCMT:getqloc.obj
 0002:00028e00       ??_C@_0BK@CKLIAGJB@english?9trinidad?5y?5tobago?$AA@ 004b8e00     LIBCMT:getqloc.obj
 0002:00028e1c       ??_C@_0BF@JMJMGNNF@english?9south?5africa?$AA@ 004b8e1c     LIBCMT:getqloc.obj
 0002:00028e34       ??_C@_0L@DKIIFDFD@english?9nz?$AA@ 004b8e34     LIBCMT:getqloc.obj
 0002:00028e40       ??_C@_0BA@ONHGJCLH@english?9jamaica?$AA@ 004b8e40     LIBCMT:getqloc.obj
 0002:00028e50       ??_C@_0M@HJBGHOPO@english?9ire?$AA@ 004b8e50     LIBCMT:getqloc.obj
 0002:00028e5c       ??_C@_0BC@LFEKMIFB@english?9caribbean?$AA@ 004b8e5c     LIBCMT:getqloc.obj
 0002:00028e70       ??_C@_0M@OLDPFKHI@english?9can?$AA@ 004b8e70     LIBCMT:getqloc.obj
 0002:00028e7c       ??_C@_0P@OMDEHBMP@english?9belize?$AA@ 004b8e7c     LIBCMT:getqloc.obj
 0002:00028e8c       ??_C@_0M@KFHFPFED@english?9aus?$AA@ 004b8e8c     LIBCMT:getqloc.obj
 0002:00028e98       ??_C@_0BB@MNMBKDFE@english?9american?$AA@ 004b8e98     LIBCMT:getqloc.obj
 0002:00028eac       ??_C@_0O@KIDLNNBA@dutch?9belgian?$AA@ 004b8eac     LIBCMT:getqloc.obj
 0002:00028ebc       ??_C@_0BE@JBKABBMH@chinese?9traditional?$AA@ 004b8ebc     LIBCMT:getqloc.obj
 0002:00028ed0       ??_C@_0BC@MJJMPKCG@chinese?9singapore?$AA@ 004b8ed0     LIBCMT:getqloc.obj
 0002:00028ee4       ??_C@_0BD@FDKADDCP@chinese?9simplified?$AA@ 004b8ee4     LIBCMT:getqloc.obj
 0002:00028ef8       ??_C@_0BB@DBEFDDME@chinese?9hongkong?$AA@ 004b8ef8     LIBCMT:getqloc.obj
 0002:00028f0c       ??_C@_07DHNMFMCI@chinese?$AA@ 004b8f0c     LIBCMT:getqloc.obj
 0002:00028f14       ??_C@_03FNDDCHI@chi?$AA@   004b8f14     LIBCMT:getqloc.obj
 0002:00028f18       ??_C@_03BMMIADDJ@chh?$AA@  004b8f18     LIBCMT:getqloc.obj
 0002:00028f1c       ??_C@_08OAIPJDGI@canadian?$AA@ 004b8f1c     LIBCMT:getqloc.obj
 0002:00028f28       ??_C@_07HBPMNPNJ@belgian?$AA@ 004b8f28     LIBCMT:getqloc.obj
 0002:00028f30       ??_C@_0L@OEKOPBEL@australian?$AA@ 004b8f30     LIBCMT:getqloc.obj
 0002:00028f3c       ??_C@_0BB@MEIMBEDG@american?9english?$AA@ 004b8f3c     LIBCMT:getqloc.obj
 0002:00028f50       ??_C@_0BB@DFMDPDGB@american?5english?$AA@ 004b8f50     LIBCMT:getqloc.obj
 0002:00028f64       ??_C@_08IJLOKOLL@american?$AA@ 004b8f64     LIBCMT:getqloc.obj
 0002:00028f70       ___rg_language             004b8f70     LIBCMT:getqloc.obj
 0002:00029178       ___rg_country              004b9178     LIBCMT:getqloc.obj
 0002:00029230       ___rglangidNotDefault      004b9230     LIBCMT:getqloc.obj
 0002:00029244       ??_C@_01GBGANLPD@0?$AA@    004b9244     LIBCMT:getqloc.obj
 0002:00029248       ??_C@_03NFKLAGEF@OCP?$AA@  004b9248     LIBCMT:getqloc.obj
 0002:0002924c       ??_C@_03DFHEHBHG@ACP?$AA@  004b924c     LIBCMT:getqloc.obj
 0002:00029250       ??_C@_0BC@NFIEMBLL@Norwegian?9Nynorsk?$AA@ 004b9250     LIBCMT:getqloc.obj
 0002:00029264       ??_C@_0BK@CIDNPOGP@GetUserObjectInformationA?$AA@ 004b9264     LIBCMT:crtmbox.obj
 0002:00029280       ??_C@_0M@CHKKJDAI@MessageBoxA?$AA@ 004b9280     LIBCMT:crtmbox.obj
 0002:0002928c       ??_C@_0L@NDEGIDAG@USER32?4DLL?$AA@ 004b928c     LIBCMT:crtmbox.obj
 0002:00029298       ??_C@_06GDENEHCP@CONIN$?$AA@ 004b9298     LIBCMT:initcon.obj
 0002:000292a0       ??_C@_07GPDNMNG@CONOUT$?$AA@ 004b92a0     LIBCMT:initcon.obj
 0002:000292a8       ___dnames                  004b92a8     LIBCMT:timeset.obj
 0002:000292c0       ___mnames                  004b92c0     LIBCMT:timeset.obj
 0002:000292e8       ??_C@_02CLFPBFFP@TZ?$AA@   004b92e8     LIBCMT:tzset.obj
 0002:00029630       ?iy_opcode@@3QBQ6IXPAUZ80@@@ZB 004b9630     z80:op_fd.obj
 0002:00029a30       ?ix_opcode@@3QBQ6IXPAUZ80@@@ZB 004b9a30     z80:op_dd.obj
 0002:00029e30       ?ext_opcode@@3QBQ6IXPAUZ80@@@ZB 004b9e30     z80:op_ed.obj
 0002:0002a630       ?daatab@@3QBEB             004ba630     z80:daa_tabs.obj
 0002:0002ba30       ?incf@@3QBEB               004bba30     z80:tables.obj
 0002:0002bb30       ?decf@@3QBEB               004bbb30     z80:tables.obj
 0002:0002bc30       ?rlcf@@3QBEB               004bbc30     z80:tables.obj
 0002:0002bd30       ?rrcf@@3QBEB               004bbd30     z80:tables.obj
 0002:0002be30       ?rl0@@3QBEB                004bbe30     z80:tables.obj
 0002:0002bf30       ?rl1@@3QBEB                004bbf30     z80:tables.obj
 0002:0002c030       ?rr0@@3QBEB                004bc030     z80:tables.obj
 0002:0002c130       ?rr1@@3QBEB                004bc130     z80:tables.obj
 0002:0002c230       ?sraf@@3QBEB               004bc230     z80:tables.obj
 0002:0002c330       ?normal_opcode@@3QBQ6IXPAUZ80@@@ZB 004bc330     z80:op_noprefix.obj
 0002:0002c970       ?SNDR_VOL_YM_S@@3USNDCHIP_VOLTAB@@B 004bc970     snd:sndchip.obj
 0002:0002c9f4       ?SNDR_PAN_ABC_S@@3USNDCHIP_PANTAB@@B 004bc9f4     snd:sndchip.obj
 0002:0002ca1a       ?nop@@3DB                  004bca1a     util.obj
 0002:0002ca2c       ?ay_chips@@3QBQBDB         004bca2c     snd:sndchip.obj
 0002:0002ca38       ?SNDR_VOL_AY_S@@3USNDCHIP_VOLTAB@@B 004bca38     snd:sndchip.obj
 0002:0002cab8       ?SNDR_PAN_MONO_S@@3USNDCHIP_PANTAB@@B 004bcab8     snd:sndchip.obj
 0002:0002cad0       ?SNDR_PAN_ACB_S@@3USNDCHIP_PANTAB@@B 004bcad0     snd:sndchip.obj
 0002:0002cae8       ?SNDR_PAN_BAC_S@@3USNDCHIP_PANTAB@@B 004bcae8     snd:sndchip.obj
 0002:0002cb00       ?SNDR_PAN_BCA_S@@3USNDCHIP_PANTAB@@B 004bcb00     snd:sndchip.obj
 0002:0002cb18       ?SNDR_PAN_CAB_S@@3USNDCHIP_PANTAB@@B 004bcb18     snd:sndchip.obj
 0002:0002cb30       ?SNDR_PAN_CBA_S@@3USNDCHIP_PANTAB@@B 004bcb30     snd:sndchip.obj
 0002:0002d2d8       ?Count@TCpuMgr@@0IB        004bd2d8     vars.obj
 0002:0002d3c0       ?mem_model@@3QBUTMemModel@@B 004bd3c0     vars.obj
 0002:0002d7c8       ?pckeys_count@@3IB         004bd7c8     vars.obj
 0002:0002db38       ?zxk_maps_count@@3IB       004bdb38     vars.obj
 0002:0002db9c       ?ay_schemes@@3QBQBDB       004bdb9c     vars.obj
 0002:0002dbb4       ?nil@@3QBDB                004bdbb4     util.obj
 0002:0002fb28       ?pc_layout@@3QBUPC_KEY@@B  004bfb28     inputpc.obj
 0002:0002fbd8       ?pc_layout_count@@3IB      004bfbd8     inputpc.obj
 0002:0003061c       ?GSCPUINT@z80gs@@3IB       004c061c     gsz80.obj
 0002:000308a8       ?fontdata1@@3QBEB          004c08a8     fontdata.obj
 0002:00032f00       ?font8@@3QBEB              004c2f00     font8.obj
 0002:00033700       ?font16@@3QBEB             004c3700     font16.obj
 0002:00034700       ?font14@@3QBEB             004c4700     font14.obj
 0002:00035500       ?font@@3QBEB               004c5500     font.obj
 0002:00036af0       ?drivers@@3QBURENDER@@B    004c6af0     dx.obj
 0002:000376ac       ?rbuf_s@@3QAEA             004c76ac     draw.obj
 0002:00037708       ?cs@@3QAY01$$CBIA          004c7708     dbgtrace.obj
 0002:00037a4c       ?regs_layout_count@@3IB    004c7a4c     dbgreg.obj
 0002:00037a50       ?regs_layout@@3QBUTRegLayout@@B 004c7a50     dbgreg.obj
 0002:00039234       ?SM_RESET@TVs1001@@0EB     004c9234     gs.obj
 0002:000393e8       ??_7Z80@@6B@               004c93e8     vars.obj
 0002:00039408       ??_7TMainZ80@@6B@          004c9408     vars.obj
 0002:00039428       ??_7TGsZ80@@6B@            004c9428     vars.obj
 0002:00039498       __real@4024000000000000    004c9498      CIL library: CIL module
 0002:000394a0       __real@3fde97f913854b8c    004c94a0      CIL library: CIL module
 0002:000394a8       __real@400009b16ad7cb6a    004c94a8      CIL library: CIL module
 0002:000394b0       __real@3f84c552905ec80d    004c94b0      CIL library: CIL module
 0002:000394b8       __real@3fef3899b42e8bd3    004c94b8      CIL library: CIL module
 0002:000394c0       __real@4067424b1ee24357    004c94c0      CIL library: CIL module
 0002:000394c8       __real@3fffd6755ad393c4    004c94c8      CIL library: CIL module
 0002:000394d0       __real@3f7362d597cfedea    004c94d0      CIL library: CIL module
 0002:000394d8       __real@406fe9d830786dd0    004c94d8      CIL library: CIL module
 0002:000394e0       __real@3fef5f5f5f647e2a    004c94e0      CIL library: CIL module
 0002:000394e8       __real@3f747ae147ae147b    004c94e8      CIL library: CIL module
 0002:000394f0       __real@4040000000000000    004c94f0      CIL library: CIL module
 0002:000394f8       __real@4020000000000000    004c94f8      CIL library: CIL module
 0002:00039500       __real@bff0000000000000    004c9500      CIL library: CIL module
 0002:00039508       __real@0000000000000000    004c9508      CIL library: CIL module
 0002:00039510       __real@3f50000000000000    004c9510      CIL library: CIL module
 0002:00039518       __real@400921fb54442d18    004c9518      CIL library: CIL module
 0002:00039520       __real@40f0000000000000    004c9520      CIL library: CIL module
 0002:00039528       __real@4000000000000000    004c9528      CIL library: CIL module
 0002:00039530       __real@3fc0000000000000    004c9530      CIL library: CIL module
 0002:00039538       __real@3fa0000000000000    004c9538      CIL library: CIL module
 0002:00039540       __real@3eb0000000000000    004c9540      CIL library: CIL module
 0002:00039548       __real@4090000000000000    004c9548      CIL library: CIL module
 0002:00039550       __real@3fb1eb851eb851ec    004c9550      CIL library: CIL module
 0002:00039558       __real@3fdb851eb851eb85    004c9558      CIL library: CIL module
 0002:00039560       __real@4060000000000000    004c9560      CIL library: CIL module
 0002:00039568       __real@3fd70a3d70a3d70a    004c9568      CIL library: CIL module
 0002:00039570       __real@3fe2e147ae147ae1    004c9570      CIL library: CIL module
 0002:00039578       __real@3fc1eb851eb851ec    004c9578      CIL library: CIL module
 0002:00039580       __real@3fd28f5c28f5c28f    004c9580      CIL library: CIL module
 0002:00039588       __real@41f0000000000000    004c9588      CIL library: CIL module
 0002:00039590       __real@407ff00000000000    004c9590      CIL library: CIL module
 0002:00039598       __real@40ce848000000000    004c9598      CIL library: CIL module
 0002:000395a0       __real@40de848000000000    004c95a0      CIL library: CIL module
 0002:000395a8       __real@40ee848000000000    004c95a8      CIL library: CIL module
 0002:000395b0       __real@4f800000            004c95b0      CIL library: CIL module
 0002:000395b8       __real@4050000000000000    004c95b8      CIL library: CIL module
 0002:000395c0       __real@3f70000000000000    004c95c0      CIL library: CIL module
 0002:000395c8       __real@4070000000000000    004c95c8      CIL library: CIL module
 0002:000395d0       __real@406fe00000000000    004c95d0      CIL library: CIL module
 0002:000395d8       __real@3fdd70a3d70a3d71    004c95d8      CIL library: CIL module
 0002:000395e0       __real@3fe147ae147ae148    004c95e0      CIL library: CIL module
 0002:000395e8       __real@4010000000000000    004c95e8      CIL library: CIL module
 0002:000395f0       __real@3fd5555551c112da    004c95f0      CIL library: CIL module
 0002:000395f8       __real@3feccccccccccccd    004c95f8      CIL library: CIL module
 0002:00039600       __real@3fb99999a0000000    004c9600      CIL library: CIL module
 0002:00039608       __real@3f20000000000000    004c9608      CIL library: CIL module
 0002:00039610       __real@411f400000000000    004c9610      CIL library: CIL module
 0002:00039618       __real@3f800000            004c9618      CIL library: CIL module
 0002:0003961c       __real@bf800000            004c961c      CIL library: CIL module
 0002:00039620       __real@3fee3437e7101e0c    004c9620      CIL library: CIL module
 0002:00039628       __real@414b0f8740000000    004c9628      CIL library: CIL module
 0002:00039630       __real@40bac00000000000    004c9630      CIL library: CIL module
 0002:00039638       __real@00000000            004c9638      CIL library: CIL module
 0002:00039640       __real@3fefae1480000000    004c9640      CIL library: CIL module
 0002:00039648       __real@3fefd70a40000000    004c9648      CIL library: CIL module
 0002:00039650       __FPinit                   004c9650     LIBCMT:_fpinit_.obj
 0002:00039654       __FPmtinit                 004c9654     LIBCMT:_fpinit_.obj
 0002:00039658       __FPmtterm                 004c9658     LIBCMT:_fpinit_.obj
 0002:000396b0       ??_C@_05KLBDPFGC@e?$CL000?$AA@ 004c96b0     LIBCMT:cvt.obj
 0002:000396b8       __real@3ff0000000000000    004c96b8     LIBCMT:_testfdiv_.obj
 0002:000396c0       __real@4150017ec0000000    004c96c0     LIBCMT:_testfdiv_.obj
 0002:000396c8       __real@4147ffff80000000    004c96c8     LIBCMT:_testfdiv_.obj
 0002:000396d0       ??_C@_0BK@NHEOCAHP@IsProcessorFeaturePresent?$AA@ 004c96d0     LIBCMT:_testfdiv_.obj
 0002:000396ec       ??_C@_08CPNIBGIE@KERNEL32?$AA@ 004c96ec     LIBCMT:_testfdiv_.obj
 0002:0003d048       __DEFAULT_CW_in_mem        004cd048     LIBCMT:_common_.obj
 0002:0003d04a       __pi_by_2_to_61            004cd04a     LIBCMT:_common_.obj
 0002:0003d088       __real@3fe0000000000000    004cd088     LIBCMT:_powhlp_.obj
 0002:0003e298       ??_C@_03IIINPABG@tan?$AA@  004ce298     LIBCMT:_libm_error_.obj
 0002:0003e29c       ??_C@_03LALBNOCG@cos?$AA@  004ce29c     LIBCMT:_libm_error_.obj
 0002:0003e2a0       ??_C@_03BLEJJJBH@sin?$AA@  004ce2a0     LIBCMT:_libm_error_.obj
 0002:0003e2a4       ??_C@_04EHEDPDJG@modf?$AA@ 004ce2a4     LIBCMT:_libm_error_.obj
 0002:0003e2ac       ??_C@_05PBJFFIGL@floor?$AA@ 004ce2ac     LIBCMT:_libm_error_.obj
 0002:0003e2b4       ??_C@_04GFPJNGEK@ceil?$AA@ 004ce2b4     LIBCMT:_libm_error_.obj
 0002:0003e2bc       ??_C@_04MLLJIGOK@atan?$AA@ 004ce2bc     LIBCMT:_libm_error_.obj
 0002:0003e2c4       ??_C@_05EOHGHCHD@exp10?$AA@ 004ce2c4     LIBCMT:_libm_error_.obj
 0002:0003e2cc       ??_C@_04PDIFKINK@acos?$AA@ 004ce2cc     LIBCMT:_libm_error_.obj
 0002:0003e2d4       ??_C@_04FIHNOPOL@asin?$AA@ 004ce2d4     LIBCMT:_libm_error_.obj
 0002:0003e2dc       ??_C@_03MGHMBJCF@log?$AA@  004ce2dc     LIBCMT:_libm_error_.obj
 0002:0003e2e0       ??_C@_05HGHHAHAP@log10?$AA@ 004ce2e0     LIBCMT:_libm_error_.obj
 0002:0003e2e8       ??_C@_03KHJOGHMM@exp?$AA@  004ce2e8     LIBCMT:_libm_error_.obj
 0002:0003e2ec       ??_C@_03JGHBODFD@pow?$AA@  004ce2ec     LIBCMT:_libm_error_.obj
 0002:0003ecf0       ??_C@_0L@KDOEJCKC@_nextafter?$AA@ 004cecf0     LIBCMT:_fpexcept_.obj
 0002:0003ecfc       ??_C@_05JGDBENOH@_logb?$AA@ 004cecfc     LIBCMT:_fpexcept_.obj
 0002:0003ed04       ??_C@_03ONILCKOB@_yn?$AA@  004ced04     LIBCMT:_fpexcept_.obj
 0002:0003ed08       ??_C@_03NAKIGLHK@_y1?$AA@  004ced08     LIBCMT:_fpexcept_.obj
 0002:0003ed0c       ??_C@_03MJLDFKDL@_y0?$AA@  004ced0c     LIBCMT:_fpexcept_.obj
 0002:0003ed10       ??_C@_05GKKHEGJL@frexp?$AA@ 004ced10     LIBCMT:_fpexcept_.obj
 0002:0003ed18       ??_C@_04KEPJIHGP@fmod?$AA@ 004ced18     LIBCMT:_fpexcept_.obj
 0002:0003ed20       ??_C@_06MEIMCGCF@_hypot?$AA@ 004ced20     LIBCMT:_fpexcept_.obj
 0002:0003ed28       ??_C@_05KBKMEMPO@_cabs?$AA@ 004ced28     LIBCMT:_fpexcept_.obj
 0002:0003ed30       ??_C@_05CEJMAHNP@ldexp?$AA@ 004ced30     LIBCMT:_fpexcept_.obj
 0002:0003ed38       ??_C@_04ODHECPBC@fabs?$AA@ 004ced38     LIBCMT:_fpexcept_.obj
 0002:0003ed40       ??_C@_04EIAKFFMI@sqrt?$AA@ 004ced40     LIBCMT:_fpexcept_.obj
 0002:0003ed48       ??_C@_05KNGEOGJB@atan2?$AA@ 004ced48     LIBCMT:_fpexcept_.obj
 0002:0003ed50       ??_C@_04FJHINJAO@tanh?$AA@ 004ced50     LIBCMT:_fpexcept_.obj
 0002:0003ed58       ??_C@_04HPJJNFIM@cosh?$AA@ 004ced58     LIBCMT:_fpexcept_.obj
 0002:0003ed60       ??_C@_04COOMCNPB@sinh?$AA@ 004ced60     LIBCMT:_fpexcept_.obj
 0002:0003ed68       __atan_table               004ced68     LIBCMT:_atan_table_.obj
 0002:00040578       ??_C@_06IMKFLFPG@1?$CDQNAN?$AA@ 004d0578     LIBCMT:_x10fout_.obj
 0002:00040580       ??_C@_05DNEBIAHO@1?$CDINF?$AA@ 004d0580     LIBCMT:_x10fout_.obj
 0002:00040588       ??_C@_05PHHOCPM@1?$CDIND?$AA@ 004d0588     LIBCMT:_x10fout_.obj
 0002:00040590       ??_C@_06PGGFOGJG@1?$CDSNAN?$AA@ 004d0590     LIBCMT:_x10fout_.obj
 0002:000405d4       ___rtc_iaa                 004d05d4     LIBCMT:_initsect_.obj
 0002:000405d8       ___rtc_izz                 004d05d8     LIBCMT:_initsect_.obj
 0002:000405dc       ___rtc_taa                 004d05dc     LIBCMT:_initsect_.obj
 0002:000405e0       ___rtc_tzz                 004d05e0     LIBCMT:_initsect_.obj
 0002:0004104c       __IMPORT_DESCRIPTOR_DINPUT 004d104c     dinput:DINPUT.dll
 0002:00041060       __IMPORT_DESCRIPTOR_DDRAW  004d1060     ddraw:DDRAW.dll
 0002:00041074       __IMPORT_DESCRIPTOR_DSOUND 004d1074     dsound:DSOUND.dll
 0002:00041088       __IMPORT_DESCRIPTOR_USER32 004d1088     user32:USER32.dll
 0002:0004109c       __IMPORT_DESCRIPTOR_GDI32  004d109c     gdi32:GDI32.dll
 0002:000410b0       __IMPORT_DESCRIPTOR_SHELL32 004d10b0     shell32:SHELL32.dll
 0002:000410c4       __IMPORT_DESCRIPTOR_WINMM  004d10c4     winmm:WINMM.dll
 0002:000410d8       __IMPORT_DESCRIPTOR_COMDLG32 004d10d8     comdlg32:COMDLG32.dll
 0002:000410ec       __IMPORT_DESCRIPTOR_COMCTL32 004d10ec     comctl32:COMCTL32.dll
 0002:00041100       __IMPORT_DESCRIPTOR_SETUPAPI 004d1100     setupapi:SETUPAPI.dll
 0002:00041114       __IMPORT_DESCRIPTOR_KERNEL32 004d1114     kernel32:KERNEL32.dll
 0002:00041128       __NULL_IMPORT_DESCRIPTOR   004d1128     dinput:DINPUT.dll
 0003:00001330       _CLSID_XACTEngine          004d4330     dxguid:dxguid.obj
 0003:00001340       _CLSID_XACTAuditionEngine  004d4340     dxguid:dxguid.obj
 0003:00001350       _CLSID_XACTDebugEngine     004d4350     dxguid:dxguid.obj
 0003:00001360       _IID_IXACT3Engine          004d4360     dxguid:dxguid.obj
 0003:00001370       _CLSID_XAudio2             004d4370     dxguid:dxguid.obj
 0003:00001380       _CLSID_XAudio2_Debug       004d4380     dxguid:dxguid.obj
 0003:00001390       _IID_IXAudio2              004d4390     dxguid:dxguid.obj
 0003:000013a0       _CLSID_AudioVolumeMeter    004d43a0     dxguid:dxguid.obj
 0003:000013b0       _CLSID_AudioVolumeMeter_Debug 004d43b0     dxguid:dxguid.obj
 0003:000013c0       _CLSID_AudioReverb         004d43c0     dxguid:dxguid.obj
 0003:000013d0       _CLSID_AudioReverb_Debug   004d43d0     dxguid:dxguid.obj
 0003:00001440       __iob                      004d4440     LIBCMT:_file.obj
 0003:000016c0       __aexit_rtn                004d46c0     LIBCMT:crt0dat.obj
 0003:000016c4       ___app_type                004d46c4     LIBCMT:crt0.obj
 0003:000016d0       ___security_cookie         004d46d0     LIBCMT:gs_cookie.obj
 0003:000016d4       ___security_cookie_complement 004d46d4     LIBCMT:gs_cookie.obj
 0003:000016d8       ___nullstring              004d46d8     LIBCMT:output.obj
 0003:000016dc       ___wnullstring             004d46dc     LIBCMT:output.obj
 0003:00001850       ___abort_behavior          004d4850     LIBCMT:abort.obj
 0003:00001854       ___flsindex                004d4854     LIBCMT:tidtable.obj
 0003:00001858       ___getvalueindex           004d4858     LIBCMT:tidtable.obj
 0003:0000185c       __amblksiz                 004d485c     LIBCMT:heapinit.obj
 0003:00001980       __lookuptrailbytes         004d4980     LIBCMT:read.obj
 0003:00001a80       ___initialmbcinfo          004d4a80     LIBCMT:mbctype.obj
 0003:00001ca0       __mbctype                  004d4ca0     LIBCMT:mbctype.obj
 0003:00001da8       __mbcasemap                004d4da8     LIBCMT:mbctype.obj
 0003:00001ea8       ___ptmbcinfo               004d4ea8     LIBCMT:mbctype.obj
 0003:00001fa4       ___globallocalestatus      004d4fa4     LIBCMT:glstatus.obj
 0003:00001fa8       ___clocalestr              004d4fa8     LIBCMT:nlsdata2.obj
 0003:00001fb0       ___initiallocinfo          004d4fb0     LIBCMT:nlsdata2.obj
 0003:00002088       ___ptlocinfo               004d5088     LIBCMT:nlsdata2.obj
 0003:0000208c       ___lc_clike                004d508c     LIBCMT:nlsdata2.obj
 0003:00002090       ___initiallocalestructinfo 004d5090     LIBCMT:nlsdata2.obj
 0003:00002098       ___badioinfo               004d5098     LIBCMT:ioinit.obj
 0003:00002190       __cfltcvt_tab              004d5190     LIBCMT:cmiscdat.obj
 0003:000021b8       __First_FPE_Indx           004d51b8     LIBCMT:winxfltr.obj
 0003:000021bc       __Num_FPE                  004d51bc     LIBCMT:winxfltr.obj
 0003:000021c0       __XcptActTabSize           004d51c0     LIBCMT:winxfltr.obj
 0003:000021c4       __XcptActTabCount          004d51c4     LIBCMT:winxfltr.obj
 0003:000021d0       __NLG_Destination          004d51d0     LIBCMT:exsup.obj
 0003:000021e4       __pctype                   004d51e4     LIBCMT:ctype.obj
 0003:000021e8       __pwctype                  004d51e8     LIBCMT:ctype.obj
 0003:000021f0       ___lc_time_c               004d51f0     LIBCMT:strftime.obj
 0003:000022a8       ___lc_time_curr            004d52a8     LIBCMT:strftime.obj
 0003:000022ac       ___lconv_static_decimal    004d52ac     LIBCMT:lconv.obj
 0003:000022b0       ___lconv_c                 004d52b0     LIBCMT:lconv.obj
 0003:000022e0       ___lconv                   004d52e0     LIBCMT:lconv.obj
 0003:000022e4       ___mb_cur_max              004d52e4     LIBCMT:nlsdata1.obj
 0003:000022e8       ___decimal_point           004d52e8     LIBCMT:nlsdata1.obj
 0003:000022ec       ___decimal_point_length    004d52ec     LIBCMT:nlsdata1.obj
 0003:000022f0       __coninpfh                 004d52f0     LIBCMT:initcon.obj
 0003:000022f4       __confh                    004d52f4     LIBCMT:initcon.obj
 0003:000022f8       __timezone                 004d52f8     LIBCMT:timeset.obj
 0003:000022fc       __daylight                 004d52fc     LIBCMT:timeset.obj
 0003:00002300       __dstbias                  004d5300     LIBCMT:timeset.obj
 0003:00002388       __tzname                   004d5388     LIBCMT:timeset.obj
 0003:000023b0       __lpdays                   004d53b0     LIBCMT:days.obj
 0003:000023e4       __days                     004d53e4     LIBCMT:days.obj
 0003:00002420       ?reg_offset@@3PAIA         004d5420     z80:op_ddcb.obj
 0003:00002440       ?asm_tab_z80@@3PAEA        004d5440     z80asm.obj
 0003:000027cb       ?SkipZeroes@@3_NA          004d57cb     vs1001.obj
 0003:000027cc       ?z80r16_1@@3PADA           004d57cc     z80asm.obj
 0003:000027d8       ?z80r16_2@@3PADA           004d57d8     z80asm.obj
 0003:000027e4       ?z80r16_3@@3PADA           004d57e4     z80asm.obj
 0003:000027f0       ?z80r8_1@@3PADA            004d57f0     z80asm.obj
 0003:00002815       ?trace_rom@@3EA            004d5815     vars.obj
 0003:00002816       ?trace_ram@@3EA            004d5816     vars.obj
 0003:00002817       ?r21@@3EA                  004d5817     fntsrch.obj
 0003:00002818       ?z80r8_2@@3PADA            004d5818     z80asm.obj
 0003:0000283d       ?r30@@3EA                  004d583d     fntsrch.obj
 0003:0000283e       ?r41@@3EA                  004d583e     fntsrch.obj
 0003:0000283f       ?r61@@3EA                  004d583f     fntsrch.obj
 0003:00002840       ?z80r8_3@@3PADA            004d5840     z80asm.obj
 0003:00002865       ?r80@@3EA                  004d5865     fntsrch.obj
 0003:00002866       ?rae@@3EA                  004d5866     fntsrch.obj
 0003:00002867       ?right@@3EA                004d5867     fntsrch.obj
 0003:00002868       ?cbtab@@3PADA              004d5868     z80asm.obj
 0003:00002949       ?x100@@3EA                 004d5949     fntsrch.obj
 0003:0000294a       ?fixmode@@3EA              004d594a     emulkeys.obj
 0003:0000294c       ?zjr@@3PADA                004d594c     z80asm.obj
 0003:00002984       ?fmsoundon0@@3HA           004d5984     vars.obj
 0003:00002988       ?zop@@3PADA                004d5988     z80asm.obj
 0003:000029cc       ?zf@@3PADA                 004d59cc     z80asm.obj
 0003:000029e8       ?d_code@@3PAEA             004d59e8     wldr_td0.obj
 0003:00002ae8       ?d_len@@3PAEA              004d5ae8     wldr_td0.obj
 0003:00002de8       ?Procs@TVs1001@@0UBASS_FILEPROCS@@A 004d5de8     vs1001.obj
 0003:00002df8       ?tfmstatuson0@@3HA         004d5df8     vars.obj
 0003:00002dfc       ?Cpus@TCpuMgr@@0PAPAUZ80@@A 004d5dfc     vars.obj
 0003:00002e04       ?DefaultDrive@@3IA         004d5e04     vars.obj
 0003:00002e08       ?pckeys@@3PAUvirtkeyt@@A   004d5e08     vars.obj
 0003:000034b4       ?zxk_maps@@3PAUzxkeymap@@A 004d64b4     vars.obj
 0003:000037b4       ?setptr@@3PADA             004d67b4     vars.obj
 0003:00003ba8       ?gdibmp@@3UGDIBMP@@A       004d6ba8     vars.obj
 0003:00003fd4       ?VideoSaver@@3P6AXXZA      004d6fd4     snapshot.obj
 0003:00003fd8       ?pals@@3PAUPALETTE_OPTIONS@@A 004d6fd8     vars.obj
 0003:00004bd8       ?wavhdr@@3PAEA             004d7bd8     savesnd.obj
 0003:00004c08       ?ac_main@@3PAUaction@@A    004d7c08     keydefs.obj
 0003:00004f38       ?ac_main_xt@@3PAUaction@@A 004d7f38     keydefs.obj
 0003:00004f58       ?ac_regs@@3PAUaction@@A    004d7f58     keydefs.obj
 0003:00005458       ?ac_trace@@3PAUaction@@A   004d8458     keydefs.obj
 0003:000059b8       ?ac_mem@@3PAUaction@@A     004d89b8     keydefs.obj
 0003:00005e58       ?pastekeys@@3PAEA          004d8e58     input.obj
 0003:00005eb8       ?ruspastekeys@@3PAEA       004d8eb8     input.obj
 0003:00005f40       ?gsbankr@z80gs@@3PAPAEA    004d8f40     gsz80.obj
 0003:00005f50       ?gsbankw@z80gs@@3PAPAEA    004d8f50     gsz80.obj
 0003:00005f60       ?fontatm2@@3PAEA           004d8f60     fontatm2.obj
 0003:00006760       ?font_maxmem@@3IA          004d9760     fntsrch.obj
 0003:00006764       ?fontsize@@3IA             004d9764     fntsrch.obj
 0003:00006768       ?fix_titles@@3PAPBDA       004d9768     emulkeys.obj
 0003:0000677c       ?mul0@@3HA                 004d977c     emulkeys.obj
 0003:00006780       ?mul1@@3HA                 004d9780     emulkeys.obj
 0003:00006784       ?fontdata@@3PBEB           004d9784     dxr_text.obj
 0003:00006798       ?colorkey@@3KA             004d9798     dxovr.obj
 0003:0000679c       ?dsbuffer@@3IA             004d979c     dx.obj
 0003:000067a0       ?renders@@3PAURENDER@@A    004d97a0     dx.obj
 0003:000068a0       ?renders_count@@3IA        004d98a0     dx.obj
 0003:000068a4       ?mousedirs@@3PAEA          004d98a4     dx.obj
 0003:000068b0       ?user_watches@@3PAIA       004d98b0     debug.obj
 0003:000068bc       ?mem_sz@@3IA               004d98bc     debug.obj
 0003:000068c0       ?activedbg@@3W4DBGWND@@A   004d98c0     debug.obj
 0003:000068c4       ?save_pos@@3PAIA           004d98c4     dbgtrace.obj
 0003:000068e4       ?save_cur@@3PAIA           004d98e4     dbgtrace.obj
 0003:00006904       ?end@@3IA                  004d9904     dbgrwdlg.obj
 0003:00006908       ?stack_pos@@3PAIA          004d9908     dbgtrace.obj
 0003:00006988       ?stack_cur@@3PAIA          004d9988     dbgtrace.obj
 0003:00006a08       ?trdname@@3PADA            004d9a08     dbgrwdlg.obj
 0003:00006a14       ?trdext@@3PADA             004d9a14     dbgrwdlg.obj
 0003:00006a18       ?frametime@@3IA            004d9a18     emul.obj
 0003:00006a1c       ?CheatDlg@@3UCHEATDLG@@A   004d9a1c     cheat.obj
 0003:00006a40       ?edited_track@@3UTRKCACHE@@A 004d9a40     dbgmem.obj
 0003:00008264       ?save_buf@@3QAEA           004db264     draw.obj
 0003:00008268       ?SdCard@@3VTSdCard@@A      004db268     sdcard.obj
 0003:000084b8       ?cpu@@3VTMainZ80@@A        004db4b8     vars.obj
 0003:0000a628       ?gscpu@@3VTGsZ80@@A        004dd628     vars.obj
 0003:0000c798       ?hdd@@3UATA_PORT@@A        004df798     vars.obj
 0003:0002cbf0       ?input@@3UK_INPUT@@A       004ffbf0     vars.obj
 0003:0002cc70       ?Zc@@3VTZc@@A              004ffc70     zc.obj
 0003:0002d434       ?eff7@?1??switch_video@@YAXXZ@4EA 00500434     dx.obj
 0003:0002e230       __fltused                  00501230     LIBCMT:_fpinit_.obj
 0003:0002e234       __ldused                   00501234     LIBCMT:_fpinit_.obj
 0003:0002e240       __half                     00501240     LIBCMT:_pow_.obj
 0003:0002e290       __infinity                 00501290     LIBCMT:_87tran_.obj
 0003:0002e29a       __minfinity                0050129a     LIBCMT:_87tran_.obj
 0003:0002e2a4       __logemax                  005012a4     LIBCMT:_87tran_.obj
 0003:0002e2ca       __OP_EXPjmptab             005012ca     LIBCMT:_87tran_.obj
 0003:0002e2f0       __indefinite               005012f0     LIBCMT:_87disp_.obj
 0003:0002e2fa       __piby2                    005012fa     LIBCMT:_87disp_.obj
 0003:0002e490       __d_inf                    00501490     LIBCMT:_util_.obj
 0003:0002e498       __d_ind                    00501498     LIBCMT:_util_.obj
 0003:0002e4a0       __d_max                    005014a0     LIBCMT:_util_.obj
 0003:0002e4a8       __d_min                    005014a8     LIBCMT:_util_.obj
 0003:0002e4b0       __d_mzero                  005014b0     LIBCMT:_util_.obj
 0003:0002e4b8       __matherr_flag             005014b8     LIBCMT:_matherr_.obj
 0003:0002e5f8       __pow10pos                 005015f8     LIBCMT:_constpow_.obj
 0003:0002e758       __pow10neg                 00501758     LIBCMT:_constpow_.obj
 0003:0002f004       __cflush                   00502004     LIBCMT:_file.obj
 0003:0002f008       __umaskval                 00502008     LIBCMT:crt0dat.obj
 0003:0002f00c       ___argc                    0050200c     LIBCMT:crt0dat.obj
 0003:0002f010       ___argv                    00502010     LIBCMT:crt0dat.obj
 0003:0002f014       ___wargv                   00502014     LIBCMT:crt0dat.obj
 0003:0002f018       __environ                  00502018     LIBCMT:crt0dat.obj
 0003:0002f01c       ___initenv                 0050201c     LIBCMT:crt0dat.obj
 0003:0002f020       __wenviron                 00502020     LIBCMT:crt0dat.obj
 0003:0002f024       ___winitenv                00502024     LIBCMT:crt0dat.obj
 0003:0002f028       __pgmptr                   00502028     LIBCMT:crt0dat.obj
 0003:0002f02c       __wpgmptr                  0050202c     LIBCMT:crt0dat.obj
 0003:0002f030       __exitflag                 00502030     LIBCMT:crt0dat.obj
 0003:0002f034       __C_Termination_Done       00502034     LIBCMT:crt0dat.obj
 0003:0002f038       __C_Exit_Done              00502038     LIBCMT:crt0dat.obj
 0003:0002f03c       __aenvptr                  0050203c     LIBCMT:crt0.obj
 0003:0002f040       __wenvptr                  00502040     LIBCMT:crt0.obj
 0003:0002f044       ___error_mode              00502044     LIBCMT:crt0.obj
 0003:0002f36c       __stdbuf                   0050236c     LIBCMT:_sftbuf.obj
 0003:0002f374       ___pInvalidArgHandler      00502374     LIBCMT:invarg.obj
 0003:0002f3a0       _gpFlsAlloc                005023a0     LIBCMT:tidtable.obj
 0003:0002f3a4       _gpFlsGetValue             005023a4     LIBCMT:tidtable.obj
 0003:0002f3a8       _gpFlsSetValue             005023a8     LIBCMT:tidtable.obj
 0003:0002f3ac       _gpFlsFree                 005023ac     LIBCMT:tidtable.obj
 0003:0002f3b0       __maxwait                  005023b0     LIBCMT:crtheap.obj
 0003:0002f3b4       __crtheap                  005023b4     LIBCMT:heapinit.obj
 0003:0002f508       ___sbh_pHeaderDefer        00502508     LIBCMT:sbheap.obj
 0003:0002f50c       ?_pnhHeap@@3P6AHI@ZA       0050250c     LIBCMT:handler.obj
 0003:0002f510       __newmode                  00502510     LIBCMT:_newmode.obj
 0003:0002f518       ___mbulinfo                00502518     LIBCMT:mbctype.obj
 0003:0002f524       ___mbcodepage              00502524     LIBCMT:mbctype.obj
 0003:0002f528       ___ismbcodepage            00502528     LIBCMT:mbctype.obj
 0003:0002f52c       ___mblcid                  0050252c     LIBCMT:mbctype.obj
 0003:0002f530       ___locale_changed          00502530     LIBCMT:setlocal.obj
 0003:0002f534       ___lc_handle               00502534     LIBCMT:nlsdata2.obj
 0003:0002f54c       ___lc_codepage             0050254c     LIBCMT:nlsdata2.obj
 0003:0002f550       ___lc_collate_cp           00502550     LIBCMT:nlsdata2.obj
 0003:0002f86c       ?__pInconsistency@@3P6AXXZA 0050286c     LIBCMT:hooks.obj
 0003:0002f87c       ___pPurecall               0050287c     LIBCMT:inithelp.obj
 0003:0002f994       __commode                  00502994     LIBCMT:ncommode.obj
 0003:0002f99c       ___lconv_static_null       0050299c     LIBCMT:lconv.obj
 0003:0002fa70       __fmode                    00502a70     LIBCMT:txtmode.obj
 0003:00030000       ___@@_PchSym_@00@UacUkilqvxghUfhhixUhgwOlyq@ 00503000     std.obj
 0003:00030004       ?load_errors@@3DA          00503004     config.obj
 0003:00030005       ?dgb_extval@@3EA           00503005     debug.obj
 0003:00030006       ?mem_dump@@3EA             00503006     debug.obj
 0003:00030007       ?mem_ascii@@3EA            00503007     debug.obj
 0003:00030008       ?calcerr@@3IA              00503008     dbgbpx.obj
 0003:0003000c       ?lcount@@3IA               0050300c     dbglabls.obj
 0003:00030010       ?curlabel@@3PADA           00503010     dbglabls.obj
 0003:00030050       ?sector@@3IA               00503050     dbgmem.obj
 0003:00030054       ?sector_offset@@3IA        00503054     dbgmem.obj
 0003:00030058       ?str@@3PADA                00503058     dbgpaint.obj
 0003:000300d8       ?nfr@@3IA                  005030d8     dbgpaint.obj
 0003:000300dc       ?rw_side@@3IA              005030dc     dbgrwdlg.obj
 0003:00030144       ?rw_rsec@@3IA              00503144     dbgrwdlg.obj
 0003:00030148       ?txtscr@@3PAEA             00503148     dbgpaint.obj
 0003:00031408       ?rw_tsec@@3IA              00504408     dbgrwdlg.obj
 0003:0003140c       ?rw_cyl@@3IA               0050440c     dbgrwdlg.obj
 0003:00031410       ?rw_trk@@3IA               00504410     dbgrwdlg.obj
 0003:00031414       ?rw_drive@@3IA             00504414     dbgrwdlg.obj
 0003:00031418       ?memdata@@3PAEA            00504418     dbgrwdlg.obj
 0003:0003141c       ?dumppc@@3PADA             0050441c     dbgtrace.obj
 0003:00031428       ?asmpc@@3PADA              00504428     dbgtrace.obj
 0003:00031468       ?asmii@@3IA                00504468     dbgtrace.obj
 0003:0003146c       ?trcurs_y@@3IA             0050446c     dbgtrace.obj
 0003:00031470       ?ripper@@3IA               00504470     debug.obj
 0003:00031474       ?dbg_extport@@3IA          00504474     debug.obj
 0003:00031478       ?regs_curs@@3IA            00504478     debug.obj
 0003:0003147c       ?mem_max@@3IA              0050447c     debug.obj
 0003:00031480       ?mem_track@@3IA            00504480     debug.obj
 0003:00031484       ?mem_disk@@3IA             00504484     debug.obj
 0003:00031488       ?show_scrshot@@3IA         00504488     debug.obj
 0003:0003148c       ?trace_labels@@3EA         0050448c     debug.obj
 0003:0003148d       ?ngs_dmamod@z80gs@@3EA     0050448d     gsz80.obj
 0003:0003148e       ?SdRdValNew@z80gs@@3EA     0050448e     gsz80.obj
 0003:0003148f       ?SdRdVal@z80gs@@3EA        0050448f     gsz80.obj
 0003:00031490       ?AtmVideoCtrl@@3UAtmVideoController@@A 00504490     draw.obj
 0003:00031c9c       ?atrtab@@3PAIA             00504c9c     draw.obj
 0003:00031ca0       ?pal0@@3PAUtagPALETTEENTRY@@A 00504ca0     draw.obj
 0003:000320a0       ?colortab_s24@@3PAIA       005050a0     draw.obj
 0003:000324a0       ?colortab_s8@@3PAIA        005054a0     draw.obj
 0003:000328a0       ?colortab@@3PAEA           005058a0     draw.obj
 0003:000329a0       ?prev_t@@3IA               005059a0     draw.obj
 0003:000329a4       ?vmode@@3IA                005059a4     draw.obj
 0003:000329a8       ?video@@3PAUvideopoint@@A  005059a8     draw.obj
 0003:000375a8       ?vcurr@@3PAUvideopoint@@A  0050a5a8     draw.obj
 0003:000375ac       ?max_modes@@3IA            0050a5ac     dx.obj
 0003:000375b0       ?maxgap@@3HA               0050a5b0     dx.obj
 0003:000375b4       ?wqtail@@3IA               0050a5b4     dx.obj
 0003:000375b8       ?wqhead@@3IA               0050a5b8     dx.obj
 0003:000375bc       ?dsoffset@@3IA             0050a5bc     dx.obj
 0003:000375c0       ?t@@3UT@@A                 0050a5c0     draw.obj
 0003:000c27c0       ?rbuf@@3PAEA               005957c0     draw.obj
 0003:001217c0       ?modes@@3PAUMODEPARAM@@A   005f47c0     dx.obj
 0003:001237c0       ?crs@@3PAPAUHICON__@@A     005f67c0     dx.obj
 0003:001237e4       ?clip@@3PAUIDirectDrawClipper@@A 005f67e4     dx.obj
 0003:001237e8       ?wbuffer@@3PAEA            005f67e8     dx.obj
 0003:00161fe8       ?wq@@3PAUwavehdr_tag@@A    00634fe8     dx.obj
 0003:001623e8       ?pal@@3PAUIDirectDrawPalette@@A 006353e8     dx.obj
 0003:001623ec       ?dsbf@@3PAUIDirectSoundBuffer@@A 006353ec     dx.obj
 0003:001623f0       ?ds@@3PAUIDirectSound@@A   006353f0     dx.obj
 0003:001623f4       ?dijoyst@@3PAUIDirectInputDevice2A@@A 006353f4     dx.obj
 0003:001623f8       ?dimouse@@3PAUIDirectInputDeviceA@@A 006353f8     dx.obj
 0003:001623fc       ?dikeyboard@@3PAUIDirectInputDeviceA@@A 006353fc     dx.obj
 0003:00162400       ?surf1@@3PAUIDirectDrawSurface@@A 00635400     dx.obj
 0003:00162404       ?surf0@@3PAUIDirectDrawSurface@@A 00635404     dx.obj
 0003:00162408       ?sprim@@3PAUIDirectDrawSurface@@A 00635408     dx.obj
 0003:0016240c       ?dd@@3PAUIDirectDraw2@@A   0063540c     dx.obj
 0003:00166180       ?pattern@@3PAY07EA         00639180     fntsrch.obj
 0003:001661e0       ?font_base@@3PAEA          006391e0     fntsrch.obj
 0003:001661e4       ?font_address@@3IA         006391e4     fntsrch.obj
 0003:001661e8       ?fontdata2@@3PAEA          006391e8     fntsrch.obj
 0003:001673e8       ?rmask@@3PAEA              0063a3e8     fntsrch.obj
 0003:001674e8       ?gsleds@@3PAUTGsLed@@A     0063a4e8     gs.obj
 0003:00167528       ?gs_vfx@@3PAIA             0063a528     gs.obj
 0003:00167630       ?ngs_s_stat@z80gs@@3EA     0063a630     gsz80.obj
 0003:00167631       ?ngs_s_ctrl@z80gs@@3EA     0063a631     gsz80.obj
 0003:00167632       ?ngs_cfg0@z80gs@@3EA       0063a632     gsz80.obj
 0003:00167633       ?ngs_mode_pg1@z80gs@@3EA   0063a633     gsz80.obj
 0003:00167634       ?gsstat@z80gs@@3EA         0063a634     gsz80.obj
 0003:00167635       ?gscmd@z80gs@@3EA          0063a635     gsz80.obj
 0003:00167636       ?gsdata_out@z80gs@@3EA     0063a636     gsz80.obj
 0003:00167637       ?gsdata_in@z80gs@@3EA      0063a637     gsz80.obj
 0003:00167638       ?mult_gs2@z80gs@@3_KA      0063a638     gsz80.obj
 0003:00167640       ?mult_gs@z80gs@@3_KA       0063a640     gsz80.obj
 0003:00167648       ?led_gscnt@z80gs@@3PAIA    0063a648     gsz80.obj
 0003:00167658       ?led_gssum@z80gs@@3PAIA    0063a658     gsz80.obj
 0003:00167668       ?gsbyte@z80gs@@3PAEA       0063a668     gsz80.obj
 0003:0016766c       ?gsvol@z80gs@@3PAEA        0063a66c     gsz80.obj
 0003:00167670       ?gs_v@z80gs@@3PAIA         0063a670     gsz80.obj
 0003:00167680       ?gscpu_t_at_frame_start@z80gs@@3_KA 0063a680     gsz80.obj
 0003:00167688       ?gs_t_states@z80gs@@3_KA   0063a688     gsz80.obj
 0003:00167690       ?rset_list@@3PADA          0063a690     gui.obj
 0003:00167e90       ?lastpage@@3PBDB           0063ae90     gui.obj
 0003:00167e94       ?hASPICompletionEvent@@3PAXA 0063ae94     hddio.obj
 0003:00167e98       ?c1@@3UCONFIG@@A           0063ae98     gui.obj
 0003:00169784       ?hndKbdDev@@3PAXA          0063c784     leds.obj
 0003:00169788       ?phys@@3PAUPHYS_DEVICE@@A  0063c788     hdd.obj
 0003:001729c8       ?p_fps@@3NA                006459c8     leds.obj
 0003:001729e0       ?aypos@@3PAEA              006459e0     leds.obj
 0003:001729e4       ?pitch@@3IA                006459e4     leds.obj
 0003:001729e8       ?FilePreviewInfo@@3UFILEPREVIEWINFO@@A 006459e8     opendlg.obj
 0003:00172a00       ?vtxcomm@@3PADA            00645a00     savesnd.obj
 0003:00172ac8       ?vtxtracker@@3PADA         00645ac8     savesnd.obj
 0003:00172b90       ?vtxsoft@@3PADA            00645b90     savesnd.obj
 0003:00172c58       ?vtxauthor@@3PADA          00645c58     savesnd.obj
 0003:00172d20       ?vtxname@@3PADA            00645d20     savesnd.obj
 0003:00172de8       ?vtxchip@@3IA              00645de8     savesnd.obj
 0003:00172dec       ?vtxyear@@3IA              00645dec     savesnd.obj
 0003:00172e00       ?snp@@3HA                  00645e00     snapshot.obj
 0003:00172e04       ?snaps@@3PAEA              00645e04     snapshot.obj
 0003:00172e1d       ?brk_port_val@@3EA         00645e1d     vars.obj
 0003:00172e1e       ?needclr@@3EA              00645e1e     vars.obj
 0003:00172e1f       ?trdos_seek@@3EA           00645e1f     vars.obj
 0003:00172e20       ?drvs@@3PAIA               00645e20     snapshot.obj
 0003:00172e84       ?arc_fname@@3PADA          00645e84     snapshot.obj
 0003:00172e88       ?exts@@3PAIA               00645e88     snapshot.obj
 0003:00172eec       ?StreamFree@BASS@@3P6GHK@ZA 00645eec     snd_bass.obj
 0003:00172ef0       ?StreamCreateFileUser@BASS@@3P6GKKKPBUBASS_FILEPROCS@@PAX@ZA 00645ef0     snd_bass.obj
 0003:00172ef4       ?StreamCreate@BASS@@3P6GKKKKP6GKKPAXK0@Z0@ZA 00645ef4     snd_bass.obj
 0003:00172ef8       ?ChannelIsActive@BASS@@3P6GKK@ZA 00645ef8     snd_bass.obj
 0003:00172efc       ?ChannelBytes2Seconds@BASS@@3P6GNK_K@ZA 00645efc     snd_bass.obj
 0003:00172f00       ?ChannelFlags@BASS@@3P6GHKKK@ZA 00645f00     snd_bass.obj
 0003:00172f04       ?ErrorGetCode@BASS@@3P6GHXZA 00645f04     snd_bass.obj
 0003:00172f08       ?ChannelGetLevel@BASS@@3P6GKK@ZA 00645f08     snd_bass.obj
 0003:00172f0c       ?ChannelSetAttribute@BASS@@3P6GHKKM@ZA 00645f0c     snd_bass.obj
 0003:00172f10       ?ChannelSetPosition@BASS@@3P6GHK_KK@ZA 00645f10     snd_bass.obj
 0003:00172f14       ?ChannelGetPosition@BASS@@3P6G_KKK@ZA 00645f14     snd_bass.obj
 0003:00172f18       ?ChannelStop@BASS@@3P6GHK@ZA 00645f18     snd_bass.obj
 0003:00172f1c       ?ChannelPlay@BASS@@3P6GHKH@ZA 00645f1c     snd_bass.obj
 0003:00172f20       ?ChannelPause@BASS@@3P6GHK@ZA 00645f20     snd_bass.obj
 0003:00172f24       ?MusicLoad@BASS@@3P6GKHPAX_KKKK@ZA 00645f24     snd_bass.obj
 0003:00172f28       ?MusicFree@BASS@@3P6GHK@ZA 00645f28     snd_bass.obj
 0003:00172f2c       ?GetInfo@BASS@@3P6GHPAUBASS_INFO@@@ZA 00645f2c     snd_bass.obj
 0003:00172f30       ?SetConfig@BASS@@3P6GHKK@ZA 00645f30     snd_bass.obj
 0003:00172f34       ?GetConfig@BASS@@3P6GKK@ZA 00645f34     snd_bass.obj
 0003:00172f38       ?Stop@BASS@@3P6GHXZA       00645f38     snd_bass.obj
 0003:00172f3c       ?Start@BASS@@3P6GHXZA      00645f3c     snd_bass.obj
 0003:00172f40       ?Pause@BASS@@3P6GHXZA      00645f40     snd_bass.obj
 0003:00172f44       ?Free@BASS@@3P6GHXZA       00645f44     snd_bass.obj
 0003:00172f48       ?Init@BASS@@3P6GHHKKPAUHWND__@@PAU_GUID@@@ZA 00645f48     snd_bass.obj
 0003:00172f4c       ?GetVersion@BASS@@3P6GKXZA 00645f4c     snd_bass.obj
 0003:00172f50       ?appendable@@3IA           00645f50     tape.obj
 0003:00172f54       ?tape_infosize@@3IA        00645f54     tape.obj
 0003:00172f58       ?tapeinfo@@3PAUTAPEINFO@@A 00645f58     tape.obj
 0003:00172f5c       ?num_ula@@3IA              00645f5c     vars.obj
 0003:00172f60       ?tape_pulse@@3PAIA         00645f60     tape.obj
 0003:00173360       ?presetbuf@@3PADA          00646360     vars.obj
 0003:00177360       ?ulapreset@@3PAPADA        0064a360     vars.obj
 0003:00177460       ?num_aystereo@@3IA         0064a460     vars.obj
 0003:00177464       ?num_ayvols@@3IA           0064a464     vars.obj
 0003:00177468       ?aystereo@@3PAPADA         0064a468     vars.obj
 0003:00177568       ?ayvols@@3PAPADA           0064a568     vars.obj
 0003:00177668       ?nowait@@3IA               0064a668     vars.obj
 0003:0017766c       ?mousepos@@3KA             0064a66c     vars.obj
 0003:00177670       ?bm_dy@@3KA                0064a670     vars.obj
 0003:00177674       ?bm_dx@@3KA                0064a674     vars.obj
 0003:00177678       ?hbm@@3PAUHBITMAP__@@A     0064a678     vars.obj
 0003:0017767c       ?dlg@@3PAUHWND__@@A        0064a67c     vars.obj
 0003:00177680       ?WinVerMinor@@3KA          0064a680     vars.obj
 0003:00177684       ?WinVerMajor@@3KA          0064a684     vars.obj
 0003:00177688       ?used_banks@@3PAEA         0064a688     vars.obj
 0003:001778eb       ?trdos_format@@3EA         0064a8eb     vars.obj
 0003:001778ec       ?watch_enabled@@3PAEA      0064a8ec     vars.obj
 0003:001778f0       ?watch_script@@3PAY0EA@IA  0064a8f0     vars.obj
 0003:00177cf0       ?gdibuf@@3PAEA             0064acf0     vars.obj
 0003:00377cf0       ?snbuf@@3PAEA              0084acf0     vars.obj
 0003:00577cf0       ?syspalette@@3PAUtagPALETTEENTRY@@A 00a4acf0     vars.obj
 0003:005780f0       ?brk_port_out@@3IA         00a4b0f0     vars.obj
 0003:005780f4       ?brk_port_in@@3IA          00a4b0f4     vars.obj
 0003:005780f8       ?snapsize@@3IA             00a4b0f8     vars.obj
 0003:005780fc       ?trd_loaded@@3PADA         00a4b0fc     vars.obj
 0003:00578100       ?helpname@@3PADA           00a4b100     vars.obj
 0003:00578300       ?ininame@@3PADA            00a4b300     vars.obj
 0003:00578500       ?skiparc@@3PADA            00a4b500     vars.obj
 0003:00578900       ?arcbuffer@@3PADA          00a4b900     vars.obj
 0003:0057a900       ?statcnt@@3IA              00a4d900     vars.obj
 0003:0057a904       ?hIn@@3PAUHINSTANCE__@@A   00a4d904     vars.obj
 0003:0057a908       ?statusline@@3PADA         00a4d908     vars.obj
 0003:0057a988       ?inports@@3PAUkeyports@@A  00a4d988     vars.obj
 0003:0057b7a4       ?kbdpcEX@@3PAEA            00a4e7a4     vars.obj
 0003:0057b7aa       ?trdos_save@@3EA           00a4e7aa     vars.obj
 0003:0057b7ab       ?trdos_load@@3EA           00a4e7ab     vars.obj
 0003:0057b7ac       ?wnd@@3PAUHWND__@@A        00a4e7ac     vars.obj
 0003:0057b7b0       ?kbdpc@@3PAEA              00a4e7b0     vars.obj
 0003:0057b8dd       ?savesndtype@@3EA          00a4e8dd     vars.obj
 0003:0057b8de       ?CpuMgr@@3VTCpuMgr@@A      00a4e8de     vars.obj
 0003:0057b8df       ?getlen@@3EA               00a4e8df     wldr_td0.obj
 0003:0057b8e0       ?droppedFile@@3PADA        00a4e8e0     vars.obj
 0003:0057bae0       ?vtxbuffilled@@3IA         00a4eae0     vars.obj
 0003:0057bae4       ?vtxbufsize@@3IA           00a4eae4     vars.obj
 0003:0057bae8       ?vtxbuf@@3PAEA             00a4eae8     vars.obj
 0003:0057baec       ?savesnd@@3PAU_iobuf@@A    00a4eaec     vars.obj
 0003:0057baf0       ?spbsize@@3IA              00a4eaf0     vars.obj
 0003:0057baf4       ?base_sys_rom@@3PAEA       00a4eaf4     vars.obj
 0003:0057baf8       ?sndplaybuf@@3PAIA         00a4eaf8     vars.obj
 0003:0058baf8       ?nvram@@3PAEA              00a5eaf8     vars.obj
 0003:0058c2f8       ?cmos@@3PAEA               00a5f2f8     vars.obj
 0003:0058c3f8       ?bankw@@3PAPAEA            00a5f3f8     vars.obj
 0003:0058c408       ?base_128_rom@@3PAEA       00a5f408     vars.obj
 0003:0058c40c       ?base_dos_rom@@3PAEA       00a5f40c     vars.obj
 0003:0058c410       ?base_sos_rom@@3PAEA       00a5f410     vars.obj
 0003:0058c414       ?bankr@@3PAPAEA            00a5f414     vars.obj
 0003:0058c424       ?getbuf@@3IA               00a5f424     wldr_td0.obj
 0003:0058c428       ?modem@@3UISA_MODEM@@A     00a5f428     vars.obj
 0003:0058cc48       ?PrevCpus@TCpuMgr@@0PAUTZ80State@@A 00a5fc48     vars.obj
 0003:0058cce0       ?r@@3HA                    00a5fce0     wldr_td0.obj
 0003:0058cce4       ?packed_end@@3PAEA         00a5fce4     wldr_td0.obj
 0003:0058cce8       ?text_buf@@3PAEA           00a5fce8     wldr_td0.obj
 0003:0058dd23       ?z80p@@3EA                 00a60d23     z80asm.obj
 0003:0058dd24       ?packed_ptr@@3PAEA         00a60d24     wldr_td0.obj
 0003:0058dd28       ?a_command@@3PAEA          00a60d28     z80asm.obj
 0003:0058dd68       ?asmresult@@3PAEA          00a60d68     z80asm.obj
 0003:0058dd80       ?cmdb@@3PAEA               00a60d80     z80asm.obj
 0003:0058dd90       ?asmbuf@@3PADA             00a60d90     z80asm.obj
 0003:0058e000       ?memory@@3PAEA             00a61000     vars.obj
 0003:00f1a000       ?temp@@3UTEMP@@A           013ed000     vars.obj
 0003:00f1a7f8       ?gs@@3UGSHLE@@A            013ed7f8     vars.obj
 0003:00f1b1c8       ?membits@z80gs@@3PAEA      013ee1c8     vars.obj
 0003:00f2b1c8       ?membits@@3PAEA            013fe1c8     vars.obj
 0003:00f3b1c8       ?conf@@3UCONFIG@@A         0140e1c8     vars.obj
 0003:00f3cab8       ?son@@3PAFA                0140fab8     wldr_td0.obj
 0003:00f3cfa0       ?prnt@@3PAFA               0140ffa0     wldr_td0.obj
 0003:00f3d700       ?freq@@3PAGA               01410700     wldr_td0.obj
 0003:00f3dbe8       ?sndbuf@@3PAIA             01410be8     snd:sndbuffer.obj
 0003:00f4dbe8       ?log_f@@3PAEA              01420be8     z80:tables.obj
 0003:00f4dce8       ?cpf@@3PAEA                01420ce8     z80:tables.obj
 0003:00f5dce8       ?rrcaf@@3PAEA              01430ce8     z80:tables.obj
 0003:00f5dde8       ?ror@@3PAEA                01430de8     z80:tables.obj
 0003:00f5dee8       ?cpf8b@@3PAEA              01430ee8     z80:tables.obj
 0003:00f6dee8       ?sbcf@@3PAEA               01440ee8     z80:tables.obj
 0003:00f8dee8       ?rol@@3PAEA                01460ee8     z80:tables.obj
 0003:00f8dfe8       ?adcf@@3PAEA               01460fe8     z80:tables.obj
 0003:00fadfe8       ?rlcaf@@3PAEA              01480fe8     z80:tables.obj
 0003:00fae0e8       ?nmi_pending@@3HA          014810e8     emul.obj
 0003:00fae0ed       ?editor@@3EA               014810ed     debug.obj
 0003:00fae0ee       ?active@@3EA               014810ee     dx.obj
 0003:00fae0ef       ?pause@@3EA                014810ef     dx.obj
 0003:00fae100       ?addr@@3IA                 01481100     dbgrwdlg.obj
 0003:00fae104       ?fname@@3PADA              01481104     dbgrwdlg.obj
 0003:00fae12c       ?hwo@@3PAUHWAVEOUT__@@A    0148112c     dx.obj
 0003:00fae130       ?auto_ch@@3P6IXPAEI@ZA     01481130     dxrendch.obj
 0003:00fae238       ?whatfix@@3EA              01481238     emulkeys.obj
 0003:00fae239       ?whatsnd@@3EA              01481239     emulkeys.obj
 0003:00fae23a       ?rf0@@3EA                  0148123a     fntsrch.obj
 0003:00fae23b       ?roth@@3EA                 0148123b     fntsrch.obj
 0003:00fae240       ?linear@@3EA               01481240     fntsrch.obj
 0003:00fae241       ?gspage@z80gs@@3EA         01481241     gsz80.obj
 0003:00fae242       ?SdDataAvail@z80gs@@3_NA   01481242     gsz80.obj
 0003:00fae243       ?dlgok@@3DA                01481243     gui.obj
 0003:00fae248       ?n_phys@@3HA               01481248     hdd.obj
 0003:00fae24c       ?_GetASPI32SupportInfo@@3P6AHXZA 0148124c     hddio.obj
 0003:00fae250       ?_SendASPI32Command@@3P6AHPAX@ZA 01481250     hddio.obj
 0003:00fae254       ?hAspiDll@@3PAUHINSTANCE__@@A 01481254     hddio.obj
 0003:00fae258       ?hMSHTML@@3PAUHINSTANCE__@@A 01481258     iehelp.obj
 0003:00fae25c       ?hURLMON@@3PAUHINSTANCE__@@A 0148125c     iehelp.obj
 0003:00fae260       ?ConvBgr24@@3P6AXPAE0H@ZA  01481260     snapshot.obj
 0003:00fae264       ?Bass@BASS@@3PAUHINSTANCE__@@A 01481264     snd_bass.obj
 0003:00fae268       ?spkr_dig@@3HA             01481268     sound.obj
 0003:00fae26c       ?mic_dig@@3HA              0148126c     sound.obj
 0003:00fae270       ?covFB_vol@@3HA            01481270     sound.obj
 0003:00fae274       ?covDD_vol@@3HA            01481274     sound.obj
 0003:00fae278       ?sd_l@@3HA                 01481278     sound.obj
 0003:00fae27c       ?sd_r@@3HA                 0148127c     sound.obj
 0003:00fae280       ?y_1@@3PAMA                01481280     sound.obj
 0003:00fae288       ?x_1@@3PAFA                01481288     sound.obj
 0003:00fae28c       ?png_error_p@@3P6AXPAUpng_struct_def@@PBD@ZA 0148128c     sshot_png.obj
 0003:00fae290       ?png_write_end_p@@3P6AXPAUpng_struct_def@@PAUpng_info_struct@@@ZA 01481290     sshot_png.obj
 0003:00fae294       ?png_write_image_p@@3P6AXPAUpng_struct_def@@PAPAE@ZA 01481294     sshot_png.obj
 0003:00fae298       ?png_set_bgr_p@@3P6AXPAUpng_struct_def@@@ZA 01481298     sshot_png.obj
 0003:00fae29c       ?png_write_info_p@@3P6AXPAUpng_struct_def@@PAUpng_info_struct@@@ZA 0148129c     sshot_png.obj
 0003:00fae2a0       ?png_set_IHDR_p@@3P6AXPAUpng_struct_def@@PAUpng_info_struct@@KKHHHHH@ZA 014812a0     sshot_png.obj
 0003:00fae2a4       ?png_set_write_fn_p@@3P6AXPAUpng_struct_def@@PAXP6AX0PAEI@ZP6AX0@Z@ZA 014812a4     sshot_png.obj
 0003:00fae2a8       ?png_destroy_write_struct_p@@3P6AXPAPAUpng_struct_def@@PAPAUpng_info_struct@@@ZA 014812a8     sshot_png.obj
 0003:00fae2ac       ?png_create_info_struct_p@@3P6APAUpng_info_struct@@PAUpng_struct_def@@@ZA 014812ac     sshot_png.obj
 0003:00fae2b0       ?png_set_compression_level_p@@3P6AXPAUpng_struct_def@@H@ZA 014812b0     sshot_png.obj
 0003:00fae2b4       ?png_create_write_struct_p@@3P6APAUpng_struct_def@@PBDPAXP6AXPAU1@0@Z3@ZA 014812b4     sshot_png.obj
 0003:00fae2b8       ?png_set_filter_p@@3P6AXPAUpng_struct_def@@HH@ZA 014812b8     sshot_png.obj
 0003:00fae2c8       ?max_pulses@@3IA           014812c8     tape.obj
 0003:00fae2cc       ?tape_err@@3IA             014812cc     tape.obj
 0003:00fae2d0       ?tape_image@@3PAEA         014812d0     tape.obj
 0003:00fae2d4       ?tape_imagesize@@3IA       014812d4     tape.obj
 0003:00fae2d8       ?pressedit@@3DA            014812d8     vars.obj
 0003:00fae2d9       ?dbgbreak@@3EA             014812d9     vars.obj
 0003:00fae2da       ?exitflag@@3EA             014812da     vars.obj
 0003:00fae2db       ?normal_exit@@3_NA         014812db     vars.obj
 0003:00fae2dc       ?CurrentCpu@TCpuMgr@@0IA   014812dc     vars.obj
 0003:00fae2e0       ?trd_toload@@3IA           014812e0     vars.obj
 0003:00fae2e8       ?mon_labels@@3UMON_LABELS@@A 014812e8     dbglabls.obj
 0003:00fae6d8       ?rsm@@3URSM_DATA@@A        014816d8     dxr_rsm.obj
 0003:00faef08       ?sound@z80gs@@3VSNDRENDER@@A 01481f08     vars.obj
 0003:00faef78       ?comp@@3UCOMPUTER@@A       01481f78     vars.obj
 0003:00fb8260       ?sound@@3VSNDRENDER@@A     0148b260     vars.obj
 0003:00fb82d0       ?ay@@3PAVSNDCHIP@@A        0148b2d0     vars.obj
 0003:00fb8b40       ?sndcounter@@3VSNDCOUNTER@@A 0148bb40     vars.obj
 0003:00fb8b48       ?Vs1001@@3VTVs1001@@A      0148bb48     vs1001.obj
 0003:00fb9bb8       ?Saa1099@@3VTSaa1099@@A    0148cbb8     snd:saa1099.obj
 0003:00fb9ff4       ___fastflag                0148cff4     LIBCMT:_fpinit_.obj
 0003:00fb9ff8       __adjust_fdiv              0148cff8     LIBCMT:_fpinit_.obj
 0003:00fba000       __outputformat             0148d000     LIBCMT:outputformat.obj
 0003:00fba004       __pmatherr                 0148d004     <common>
 0003:00fba008       ___use_sse2_mathfcns       0148d008     <common>
 0003:00fba00c       __debugger_hook_dummy      0148d00c     <common>
 0003:00fba010       ___sse2_available          0148d010     <common>
 0003:00fba014       __nhandle                  0148d014     <common>
 0003:00fba020       ___pioinfo                 0148d020     <common>
 0003:00fba120       ___setlc_active            0148d120     <common>
 0003:00fba124       ___unguarded_readlc_active 0148d124     <common>
 0003:00fba128       ___sbh_initialized         0148d128     <common>
 0003:00fba12c       ___sbh_cntHeaderList       0148d12c     <common>
 0003:00fba130       ___sbh_pHeaderList         0148d130     <common>
 0003:00fba134       ___sbh_threshold           0148d134     <common>
 0003:00fba138       ___sbh_pHeaderScan         0148d138     <common>
 0003:00fba13c       ___sbh_sizeHeaderList      0148d13c     <common>
 0003:00fba140       ___sbh_indGroupDefer       0148d140     <common>
 0003:00fba144       ___active_heap             0148d144     <common>
 0003:00fba148       __pDestructExceptionObject 0148d148     <common>
 0003:00fba14c       __acmdln                   0148d14c     <common>
 0003:00fba150       ___env_initialized         0148d150     <common>
 0003:00fba154       ___onexitend               0148d154     <common>
 0003:00fba158       ___onexitbegin             0148d158     <common>
 0003:00fba15c       ___mbctype_initialized     0148d15c     <common>
 0003:00fba160       ___dyn_tls_init_callback   0148d160     <common>
 0003:00fba164       ___piob                    0148d164     <common>
 0003:00fba180       __bufin                    0148d180     <common>
 0003:00fbb180       __nstream                  0148e180     <common>

 entry point at        0001:000112a9

 Static symbols

 0001:0000ce7d       _swprintf                  0040de7d f   LIBCMT:wassert.obj
 0001:0000d5ed       __onexit_nolock            0040e5ed f   LIBCMT:onexit.obj
 0001:0000d9d4       _vscan_fn                  0040e9d4 f   LIBCMT:sscanf.obj
 0001:0000f3c0       _swap                      004103c0 f   LIBCMT:qsort.obj
 0001:0000f3f0       _shortsort                 004103f0 f   LIBCMT:qsort.obj
 0001:00010624       _flsall                    00411624 f   LIBCMT:fflush.obj
 0001:000109bd       __initterm                 004119bd f   LIBCMT:crt0dat.obj
 0001:00010afb       _doexit                    00411afb f   LIBCMT:crt0dat.obj
 0001:00010eb3       __callthreadstartex        00411eb3 f   LIBCMT:threadex.obj
 0001:00010ef4       __threadstartex@4          00411ef4 f   LIBCMT:threadex.obj
 0001:000110e7       _fast_error_exit           004120e7 f   LIBCMT:crt0.obj
 0001:00011110       _check_managed_app         00412110 f   LIBCMT:crt0.obj
 0001:00011157       ___tmainCRTStartup         00412157 f   LIBCMT:crt0.obj
 0001:000114d1       _write_char                004124d1 f   LIBCMT:output.obj
 0001:00011504       _write_multi_char          00412504 f   LIBCMT:output.obj
 0001:0001152a       _write_string              0041252a f   LIBCMT:output.obj
 0001:00012490       _ValidateLocalCookies      00413490 f   LIBCMT:chandler4.obj
 0001:00012e6b       _ctrlevent_capture@4       00413e6b f   LIBCMT:winsig.obj
 0001:00012f06       _siglookup                 00413f06 f   LIBCMT:winsig.obj
 0001:000134b2       _xtow_s@20                 004144b2 f   LIBCMT:xtows.obj
 0001:00013615       @x64tow_s@24               00414615 f   LIBCMT:xtows.obj
 0001:00015a0b       ___check_float_string      00416a0b f   LIBCMT:input.obj
 0001:00015a74       __hextodec                 00416a74 f   LIBCMT:input.obj
 0001:00015a94       __inc                      00416a94 f   LIBCMT:input.obj
 0001:00015aaa       __un_inc                   00416aaa f   LIBCMT:input.obj
 0001:00015abd       __whiteout                 00416abd f   LIBCMT:input.obj
 0001:00016aa4       ___check_float_string      00417aa4 f   LIBCMT:inputs.obj
 0001:00016afb       __hextodec                 00417afb f   LIBCMT:inputs.obj
 0001:00016b1b       __inc                      00417b1b f   LIBCMT:inputs.obj
 0001:00016b31       __un_inc                   00417b31 f   LIBCMT:inputs.obj
 0001:00016b44       __whiteout                 00417b44 f   LIBCMT:inputs.obj
 0001:00018295       ?strtoxl@@YAKPAUlocaleinfo_struct@@PBDPAPBDHH@Z 00419295 f   LIBCMT:strtol.obj
 0001:00018555       ?strtoxq@@YA_KPAUlocaleinfo_struct@@PBDPAPBDHH@Z 00419555 f   LIBCMT:strtoq.obj
 0001:00018d10       __unwind_handler4          00419d10 f   LIBCMT:exsup4.obj
 0001:0001a1e9       ?CPtoLCID@@YAHH@Z          0041b1e9 f   LIBCMT:mbctype.obj
 0001:0001a218       ?setSBCS@@YAXPAUthreadmbcinfostruct@@@Z 0041b218 f   LIBCMT:mbctype.obj
 0001:0001a27c       ?setSBUpLow@@YAXPAUthreadmbcinfostruct@@@Z 0041b27c f   LIBCMT:mbctype.obj
 0001:0001a4b3       ?getSystemCP@@YAHH@Z       0041b4b3 f   LIBCMT:mbctype.obj
 0001:0001ab87       __copytlocinfo_nolock      0041bb87 f   LIBCMT:setlocal.obj
 0001:0001abad       __updatetlocinfoEx_nolock  0041bbad f   LIBCMT:setlocal.obj
 0001:0001accb       _sync_legacy_variables_lk  0041bccb f   LIBCMT:setlocal.obj
 0001:0001b078       __setlocale_get_all        0041c078 f   LIBCMT:setlocal.obj
 0001:0001b426       __setlocale_set_cat        0041c426 f   LIBCMT:setlocal.obj
 0001:0001b728       __setlocale_nolock         0041c728 f   LIBCMT:setlocal.obj
 0001:0001c608       ?strncnt@@YAHPBDH@Z        0041d608 f   LIBCMT:a_map.obj
 0001:0001c626       ?__crtLCMapStringA_stat@@YAHPAUlocaleinfo_struct@@KKPBDHPADHHH@Z 0041d626 f   LIBCMT:a_map.obj
 0001:0001cfa3       _fastcopy_I                0041dfa3 f   LIBCMT:p4_memcpy.obj
 0001:0001d10d       _has_osfxsr_set            0041e10d f   LIBCMT:cpu_disp.obj
 0001:0001d7b3       _xcptlookup                0041e7b3 f   LIBCMT:winxfltr.obj
 0001:0001ddb9       _parse_cmdline             0041edb9 f   LIBCMT:stdargv.obj
 0001:0001e6b5       _write_char                0041f6b5 f   LIBCMT:outputs.obj
 0001:0001e6e8       _write_multi_char          0041f6e8 f   LIBCMT:outputs.obj
 0001:0001e70e       _write_string              0041f70e f   LIBCMT:outputs.obj
 0001:0001f456       _write_char                00420456 f   LIBCMT:outputp.obj
 0001:0001f489       _write_multi_char          00420489 f   LIBCMT:outputp.obj
 0001:0001f4af       _write_string              004204af f   LIBCMT:outputp.obj
 0001:000207d1       _write_char                004217d1 f   LIBCMT:woutput.obj
 0001:00020800       _write_multi_char          00421800 f   LIBCMT:woutput.obj
 0001:00020827       _write_string              00421827 f   LIBCMT:woutput.obj
 0001:00021411       _write_char                00422411 f   LIBCMT:woutputs.obj
 0001:00021440       _write_multi_char          00422440 f   LIBCMT:woutputs.obj
 0001:00021467       _write_string              00422467 f   LIBCMT:woutputs.obj
 0001:000221af       _write_char                004231af f   LIBCMT:woutputp.obj
 0001:000221de       _write_multi_char          004231de f   LIBCMT:woutputp.obj
 0001:00022205       _write_string              00423205 f   LIBCMT:woutputp.obj
 0001:00023b1d       __tsopen_nolock            00424b1d f   LIBCMT:open.obj
 0001:000247fc       __unwind_handler           004257fc f   LIBCMT:exsup.obj
 0001:00024913       _fastzero_I                00425913 f   LIBCMT:p4_memset.obj
 0001:00024ba3       ?__crtGetStringTypeA_stat@@YAHPAUlocaleinfo_struct@@KPBDHPAGHHH@Z 00425ba3 f   LIBCMT:a_str.obj
 0001:00024dce       __get_lc_time              00425dce f   LIBCMT:inittime.obj
 0001:000253f7       _fix_grouping              004263f7 f   LIBCMT:initnum.obj
 0001:00025639       _fix_grouping              00426639 f   LIBCMT:initmon.obj
 0001:0002638e       ?_store_str@@YAXPADPAPADPAI@Z 0042738e f   LIBCMT:strftime.obj
 0001:000263ae       ?_store_number@@YAXHPAPADPAI@Z 004273ae f   LIBCMT:strftime.obj
 0001:000263e4       ?_store_num@@YAXHHPAPADPAII@Z 004273e4 f   LIBCMT:strftime.obj
 0001:0002645f       ?_expandtime@@YAHPAUlocaleinfo_struct@@DPBUtm@@PAPADPAIPAU__lc_time_data@@I@Z 0042745f f   LIBCMT:strftime.obj
 0001:00026847       ?_store_winword@@YAHPAUlocaleinfo_struct@@HPBUtm@@PAPADPAIPAU__lc_time_data@@@Z 00427847 f   LIBCMT:strftime.obj
 0001:00027148       _TranslateName             00428148 f   LIBCMT:getqloc.obj
 0001:000271aa       _GetLcidFromDefault        004281aa f   LIBCMT:getqloc.obj
 0001:000271be       _ProcessCodePage           004281be f   LIBCMT:getqloc.obj
 0001:00027262       _TestDefaultCountry        00428262 f   LIBCMT:getqloc.obj
 0001:00027286       _LcidFromHexString         00428286 f   LIBCMT:getqloc.obj
 0001:000272ba       _GetPrimaryLen             004282ba f   LIBCMT:getqloc.obj
 0001:000272d5       _CountryEnumProc@4         004282d5 f   LIBCMT:getqloc.obj
 0001:0002736d       _TestDefaultLanguage       0042836d f   LIBCMT:getqloc.obj
 0001:000273e1       _LangCountryEnumProc@4     004283e1 f   LIBCMT:getqloc.obj
 0001:000275b3       _LanguageEnumProc@4        004285b3 f   LIBCMT:getqloc.obj
 0001:00027674       _GetLcidFromCountry        00428674 f   LIBCMT:getqloc.obj
 0001:000276a0       _GetLcidFromLangCountry    004286a0 f   LIBCMT:getqloc.obj
 0001:00027707       _GetLcidFromLanguage       00428707 f   LIBCMT:getqloc.obj
 0001:00027934       _cmpResult                 00428934 f   LIBCMT:memcmp.obj
 0001:00027946       _cmpBYTE                   00428946 f   LIBCMT:memcmp.obj
 0001:0002795e       _cmpWORD                   0042895e f   LIBCMT:memcmp.obj
 0001:0002799e       _cmpDWORD                  0042899e f   LIBCMT:memcmp.obj
 0001:00027a16       _unaligned_memcmp          00428a16 f   LIBCMT:memcmp.obj
 0001:0002aa19       ?__crtGetLocaleInfoW_stat@@YAHPAUlocaleinfo_struct@@KKPA_WHH@Z 0042ba19 f   LIBCMT:w_loc.obj
 0001:0002aa66       ?__crtGetLocaleInfoA_stat@@YAHPAUlocaleinfo_struct@@KKPADHH@Z 0042ba66 f   LIBCMT:a_loc.obj
 0001:0002abe2       ?x_ismbbtype_l@@YAHPAUlocaleinfo_struct@@IHH@Z 0042bbe2 f   LIBCMT:ismbbyte.obj
 0001:0002b231       ?wcstoxl@@YAKPAUlocaleinfo_struct@@PB_WPAPB_WHH@Z 0042c231 f   LIBCMT:wcstol.obj
 0001:0002bd08       __tzset_nolock             0042cd08 f   LIBCMT:tzset.obj
 0001:0002c04e       _cvtdate                   0042d04e f   LIBCMT:tzset.obj
 0001:0002c245       __isindst_nolock           0042d245 f   LIBCMT:tzset.obj
 0001:0002c645       _xtoa_s@20                 0042d645 f   LIBCMT:xtoas.obj
 0001:0002c78d       @x64toa_s@24               0042d78d f   LIBCMT:xtoas.obj
 0001:0002c8d9       ?__crtGetStringTypeW_stat@@YAHPAUlocaleinfo_struct@@KPB_WHPAGHH@Z 0042d8d9 f   LIBCMT:w_str.obj
 0001:0002cd78       __getenv_s_helper          0042dd78 f   LIBCMT:getenv.obj
 0001:0002ce0d       __dupenv_s_helper          0042de0d f   LIBCMT:getenv.obj
 0001:0002d2ee       ?strncnt@@YAHPBDH@Z        0042e2ee f   LIBCMT:a_cmp.obj
 0001:0002d30c       ?__crtCompareStringA_stat@@YAHPAUlocaleinfo_struct@@KKPBDH1HH@Z 0042e30c f   LIBCMT:a_cmp.obj
 0001:0002d7e1       _findenv                   0042e7e1 f   LIBCMT:setenv.obj
 0001:0002d833       _copy_environ              0042e833 f   LIBCMT:setenv.obj
 0001:00036e50       ?saa1099_envelope@@YAXPAUsaa1099_state@@H@Z 00437e50 f    CIL library: CIL module
 0001:00039a30       ?FillCheck@@YA_NPBXDI@Z    0043aa30 f    CIL library: CIL module
 0001:0003d750       ?rdtsc@@YA_KXZ             0043e750 f    CIL library: CIL module
 0001:0003db30       ?cpuid@@YAXQAII@Z          0043eb30 f    CIL library: CIL module
 0001:0003db40       ?rdtsc@@YA_KXZ             0043eb40 f    CIL library: CIL module
 0001:000402c0       ?png_flush@@YAXPAUpng_struct_def@@@Z 004412c0 f    CIL library: CIL module
 0001:000402e0       ?png_write_data@@YAXPAUpng_struct_def@@PAEI@Z 004412e0 f    CIL library: CIL module
 0001:000410e0       ?VideoNullSaver@@YAXXZ     004420e0 f    CIL library: CIL module
 0001:000414c0       ?addref@@YAXAAPADEPBDII@Z  004424c0 f    CIL library: CIL module
 0001:00042500       ?VideoFrameSaver@@YAXXZ    00443500 f    CIL library: CIL module
 0001:00046110       ?rdtsc@@YA_KXZ             00447110 f    CIL library: CIL module
 0001:000463a0       ?rdtsc@@YA_KXZ             004473a0 f    CIL library: CIL module
 0001:000463b0       ?asm_pause@@YAXXZ          004473b0 f    CIL library: CIL module
 0001:00046ad0       ?text_16@@YAXPAEPBDE@Z     00447ad0 f    CIL library: CIL module
 0001:00046d20       ?rdtsc@@YA_KXZ             00447d20 f    CIL library: CIL module
 0001:00051b80       ?UpdateMemMapping@z80gs@@YAXXZ 00452b80 f    CIL library: CIL module
 0001:00051cd0       ?flush_gs_sound@z80gs@@YAXXZ 00452cd0 f    CIL library: CIL module
 0001:00051f40       ?rdtsc@@YA_KXZ             00452f40 f    CIL library: CIL module
 0001:00051f50       ?rol8@@YAEEE@Z             00452f50 f    CIL library: CIL module
 0001:00051fd0       ?stepi@z80gs@@YAXXZ        00452fd0 f    CIL library: CIL module
 0001:00052260       ?gs_byte_to_dac@z80gs@@YAXIE@Z 00453260 f    CIL library: CIL module
 0001:00055f60       ?FMCloseTable@@YAXXZ       00456f60 f    CIL library: CIL module
 0001:00055f70       ?init_tables@@YAHXZ        00456f70 f    CIL library: CIL module
 0001:000560e0       ?reset_channels@@YAXPAUFM_ST@@PAUFM_CH@@H@Z 004570e0 f    CIL library: CIL module
 0001:00056140       ?init_timetables@@YAXPAUFM_ST@@PBE@Z 00457140 f    CIL library: CIL module
 0001:00056420       ?setup_connection@@YAXPAUFM_CH@@H@Z 00457420 f    CIL library: CIL module
 0001:000566b0       ?OPNWriteReg@@YAXPAUFM_OPN@@HH@Z 004576b0 f    CIL library: CIL module
 0001:00056980       ?OPNSetPres@@YAXPAUFM_OPN@@HHH@Z 00457980 f    CIL library: CIL module
 0001:00057590       ?OPNWriteMode@@YAXPAUFM_OPN@@HH@Z 00458590 f    CIL library: CIL module
 0001:000576e0       ?FMsave_state_st@@YAXPBDHPAUFM_ST@@@Z 004586e0 f    CIL library: CIL module
 0001:000579e0       ?FMsave_state_channel@@YAXPBDHPAUFM_CH@@H@Z 004589e0 f    CIL library: CIL module
 0001:00058220       ?getrom@@YAPBDW4ROM_MODE@@@Z 00459220 f    CIL library: CIL module
 0001:000585a0       ?qsave@@YAXPBD@Z           004595a0 f    CIL library: CIL module
 0001:000590c0       ?qload@@YAXPBD@Z           0045a0c0 f    CIL library: CIL module
 0001:000599e0       ?recognize_text@@YAXPBEQAPAE@Z 0045a9e0 f    CIL library: CIL module
 0001:0005d800       ?line_atm0_32d@@YAXPAE0PAIH@Z 0045e800 f    CIL library: CIL module
 0001:0005d8b0       ?line_atm0_32@@YAXPAE0PAIH@Z 0045e8b0 f    CIL library: CIL module
 0001:0005d940       ?line_atm0_16d@@YAXPAE0PAIH@Z 0045e940 f    CIL library: CIL module
 0001:0005d9d0       ?line_atm0_16@@YAXPAE0PAIH@Z 0045e9d0 f    CIL library: CIL module
 0001:0005da70       ?line_atm0_8d@@YAXPAE0PAIH@Z 0045ea70 f    CIL library: CIL module
 0001:0005dad0       ?line_atm0_8@@YAXPAE0PAIH@Z 0045ead0 f    CIL library: CIL module
 0001:0005f4f0       ?line_p4bpp_32d_nf@@YAXPAE00PAI@Z 004604f0 f    CIL library: CIL module
 0001:0005f6d0       ?line_p4bpp_32d@@YAXPAE0PAI@Z 004606d0 f    CIL library: CIL module
 0001:0005f7c0       ?line_p4bpp_32@@YAXPAE0PAI@Z 004607c0 f    CIL library: CIL module
 0001:0005f810       ?line_p4bpp_16d_nf@@YAXPAE00PAI@Z 00460810 f    CIL library: CIL module
 0001:0005f9c0       ?line_p4bpp_16d@@YAXPAE0PAI@Z 004609c0 f    CIL library: CIL module
 0001:0005fa90       ?line_p4bpp_16@@YAXPAE0PAI@Z 00460a90 f    CIL library: CIL module
 0001:0005fae0       ?line_p4bpp_8d_nf@@YAXPAE00PAI@Z 00460ae0 f    CIL library: CIL module
 0001:0005fc20       ?line_p4bpp_8d@@YAXPAE0PAI@Z 00460c20 f    CIL library: CIL module
 0001:0005fcb0       ?line_p4bpp_8@@YAXPAE0PAI@Z 00460cb0 f    CIL library: CIL module
 0001:0005fcf0       ?r_p4bpp_32d@@YAXPAEI@Z    00460cf0 f    CIL library: CIL module
 0001:0005fdb0       ?r_p4bpp_32d1@@YAXPAEI@Z   00460db0 f    CIL library: CIL module
 0001:0005fe50       ?r_p4bpp_32@@YAXPAEI@Z     00460e50 f    CIL library: CIL module
 0001:0005fea0       ?r_p4bpp_16d@@YAXPAEI@Z    00460ea0 f    CIL library: CIL module
 0001:0005ff60       ?r_p4bpp_16d1@@YAXPAEI@Z   00460f60 f    CIL library: CIL module
 0001:00060000       ?r_p4bpp_16@@YAXPAEI@Z     00461000 f    CIL library: CIL module
 0001:00060050       ?r_p4bpp_8d@@YAXPAEI@Z     00461050 f    CIL library: CIL module
 0001:00060110       ?r_p4bpp_8d1@@YAXPAEI@Z    00461110 f    CIL library: CIL module
 0001:000601b0       ?r_p4bpp_8@@YAXPAEI@Z      004611b0 f    CIL library: CIL module
 0001:000679b0       ?_bil_line2@@YIXPAE0@Z     004689b0 f    CIL library: CIL module
 0001:00067a20       ?_bil_line1@@YIXPAE0@Z     00468a20 f    CIL library: CIL module
 0001:0006b290       ?DoneD3d@@YAX_N@Z          0046c290 f    CIL library: CIL module
 0001:0006b6d0       ?FlipGdi@@YAXXZ            0046c6d0 f    CIL library: CIL module
 0001:0006ba20       ?CalcWindowSize@@YAXXZ     0046ca20 f    CIL library: CIL module
 0001:0006bbd0       ?StartD3d@@YAXPAUHWND__@@@Z 0046cbd0 f    CIL library: CIL module
 0001:0006c140       ?SetVideoModeD3d@@YAXXZ    0046d140 f    CIL library: CIL module
 0001:0006c750       ?FlipVideoMem@@YAXXZ       0046d750 f    CIL library: CIL module
 0001:0006c8d0       ?FlipD3d@@YAXXZ            0046d8d0 f    CIL library: CIL module
 0001:0006ca80       ?FlipBlt@@YAXXZ            0046da80 f    CIL library: CIL module
 0001:000738a0       ?rw_err@@YAXPBD@Z          004748a0 f    CIL library: CIL module
 0001:00076660       ?wtline@@YAXPBDII@Z        00477660 f    CIL library: CIL module
 0001:0007a290       ?get_dos_flag@@YA_NXZ      0047b290 f    CIL library: CIL module
 0001:0007a2a0       ?SaveBpx@@YAXXZ            0047b2a0 f    CIL library: CIL module
 0001:0007a3f0       ?LoadBpx@@YAXXZ            0047b3f0 f    CIL library: CIL module
 0001:00081ab0       ?rend_atm_frame@@YAXPAEI@Z 00482ab0 f    CIL library: CIL module
 0001:00081b20       ?rend_atm_frame_small@@YAXPAEI@Z 00482b20 f    CIL library: CIL module
 0001:00085457       __shift                    00486457 f   LIBCMT:cvt.obj
 0001:0008549c       __cftoe2_l                 0048649c f   LIBCMT:cvt.obj
 0001:00085a8e       __cftof2_l                 00486a8e f   LIBCMT:cvt.obj
 0001:00089f17       __get_fname                0048af17 f   LIBCMT:_fpexcept_.obj
 0001:0008cea3       __abstract_cw              0048dea3 f   LIBCMT:_ieee87_.obj
 0001:0008cf42       __hw_cw                    0048df42 f   LIBCMT:_ieee87_.obj
 0001:0008cfd0       __abstract_sw              0048dfd0 f   LIBCMT:_ieee87_.obj
 0001:0008d013       ___abstract_cw_sse2        0048e013 f   LIBCMT:_ieee87_.obj
 0001:0008d0b3       ___hw_cw_sse2              0048e0b3 f   LIBCMT:_ieee87_.obj
 0001:0008d153       ___abstract_sw_sse2        0048e153 f   LIBCMT:_ieee87_.obj
 0001:0008d196       ___fpreset_sse2            0048e196 f   LIBCMT:_ieee87_.obj
 0001:0008d26c       ___statusfp_sse2           0048e26c f   LIBCMT:_ieee87_.obj
 0001:0008d2a7       ___clearfp_sse2            0048e2a7 f   LIBCMT:_ieee87_.obj
 0001:0008d2f7       ___control87_sse2          0048e2f7 f   LIBCMT:_ieee87_.obj
 0001:0008e260       ??__ECheatDlg@@YAXXZ       0048f260 f    CIL library: CIL module
 0001:0008e270       ??__Emon_labels@@YAXXZ     0048f270 f    CIL library: CIL module
 0001:0008e280       ??__Ersm@@YAXXZ            0048f280 f    CIL library: CIL module
 0001:0008e290       ??__Ecpu@@YAXXZ            0048f290 f    CIL library: CIL module
 0001:0008e2a0       ??__Esound@z80gs@@YAXXZ    0048f2a0 f    CIL library: CIL module
 0001:0008e2b0       ??__Egscpu@@YAXXZ          0048f2b0 f    CIL library: CIL module
 0001:0008e2c0       ??__Ecomp@@YAXXZ           0048f2c0 f    CIL library: CIL module
 0001:0008e2f0       ??__Ehdd@@YAXXZ            0048f2f0 f    CIL library: CIL module
 0001:0008e310       ??__Esound@@YAXXZ          0048f310 f    CIL library: CIL module
 0001:0008e320       ??__Eay@@YAXXZ             0048f320 f    CIL library: CIL module
 0001:0008e350       ??__EVs1001@@YAXXZ         0048f350 f    CIL library: CIL module
 0001:0008e410       ??__ESaa1099@@YAXXZ        0048f410 f    CIL library: CIL module
 0001:0008e420       ??__FCheatDlg@@YAXXZ       0048f420 f    CIL library: CIL module
 0001:0008e440       ??__Fmon_labels@@YAXXZ     0048f440 f    CIL library: CIL module
 0001:0008e480       ??__Frsm@@YAXXZ            0048f480 f    CIL library: CIL module
 0001:0008e490       ??__Fcpu@@YAXXZ            0048f490 f    CIL library: CIL module
 0001:0008e4a0       ??__Fgscpu@@YAXXZ          0048f4a0 f    CIL library: CIL module
 0001:0008e4b0       ??__Fcomp@@YAXXZ           0048f4b0 f    CIL library: CIL module
 0001:0008e4e0       ??__Fhdd@@YAXXZ            0048f4e0 f    CIL library: CIL module
 0001:0008e4f0       ??__FVs1001@@YAXXZ         0048f4f0 f    CIL library: CIL module
